 AuditScanner

 Timestamp is 55892d1a (Tue Jun 23 10:55:38 2015)

 Preferred load address is 00400000

 Start         Length     Name                   Class
 0001:00000000 0010eb4aH .text                   CODE
 0001:0010eb50 0000de18H .text$x                 CODE
 0001:0011c970 000004e5H .text$yc                CODE
 0001:0011ce60 00000257H .text$yd                CODE
 0002:00000000 000006b8H .idata$5                DATA
 0002:000006b8 00000004H .CRT$XCA                DATA
 0002:000006bc 0000000cH .CRT$XCC                DATA
 0002:000006c8 0000000cH .CRT$XCL                DATA
 0002:000006d4 00000074H .CRT$XCU                DATA
 0002:00000748 00000004H .CRT$XCZ                DATA
 0002:0000074c 00000004H .CRT$XIA                DATA
 0002:00000750 00000014H .CRT$XIC                DATA
 0002:00000764 00000004H .CRT$XIY                DATA
 0002:00000768 00000004H .CRT$XIZ                DATA
 0002:0000076c 00000004H .CRT$XPA                DATA
 0002:00000770 00000004H .CRT$XPX                DATA
 0002:00000774 00000004H .CRT$XPXA               DATA
 0002:00000778 00000004H .CRT$XPZ                DATA
 0002:0000077c 00000004H .CRT$XTA                DATA
 0002:00000780 00000004H .CRT$XTZ                DATA
 0002:00000790 0008e518H .rdata                  DATA
 0002:0008eca8 00005830H .rdata$r                DATA
 0002:000944e0 00000b2cH .rdata$sxdata           DATA
 0002:0009500c 00000004H .rtc$IAA                DATA
 0002:00095010 00000004H .rtc$IZZ                DATA
 0002:00095014 00000004H .rtc$TAA                DATA
 0002:00095018 00000004H .rtc$TZZ                DATA
 0002:00095020 0000ef34H .xdata$x                DATA
 0002:000a3f54 00000000H ATL$__a                 DATA
 0002:000a3f54 00000000H ATL$__z                 DATA
 0002:000a3f54 00000020H .didat$2                DATA
 0002:000a3f74 00000020H .didat$3                DATA
 0002:000a3f94 0000000cH .didat$4                DATA
 0002:000a3fa0 00000030H .didat$6                DATA
 0002:000a3fd0 0000000cH .didat$7                DATA
 0002:000a3fdc 00000140H .idata$2                DATA
 0002:000a411c 00000014H .idata$3                DATA
 0002:000a4130 000006b8H .idata$4                DATA
 0002:000a47e8 00001c18H .idata$6                DATA
 0002:000a6400 00000000H .edata                  DATA
 0003:00000000 000108e0H .data                   DATA
 0003:000108e0 0000000cH .didat$5                DATA
 0003:00010900 00006e60H .bss                    DATA
 0004:00000000 00000f28H .rsrc$01                DATA
 0004:00000f30 000061c0H .rsrc$02                DATA

  Address         Publics by Value              Rva+Base       Lib:Object

 0000:00000000       __except_list              00000000     <absolute>
 0000:000002cb       ___safe_se_handler_count   000002cb     <absolute>
 0000:00000000       ___ImageBase               00400000     <linker-defined>
 0001:00000000       ?GetRuntimeClass@CPageBasicInformation@@UBEPAUCRuntimeClass@@XZ 00401000 f   PageBasicInformation.obj
 0001:00000006       ?GetThisMessageMap@CPageBasicInformation@@KGPBUAFX_MSGMAP@@XZ 00401006 f   PageBasicInformation.obj
 0001:0000000c       ?AtlThrowImpl@ATL@@YGXJ@Z  0040100c f i PageBasicInformation.obj
 0001:00000025       ?Release@CStringData@ATL@@QAEXXZ 00401025 f i PageBasicInformation.obj
 0001:0000003f       ??3CObject@@SGXPAX@Z       0040103f f i PageBasicInformation.obj
 0001:0000004c       ?SetCurSel@CComboBox@@QAEHH@Z 0040104c f i PageBasicInformation.obj
 0001:00000063       ?AddString@CComboBox@@QAEHPBD@Z 00401063 f i PageBasicInformation.obj
 0001:0000007a       ?ResetContent@CComboBox@@QAEXXZ 0040107a f i PageBasicInformation.obj
 0001:0000008d       ?SetLength@?$CSimpleStringT@D$0A@@ATL@@AAEXH@Z 0040108d f i PageBasicInformation.obj
 0001:000000b3       ?ThrowMemoryException@?$CSimpleStringT@D$0A@@ATL@@KAXXZ 004010b3 f i PageBasicInformation.obj
 0001:000000be       ?Fork@?$CSimpleStringT@D$0A@@ATL@@AAEXH@Z 004010be f i PageBasicInformation.obj
 0001:00000126       ?Reallocate@?$CSimpleStringT@D$0A@@ATL@@AAEXH@Z 00401126 f i PageBasicInformation.obj
 0001:0000015a       ?GetMessageMap@CPageBasicInformation@@MBEPBUAFX_MSGMAP@@XZ 0040115a f   PageBasicInformation.obj
 0001:0000015f       ?OnSetActive@CPageUserData@@UAEHXZ 0040115f f   PageUserData.obj
 0001:0000015f       ?OnSetActive@CPageBasicInformation@@UAEHXZ 0040115f f   PageBasicInformation.obj
 0001:0000015f       ?OnSetActive@CPageScanning@@UAEHXZ 0040115f f   PageScanning.obj
 0001:00000180       ??0?$CSimpleStringT@D$0A@@ATL@@QAE@PAUIAtlStringMgr@1@@Z 00401180 f i PageBasicInformation.obj
 0001:000001a5       ?Empty@?$CSimpleStringT@D$0A@@ATL@@QAEXXZ 004011a5 f i PageBasicInformation.obj
 0001:000001e8       ?PrepareWrite2@?$CSimpleStringT@D$0A@@ATL@@AAEXH@Z 004011e8 f i PageBasicInformation.obj
 0001:0000022f       ?CloneData@?$CSimpleStringT@D$0A@@ATL@@CAPAUCStringData@2@PAU32@@Z 0040122f f i PageBasicInformation.obj
 0001:0000028a       ??0?$CStringT@DV?$StrTraitMFC@DV?$ChTraitsCRT@D@ATL@@@@@ATL@@QAE@XZ 0040128a f i PageBasicInformation.obj
 0001:0000029e       ??1CAssetType@@QAE@XZ      0040129e f i AssetType.obj
 0001:0000029e       ??1?$CSimpleStringT@D$0A@@ATL@@QAE@XZ 0040129e f i PageBasicInformation.obj
 0001:0000029e       ??1?$CStringT@DV?$StrTraitMFC@DV?$ChTraitsCRT@D@ATL@@@@@ATL@@QAE@XZ 0040129e f i PageBasicInformation.obj
 0001:000002a8       ?PrepareWrite@?$CSimpleStringT@D$0A@@ATL@@AAEPADH@Z 004012a8 f i PageBasicInformation.obj
 0001:000002d2       ??_E?$CStringT@DV?$StrTraitMFC@DV?$ChTraitsCRT@D@ATL@@@@@ATL@@QAEPAXI@Z 004012d2 f i PageBasicInformation.obj
 0001:00000320       ??1CPageBasicInformation@@UAE@XZ 00401320 f   PageBasicInformation.obj
 0001:00000377       ?BeginModalState@CWnd@@UAEXXZ 00401377 f i PageBasicInformation.obj
 0001:00000383       ?EndModalState@CWnd@@UAEXXZ 00401383 f i PageBasicInformation.obj
 0001:0000038f       ?Create@CDialog@@UAEHIPAVCWnd@@@Z 0040138f f i PageBasicInformation.obj
 0001:000003a1       ?SetString@?$CSimpleStringT@D$0A@@ATL@@QAEXPBDH@Z 004013a1 f i PageBasicInformation.obj
 0001:00000410       ??_ECPageBasicInformation@@UAEPAXI@Z 00401410 f i PageBasicInformation.obj
 0001:00000410       ??_GCPageBasicInformation@@UAEPAXI@Z 00401410 f i PageBasicInformation.obj
 0001:0000042c       ??4?$CSimpleStringT@D$0A@@ATL@@QAEAAV01@ABV01@@Z 0040142c f i PageBasicInformation.obj
 0001:00000479       ?SetString@?$CSimpleStringT@D$0A@@ATL@@QAEXPBD@Z 00401479 f i PageBasicInformation.obj
 0001:0000049e       ??4?$CStringT@DV?$StrTraitMFC@DV?$ChTraitsCRT@D@ATL@@@@@ATL@@QAEAAV01@ABV01@@Z 0040149e f i PageBasicInformation.obj
 0001:000004b0       ?DoDataExchange@CPageBasicInformation@@MAEXPAVCDataExchange@@@Z 004014b0 f   PageBasicInformation.obj
 0001:000005b6       ?OnInitDialog@CPageBasicInformation@@MAEHXZ 004015b6 f   PageBasicInformation.obj
 0001:000007a0       ??4?$CStringT@DV?$StrTraitMFC@DV?$ChTraitsCRT@D@ATL@@@@@ATL@@QAEAAV01@PBD@Z 004017a0 f i PageBasicInformation.obj
 0001:000007b2       ??0CPageBasicInformation@@QAE@XZ 004017b2 f   PageBasicInformation.obj
 0001:00000859       ?CreateObject@CPageBasicInformation@@SGPAVCObject@@XZ 00401859 f   PageBasicInformation.obj
 0001:00000889       ?GetRuntimeClass@CPageFinish@@UBEPAUCRuntimeClass@@XZ 00401889 f   PageFinish.obj
 0001:0000088f       ?_AtlGetStringResourceImage@ATL@@YAPBUATLSTRINGRESOURCEIMAGE@1@PAUHINSTANCE__@@PAUHRSRC__@@I@Z 0040188f f i PageFinish.obj
 0001:000008ea       ?AtlGetStringResourceImage@ATL@@YAPBUATLSTRINGRESOURCEIMAGE@1@PAUHINSTANCE__@@I@Z 004018ea f i PageFinish.obj
 0001:00000919       ??_ECListBox@@UAEPAXI@Z    00401919 f i PageFinish.obj
 0001:00000919       ??_GCListBox@@UAEPAXI@Z    00401919 f i PageFinish.obj
 0001:00000935       ?AddString@CListBox@@QAEHPBD@Z 00401935 f i PageFinish.obj
 0001:0000094c       ??0CWaitCursor@@QAE@XZ     0040194c f i PageFinish.obj
 0001:00000960       ?SetWizardButtons@CPropertySheet@@QAEXK@Z 00401960 f i PageFinish.obj
 0001:00000977       ?PressButton@CPropertySheet@@QAEXH@Z 00401977 f i PageFinish.obj
 0001:0000099c       ?ConvertToBaseType@?$ChTraitsCRT@D@ATL@@SAXPADHPB_WH@Z 0040199c f i PageFinish.obj
 0001:000009ba       ?GetBaseTypeLength@?$ChTraitsCRT@D@ATL@@SAHPB_WH@Z 004019ba f i PageFinish.obj
 0001:000009d2       ?DoDataExchange@CPageFinish@@MAEXPAVCDataExchange@@@Z 004019d2 f   PageFinish.obj
 0001:000009ea       ?OnInitDialog@CPageFinish@@MAEHXZ 004019ea f   PageFinish.obj
 0001:00000a27       ?Compare@?$CStringT@DV?$StrTraitMFC@DV?$ChTraitsCRT@D@ATL@@@@@ATL@@QBEHPBD@Z 00401a27 f i PageFinish.obj
 0001:00000a49       ?GetManager@?$CStringT@DV?$StrTraitMFC@DV?$ChTraitsCRT@D@ATL@@@@@ATL@@QBEPAUIAtlStringMgr@2@XZ 00401a49 f i PageFinish.obj
 0001:00000a6c       ??0?$CStringT@DV?$StrTraitMFC@DV?$ChTraitsCRT@D@ATL@@@@@ATL@@QAE@PAUIAtlStringMgr@1@@Z 00401a6c f i PageFinish.obj
 0001:00000a7e       ??0?$CSimpleStringT@D$0A@@ATL@@QAE@ABV01@@Z 00401a7e f i PageFinish.obj
 0001:00000a9c       ??0CPageFinish@@QAE@XZ     00401a9c f   PageFinish.obj
 0001:00000af6       ??1CPageFinish@@UAE@XZ     00401af6 f   PageFinish.obj
 0001:00000b4d       ?CheckFileExists@CPageFinish@@IAE_NAAV?$CStringT@DV?$StrTraitMFC@DV?$ChTraitsCRT@D@ATL@@@@@ATL@@AAVCkSFtp@@@Z 00401b4d f   PageFinish.obj
 0001:00000c5d       ?MsgCallback@CPageFinish@@KAXV?$CStringT@DV?$StrTraitMFC@DV?$ChTraitsCRT@D@ATL@@@@@ATL@@J@Z 00401c5d f   PageFinish.obj
 0001:00000c69       ??0?$CStringT@DV?$StrTraitMFC@DV?$ChTraitsCRT@D@ATL@@@@@ATL@@QAE@ABV01@@Z 00401c69 f i PageFinish.obj
 0001:00000c7b       ?LoadStringA@?$CStringT@DV?$StrTraitMFC@DV?$ChTraitsCRT@D@ATL@@@@@ATL@@QAEHPAUHINSTANCE__@@I@Z 00401c7b f i PageFinish.obj
 0001:00000cd4       ?Empty@?$CDynaList@V?$CStringT@DV?$StrTraitMFC@DV?$ChTraitsCRT@D@ATL@@@@@ATL@@@@QAEXXZ 00401cd4 f i PageFinish.obj
 0001:00000cf9       ?FormatV@?$CStringT@DV?$StrTraitMFC@DV?$ChTraitsCRT@D@ATL@@@@@ATL@@QAEXPBDPAD@Z 00401cf9 f i PageFinish.obj
 0001:00000d48       ?CreateObject@CPageFinish@@SGPAVCObject@@XZ 00401d48 f   PageFinish.obj
 0001:00000d78       ??_GCPageFinish@@UAEPAXI@Z 00401d78 f i PageFinish.obj
 0001:00000d78       ??_ECPageFinish@@UAEPAXI@Z 00401d78 f i PageFinish.obj
 0001:00000d94       ?Concatenate@?$CSimpleStringT@D$0A@@ATL@@KAXAAV12@PBDH1H@Z 00401d94 f i PageFinish.obj
 0001:00000ddb       ?Append@?$CSimpleStringT@D$0A@@ATL@@QAEXPBDH@Z 00401ddb f i PageFinish.obj
 0001:00000e5b       ?DeployPathData@CAuditScannerConfiguration@@QAE?AV?$CStringT@DV?$StrTraitMFC@DV?$ChTraitsCRT@D@ATL@@@@@ATL@@XZ 00401e5b f i PageFinish.obj
 0001:00000e76       ?EmailAddress@CAuditScannerConfiguration@@QAE?AV?$CStringT@DV?$StrTraitMFC@DV?$ChTraitsCRT@D@ATL@@@@@ATL@@XZ 00401e76 f i PageFinish.obj
 0001:00000e91       ?AuditWizardServer@CAuditScannerConfiguration@@QAE?AV?$CStringT@DV?$StrTraitMFC@DV?$ChTraitsCRT@D@ATL@@@@@ATL@@XZ 00401e91 f i PageFinish.obj
 0001:00000eac       ?FTPType@CAuditScannerConfiguration@@QAE?AV?$CStringT@DV?$StrTraitMFC@DV?$ChTraitsCRT@D@ATL@@@@@ATL@@XZ 00401eac f i PageFinish.obj
 0001:00000ec7       ?FTPUsername@CAuditScannerConfiguration@@QAE?AV?$CStringT@DV?$StrTraitMFC@DV?$ChTraitsCRT@D@ATL@@@@@ATL@@XZ 00401ec7 f i PageFinish.obj
 0001:00000ee2       ?FTPPassword@CAuditScannerConfiguration@@QAE?AV?$CStringT@DV?$StrTraitMFC@DV?$ChTraitsCRT@D@ATL@@@@@ATL@@XZ 00401ee2 f i PageFinish.obj
 0001:00000efd       ?FTPSite@CAuditScannerConfiguration@@QAE?AV?$CStringT@DV?$StrTraitMFC@DV?$ChTraitsCRT@D@ATL@@@@@ATL@@XZ 00401efd f i PageFinish.obj
 0001:00000f18       ?FTPTypeBackup@CAuditScannerConfiguration@@QAE?AV?$CStringT@DV?$StrTraitMFC@DV?$ChTraitsCRT@D@ATL@@@@@ATL@@XZ 00401f18 f i PageFinish.obj
 0001:00000f33       ?FTPUsernameBackup@CAuditScannerConfiguration@@QAE?AV?$CStringT@DV?$StrTraitMFC@DV?$ChTraitsCRT@D@ATL@@@@@ATL@@XZ 00401f33 f i PageFinish.obj
 0001:00000f4e       ?FTPPasswordBackup@CAuditScannerConfiguration@@QAE?AV?$CStringT@DV?$StrTraitMFC@DV?$ChTraitsCRT@D@ATL@@@@@ATL@@XZ 00401f4e f i PageFinish.obj
 0001:00000f69       ?FTPSiteBackup@CAuditScannerConfiguration@@QAE?AV?$CStringT@DV?$StrTraitMFC@DV?$ChTraitsCRT@D@ATL@@@@@ATL@@XZ 00401f69 f i PageFinish.obj
 0001:00000f84       ?LoadStringA@?$CStringT@DV?$StrTraitMFC@DV?$ChTraitsCRT@D@ATL@@@@@ATL@@QAEHI@Z 00401f84 f i PageFinish.obj
 0001:00000fa4       ??1?$CDynaList@V?$CStringT@DV?$StrTraitMFC@DV?$ChTraitsCRT@D@ATL@@@@@ATL@@@@UAE@XZ 00401fa4 f i PageFinish.obj
 0001:00000faf       ??_E?$CDynaList@V?$CStringT@DV?$StrTraitMFC@DV?$ChTraitsCRT@D@ATL@@@@@ATL@@@@UAEPAXI@Z 00401faf f i PageFinish.obj
 0001:00000faf       ??_G?$CDynaList@V?$CStringT@DV?$StrTraitMFC@DV?$ChTraitsCRT@D@ATL@@@@@ATL@@@@UAEPAXI@Z 00401faf f i PageFinish.obj
 0001:00000fd1       ?CheckImplicitLoad@?$CStringT@DV?$StrTraitMFC@DV?$ChTraitsCRT@D@ATL@@@@@ATL@@AAE_NPBX@Z 00401fd1 f i PageFinish.obj
 0001:00000ff1       ?Format@?$CStringT@DV?$StrTraitMFC@DV?$ChTraitsCRT@D@ATL@@@@@ATL@@QAAXPBDZZ 00401ff1 f i PageFinish.obj
 0001:00001004       ??0CMapiMsg@@QAE@XZ        00402004 f i PageFinish.obj
 0001:00001067       ??1CMapiMsg@@QAE@XZ        00402067 f i PageFinish.obj
 0001:000010c4       ?SaveResultsToTcp@CPageFinish@@IAEXAAV?$CStringT@DV?$StrTraitMFC@DV?$ChTraitsCRT@D@ATL@@@@@ATL@@@Z 004020c4 f   PageFinish.obj
 0001:00001215       ??HATL@@YA?AV?$CStringT@DV?$StrTraitMFC@DV?$ChTraitsCRT@D@ATL@@@@@0@ABV10@PBD@Z 00402215 f i PageFinish.obj
 0001:00001279       ?Append@?$CSimpleStringT@D$0A@@ATL@@QAEXPBD@Z 00402279 f i PageFinish.obj
 0001:0000129e       ??1CWaitCursor@@QAE@XZ     0040229e f i PageFinish.obj
 0001:0000138e       ?Expand@?$CDynaList@V?$CStringT@DV?$StrTraitMFC@DV?$ChTraitsCRT@D@ATL@@@@@ATL@@@@IAEXK@Z 0040238e f i PageFinish.obj
 0001:00001443       ?SaveResultsToTemp@CPageFinish@@IAEXAAV?$CStringT@DV?$StrTraitMFC@DV?$ChTraitsCRT@D@ATL@@@@@ATL@@@Z 00402443 f   PageFinish.obj
 0001:00001557       ?SaveResultsToNetwork@CPageFinish@@IAEXXZ 00402557 f   PageFinish.obj
 0001:000016a9       ?Add@?$CDynaList@V?$CStringT@DV?$StrTraitMFC@DV?$ChTraitsCRT@D@ATL@@@@@ATL@@@@QAEKABV?$CStringT@DV?$StrTraitMFC@DV?$ChTraitsCRT@D@ATL@@@@@ATL@@@Z 004026a9 f i PageFinish.obj
 0001:000016da       ??Y?$CStringT@DV?$StrTraitMFC@DV?$ChTraitsCRT@D@ATL@@@@@ATL@@QAEAAV01@PBD@Z 004026da f i PageFinish.obj
 0001:000016ec       ??0?$CStringT@DV?$StrTraitMFC@DV?$ChTraitsCRT@D@ATL@@@@@ATL@@QAE@PBD@Z 004026ec f i PageFinish.obj
 0001:00001730       ?SaveResultsToFtp@CPageFinish@@IAEXAAV?$CStringT@DV?$StrTraitMFC@DV?$ChTraitsCRT@D@ATL@@@@@ATL@@@Z 00402730 f   PageFinish.obj
 0001:000019c7       ?SaveResultsToFtpBackup@CPageFinish@@IAEXAAV?$CStringT@DV?$StrTraitMFC@DV?$ChTraitsCRT@D@ATL@@@@@ATL@@@Z 004029c7 f   PageFinish.obj
 0001:00001c72       ?SaveResultsToSftp@CPageFinish@@IAEXAAV?$CStringT@DV?$StrTraitMFC@DV?$ChTraitsCRT@D@ATL@@@@@ATL@@@Z 00402c72 f   PageFinish.obj
 0001:00001fce       ?SaveResultsToSftpBackup@CPageFinish@@IAEXAAV?$CStringT@DV?$StrTraitMFC@DV?$ChTraitsCRT@D@ATL@@@@@ATL@@@Z 00402fce f   PageFinish.obj
 0001:0000233f       ?SaveResultsToEmail@CPageFinish@@IAEXAAV?$CStringT@DV?$StrTraitMFC@DV?$ChTraitsCRT@D@ATL@@@@@ATL@@@Z 0040333f f   PageFinish.obj
 0001:0000257e       ?SaveData@CPageFinish@@IAEXXZ 0040357e f   PageFinish.obj
 0001:00002744       ?OnTimer@CPageFinish@@IAEXI@Z 00403744 f   PageFinish.obj
 0001:000027bb       ?GetThisMessageMap@CPageFinish@@KGPBUAFX_MSGMAP@@XZ 004037bb f   PageFinish.obj
 0001:000027c1       ?GetMessageMap@CPageFinish@@MBEPBUAFX_MSGMAP@@XZ 004037c1 f   PageFinish.obj
 0001:000027c6       ?GetRuntimeClass@CPageLocations@@UBEPAUCRuntimeClass@@XZ 004037c6 f   PageLocations.obj
 0001:000027cc       ?OnKillActive@CPageLocations@@UAEHXZ 004037cc f   PageLocations.obj
 0001:000027d1       ??_GCTreeCtrl@@UAEPAXI@Z   004037d1 f i PageLocations.obj
 0001:000027d1       ??_ECTreeCtrl@@UAEPAXI@Z   004037d1 f i PageLocations.obj
 0001:000027ed       ?InsertItem@CTreeCtrl@@QAEPAU_TREEITEM@@PBDPAU2@1@Z 004037ed f i PageLocations.obj
 0001:0000280a       ?DeleteAllItems@CTreeCtrl@@QAEHXZ 0040380a f i PageLocations.obj
 0001:00002820       ?SetImageList@CTreeCtrl@@QAEPAVCImageList@@PAV2@H@Z 00403820 f i PageLocations.obj
 0001:00002847       ?GetChildItem@CTreeCtrl@@QBEPAU_TREEITEM@@PAU2@@Z 00403847 f i PageLocations.obj
 0001:0000285e       ?GetNextSiblingItem@CTreeCtrl@@QBEPAU_TREEITEM@@PAU2@@Z 0040385e f i PageLocations.obj
 0001:00002875       ?GetParentItem@CTreeCtrl@@QBEPAU_TREEITEM@@PAU2@@Z 00403875 f i PageLocations.obj
 0001:0000288c       ?GetSelectedItem@CTreeCtrl@@QBEPAU_TREEITEM@@XZ 0040388c f i PageLocations.obj
 0001:0000289f       ?GetRootItem@CTreeCtrl@@QBEPAU_TREEITEM@@XZ 0040389f f i PageLocations.obj
 0001:000028b2       ?SelectItem@CTreeCtrl@@QAEHPAU_TREEITEM@@@Z 004038b2 f i PageLocations.obj
 0001:000028c9       ?SetItemText@CTreeCtrl@@QAEHPAU_TREEITEM@@PBD@Z 004038c9 f i PageLocations.obj
 0001:000028e2       ?SetItemData@CTreeCtrl@@QAEHPAU_TREEITEM@@K@Z 004038e2 f i PageLocations.obj
 0001:000028fb       ?EditLabel@CTreeCtrl@@QAEPAVCEdit@@PAU_TREEITEM@@@Z 004038fb f i PageLocations.obj
 0001:00002918       ?GetEditControl@CTreeCtrl@@QBEPAVCEdit@@XZ 00403918 f i PageLocations.obj
 0001:00002931       ?EnsureVisible@CTreeCtrl@@QAEHPAU_TREEITEM@@@Z 00403931 f i PageLocations.obj
 0001:00002948       ??_GCImageListEx@@UAEPAXI@Z 00403948 f i PageLocations.obj
 0001:00002948       ??_ECImageListEx@@UAEPAXI@Z 00403948 f i PageLocations.obj
 0001:00002964       ?AddChildLocations@CPageLocations@@IAEXKPAU_TREEITEM@@@Z 00403964 f   PageLocations.obj
 0001:000029ea       ?OnSetActive@CPageLocations@@UAEHXZ 004039ea f   PageLocations.obj
 0001:00002a36       ?OnBnAdd@CPageLocations@@IAEXXZ 00403a36 f   PageLocations.obj
 0001:00002a79       ?OnBeginlabeleditTvLocation@CPageLocations@@IAEXPAUtagNMHDR@@PAJ@Z 00403a79 f   PageLocations.obj
 0001:00002ab7       ?PreTranslateMessage@CPageLocations@@UAEHPAUtagMSG@@@Z 00403ab7 f   PageLocations.obj
 0001:00002b0e       ??0?$CSimpleStringT@D$0A@@ATL@@QAE@PBDHPAUIAtlStringMgr@1@@Z 00403b0e f i PageLocations.obj
 0001:00002b71       ??0?$CStringT@DV?$StrTraitMFC@DV?$ChTraitsCRT@D@ATL@@@@@ATL@@QAE@PBDHPAUIAtlStringMgr@1@@Z 00403b71 f i PageLocations.obj
 0001:00002b8b       ?SelectLocation@CPageLocations@@IAEXPBD@Z 00403b8b f   PageLocations.obj
 0001:00002cb2       ??1CLocItem@@QAE@XZ        00403cb2 f i PageLocations.obj
 0001:00002cbd       ?Left@?$CStringT@DV?$StrTraitMFC@DV?$ChTraitsCRT@D@ATL@@@@@ATL@@QBE?AV12@H@Z 00403cbd f i PageLocations.obj
 0001:00002cfb       ??_ECLocItem@@QAEPAXI@Z    00403cfb f i PageLocations.obj
 0001:00002d4a       ?RootLocation@CAuditScannerConfiguration@@QAE?AV?$CStringT@DV?$StrTraitMFC@DV?$ChTraitsCRT@D@ATL@@@@@ATL@@XZ 00403d4a f i PageLocations.obj
 0001:00002d68       ??HATL@@YA?AV?$CStringT@DV?$StrTraitMFC@DV?$ChTraitsCRT@D@ATL@@@@@0@ABV10@0@Z 00403d68 f i PageLocations.obj
 0001:00002dbf       ?Empty@?$CDynaList@VCLocItem@@@@QAEXXZ 00403dbf f i PageLocations.obj
 0001:00002de4       ?DoDataExchange@CPageLocations@@MAEXPAVCDataExchange@@@Z 00403de4 f   PageLocations.obj
 0001:00002f13       ??1?$CDynaList@VCLocItem@@@@UAE@XZ 00403f13 f i PageLocations.obj
 0001:00002f1e       ??_G?$CDynaList@VCLocItem@@@@UAEPAXI@Z 00403f1e f i PageLocations.obj
 0001:00002f1e       ??_E?$CDynaList@VCLocItem@@@@UAEPAXI@Z 00403f1e f i PageLocations.obj
 0001:00002f40       ??0CPageLocations@@QAE@XZ  00403f40 f   PageLocations.obj
 0001:00002fbc       ??1CPageLocations@@UAE@XZ  00403fbc f   PageLocations.obj
 0001:00003024       ?OnInitDialog@CPageLocations@@MAEHXZ 00404024 f   PageLocations.obj
 0001:00003112       ?CreateObject@CPageLocations@@SGPAVCObject@@XZ 00404112 f   PageLocations.obj
 0001:00003142       ??_GCPageLocations@@UAEPAXI@Z 00404142 f i PageLocations.obj
 0001:00003142       ??_ECPageLocations@@UAEPAXI@Z 00404142 f i PageLocations.obj
 0001:0000315e       ?OnEndlabeleditTvLocation@CPageLocations@@IAEXPAUtagNMHDR@@PAJ@Z 0040415e f   PageLocations.obj
 0001:000031ae       ?GetThisMessageMap@CPageLocations@@KGPBUAFX_MSGMAP@@XZ 004041ae f   PageLocations.obj
 0001:000031b4       ?GetMessageMap@CPageLocations@@MBEPBUAFX_MSGMAP@@XZ 004041b4 f   PageLocations.obj
 0001:000031b9       ?GetRuntimeClass@CPageScanning@@UBEPAUCRuntimeClass@@XZ 004041b9 f   PageScanning.obj
 0001:000031bf       ?Empty@?$CDynaList@PAVCFileSystemFile@@@@QAEXXZ 004041bf f i FileSystemScanner.obj
 0001:000031bf       ?Empty@?$CDynaList@PAVCAlertTriggerScanner@@@@QAEXXZ 004041bf f i Scan32.obj
 0001:000031bf       ?Empty@?$CDynaList@PAVCAlertNotification@@@@QAEXXZ 004041bf f i AlertNotificationFile.obj
 0001:000031bf       ?Empty@?$CDynaList@PAVCAlertTrigger@@@@QAEXXZ 004041bf f i AlertDefinitionsFile.obj
 0001:000031bf       ?Empty@?$CDynaList@PAVCAlertDefinition@@@@QAEXXZ 004041bf f i AlertDefinitionsFile.obj
 0001:000031bf       ?Empty@?$CDynaList@PAVCFileSystemFolder@@@@QAEXXZ 004041bf f i PageScanning.obj
 0001:000031bf       ?Empty@?$CDynaList@PAVCAuditDataScanner@@@@QAEXXZ 004041bf f i AlertTriggerScanner.obj
 0001:000031df       ?YieldProcess@@YAXXZ       004041df f i PageScanning.obj
 0001:00003229       ?OnInitDialog@CPageScanning@@MAEHXZ 00404229 f   PageScanning.obj
 0001:00003245       ?ScanHardware@CPageScanning@@IAEHXZ 00404245 f   PageScanning.obj
 0001:000033bb       ?OnKillActive@CPageScanning@@UAEHXZ 004043bb f   PageScanning.obj
 0001:000033d1       ??1?$CDynaList@PAVCFileSystemFolder@@@@UAE@XZ 004043d1 f i PageScanning.obj
 0001:000033dc       ??_E?$CDynaList@PAVCFileSystemFolder@@@@UAEPAXI@Z 004043dc f i PageScanning.obj
 0001:000033dc       ??_G?$CDynaList@PAVCFileSystemFolder@@@@UAEPAXI@Z 004043dc f i PageScanning.obj
 0001:000033fe       ??1CInstalledPatchList@@UAE@XZ 004043fe f i PageScanning.obj
 0001:000033fe       ??1?$CDynaList@VCInstalledPatch@@@@UAE@XZ 004043fe f i PageScanning.obj
 0001:00003409       ??1?$CDynaList@VCAuditLocation@@@@UAE@XZ 00404409 f i PageScanning.obj
 0001:00003414       ??1?$CDynaList@VCPicklist@@@@UAE@XZ 00404414 f i PageScanning.obj
 0001:0000341f       ??_G?$CDynaList@VCInstalledPatch@@@@UAEPAXI@Z 0040441f f i PageScanning.obj
 0001:0000341f       ??_GCInstalledPatchList@@UAEPAXI@Z 0040441f f i PageScanning.obj
 0001:0000341f       ??_ECInstalledPatchList@@UAEPAXI@Z 0040441f f i PageScanning.obj
 0001:0000341f       ??_E?$CDynaList@VCInstalledPatch@@@@UAEPAXI@Z 0040441f f i PageScanning.obj
 0001:00003441       ??_G?$CDynaList@VCUserDataCategory@@@@UAEPAXI@Z 00404441 f i PageScanning.obj
 0001:00003441       ??_E?$CDynaList@VCUserDataCategory@@@@UAEPAXI@Z 00404441 f i PageScanning.obj
 0001:00003463       ??_E?$CDynaList@VCAuditLocation@@@@UAEPAXI@Z 00404463 f i PageScanning.obj
 0001:00003463       ??_G?$CDynaList@VCAuditLocation@@@@UAEPAXI@Z 00404463 f i PageScanning.obj
 0001:00003485       ??_G?$CDynaList@VCPicklist@@@@UAEPAXI@Z 00404485 f i PageScanning.obj
 0001:00003485       ??_E?$CDynaList@VCPicklist@@@@UAEPAXI@Z 00404485 f i PageScanning.obj
 0001:000034a7       ??0CFileSystemFolderList@@QAE@XZ 004044a7 f i PageScanning.obj
 0001:000034cd       ??_GCFileSystemFolderList@@UAEPAXI@Z 004044cd f i PageScanning.obj
 0001:000034cd       ??_ECFileSystemFolderList@@UAEPAXI@Z 004044cd f i PageScanning.obj
 0001:000034e9       ??1CUserDataCategoryList@@UAE@XZ 004044e9 f i PageScanning.obj
 0001:000034fd       ??_ECUserDataCategoryList@@UAEPAXI@Z 004044fd f i PageScanning.obj
 0001:000034fd       ??_GCUserDataCategoryList@@UAEPAXI@Z 004044fd f i PageScanning.obj
 0001:00003519       ??1CUserDataField@@QAE@XZ  00404519 f i PageScanning.obj
 0001:00003549       ??0CPageScanning@@QAE@XZ   00404549 f   PageScanning.obj
 0001:000035ad       ??0CInstalledPatch@@QAE@XZ 004045ad f i PageScanning.obj
 0001:000035ea       ??1CInstalledPatch@@UAE@XZ 004045ea f i PageScanning.obj
 0001:00003635       ??0CAlertTrigger@@QAE@XZ   00404635 f i AlertDefinitionsFile.obj
 0001:00003635       ??0CPublisherMapping@@QAE@XZ 00404635 f i PageScanning.obj
 0001:00003649       ??1CAuditLocation@@UAE@XZ  00404649 f i PageScanning.obj
 0001:0000365a       ??_ECInstalledPatch@@UAEPAXI@Z 0040465a f i PageScanning.obj
 0001:000036a3       ??_ECRegistryKey@@QAEPAXI@Z 004046a3 f i RegistryScanner.obj
 0001:000036a3       ??_ECEnvironmentVariable@@QAEPAXI@Z 004046a3 f i EnvironmentVariablesScanner.obj
 0001:000036a3       ??_ECRegistryMapping@@QAEPAXI@Z 004046a3 f i PageScanning.obj
 0001:000036a3       ??_ECInstalledObject@@QAEPAXI@Z 004046a3 f i ObjectScanner.obj
 0001:000036a3       ??_ECPublisherMapping@@QAEPAXI@Z 004046a3 f i PageScanning.obj
 0001:000036ec       ??_ECUserDataField@@QAEPAXI@Z 004046ec f i PageScanning.obj
 0001:00003735       ?CreateObject@CPageScanning@@SGPAVCObject@@XZ 00404735 f   PageScanning.obj
 0001:00003765       ??_ECAuditLocation@@UAEPAXI@Z 00404765 f i PageScanning.obj
 0001:000037ba       ?Empty@?$CDynaList@VCRegistryKey@@@@QAEXXZ 004047ba f i RegistryScanner.obj
 0001:000037ba       ?Empty@?$CDynaList@VCInstalledObject@@@@QAEXXZ 004047ba f i ObjectScanner.obj
 0001:000037ba       ?Empty@?$CDynaList@VCRegistryMapping@@@@QAEXXZ 004047ba f i PageScanning.obj
 0001:000037ba       ?Empty@?$CDynaList@VCEnvironmentVariable@@@@QAEXXZ 004047ba f i EnvironmentVariablesScanner.obj
 0001:000037ba       ?Empty@?$CDynaList@VCPublisherMapping@@@@QAEXXZ 004047ba f i PageScanning.obj
 0001:000037df       ?Empty@?$CDynaList@VCUserDataField@@@@QAEXXZ 004047df f i PageScanning.obj
 0001:00003804       ??0CFileSystemScanner@@QAE@XZ 00404804 f i PageScanning.obj
 0001:0000382f       ??1CFileSystemScanner@@QAE@XZ 0040482f f i PageScanning.obj
 0001:00003855       ??0CPicklist@@QAE@XZ       00404855 f i PageScanning.obj
 0001:00003875       ??1CPicklist@@UAE@XZ       00404875 f i PageScanning.obj
 0001:00003891       ??1?$CDynaList@VCRegistryMapping@@@@UAE@XZ 00404891 f i PageScanning.obj
 0001:0000389c       ??4CInstalledPatch@@QAEAAV0@ABV0@@Z 0040489c f i PageScanning.obj
 0001:000038f3       ??_G?$CDynaList@VCPublisherMapping@@@@UAEPAXI@Z 004048f3 f i PageScanning.obj
 0001:000038f3       ??_E?$CDynaList@VCPublisherMapping@@@@UAEPAXI@Z 004048f3 f i PageScanning.obj
 0001:00003915       ??_E?$CDynaList@VCRegistryMapping@@@@UAEPAXI@Z 00404915 f i PageScanning.obj
 0001:00003915       ??_G?$CDynaList@VCRegistryMapping@@@@UAEPAXI@Z 00404915 f i PageScanning.obj
 0001:00003937       ??4CUserDataField@@QAEAAV0@ABV0@@Z 00404937 f i PageScanning.obj
 0001:000039a4       ??4?$CDynaList@V?$CStringT@DV?$StrTraitMFC@DV?$ChTraitsCRT@D@ATL@@@@@ATL@@@@QAEAAV0@ABV0@@Z 004049a4 f i PageScanning.obj
 0001:00003a38       ?Expand@?$CDynaList@VCInstalledPatch@@@@IAEXK@Z 00404a38 f i PageScanning.obj
 0001:00003b18       ??4?$CDynaList@VCUserDataField@@@@QAEAAV0@ABV0@@Z 00404b18 f i PageScanning.obj
 0001:00003bc5       ??1CApplicationRegistryMapping@@QAE@XZ 00404bc5 f i PageScanning.obj
 0001:00003be1       ??1CPageScanning@@UAE@XZ   00404be1 f   PageScanning.obj
 0001:00003c90       ??4CAuditLocation@@QAEAAV0@ABV0@@Z 00404c90 f i PageScanning.obj
 0001:00003cb7       ??_ECPicklist@@UAEPAXI@Z   00404cb7 f i PageScanning.obj
 0001:00003d00       ??4CPicklist@@QAEAAV0@ABV0@@Z 00404d00 f i PageScanning.obj
 0001:00003d21       ??0?$CDynaList@V?$CStringT@DV?$StrTraitMFC@DV?$ChTraitsCRT@D@ATL@@@@@ATL@@@@QAE@ABV0@@Z 00404d21 f i PageScanning.obj
 0001:00003d41       ?Add@?$CDynaList@VCInstalledPatch@@@@QAEKABVCInstalledPatch@@@Z 00404d41 f i PageScanning.obj
 0001:00003d72       ??4CUserDataCategory@@QAEAAV0@ABV0@@Z 00404d72 f i PageScanning.obj
 0001:00003d99       ??_ECApplicationRegistryMapping@@QAEPAXI@Z 00404d99 f i PageScanning.obj
 0001:00003de2       ??_ECPageScanning@@UAEPAXI@Z 00404de2 f i PageScanning.obj
 0001:00003de2       ??_GCPageScanning@@UAEPAXI@Z 00404de2 f i PageScanning.obj
 0001:00003dfe       ??4?$CDynaList@VCPublisherMapping@@@@QAEAAV0@ABV0@@Z 00404dfe f i PageScanning.obj
 0001:00003ea6       ??4?$CDynaList@VCUserDataCategory@@@@QAEAAV0@ABV0@@Z 00404ea6 f i PageScanning.obj
 0001:00003f53       ??4?$CDynaList@VCPicklist@@@@QAEAAV0@ABV0@@Z 00404f53 f i PageScanning.obj
 0001:00004000       ??0CRegistryMapping@@QAE@XZ 00405000 f i PageScanning.obj
 0001:00004045       ??0CAuditLocation@@QAE@XZ  00405045 f i PageScanning.obj
 0001:00004089       ?Empty@?$CDynaList@VCApplicationRegistryMapping@@@@QAEXXZ 00405089 f i PageScanning.obj
 0001:000040ae       ?Save@CPageScanning@@QAEHAAVCAuditDataFile@@@Z 004050ae f   PageScanning.obj
 0001:000041c3       ??0?$CDynaList@VCPublisherMapping@@@@QAE@ABV0@@Z 004051c3 f i PageScanning.obj
 0001:000041e3       ??0?$CDynaList@VCUserDataCategory@@@@QAE@ABV0@@Z 004051e3 f i PageScanning.obj
 0001:00004203       ??0?$CDynaList@VCPicklist@@@@QAE@ABV0@@Z 00405203 f i PageScanning.obj
 0001:00004223       ??4?$CDynaList@VCAuditLocation@@@@QAEAAV0@ABV0@@Z 00405223 f i PageScanning.obj
 0001:000042d0       ??4?$CDynaList@VCRegistryMapping@@@@QAEAAV0@ABV0@@Z 004052d0 f i PageScanning.obj
 0001:00004378       ??1?$CDynaList@VCApplicationRegistryMapping@@@@UAE@XZ 00405378 f i PageScanning.obj
 0001:00004383       ??_G?$CDynaList@VCApplicationRegistryMapping@@@@UAEPAXI@Z 00405383 f i PageScanning.obj
 0001:00004383       ??_E?$CDynaList@VCApplicationRegistryMapping@@@@UAEPAXI@Z 00405383 f i PageScanning.obj
 0001:000043a5       ??0CPublisherMappings@@QAE@ABV0@@Z 004053a5 f i PageScanning.obj
 0001:000043bd       ??_ECPublisherMappings@@UAEPAXI@Z 004053bd f i PageScanning.obj
 0001:000043bd       ??_GCPublisherMappings@@UAEPAXI@Z 004053bd f i PageScanning.obj
 0001:000043d9       ??0CUserDataCategoryList@@QAE@ABV0@@Z 004053d9 f i PageScanning.obj
 0001:000043f8       ??0?$CDynaList@VCAuditLocation@@@@QAE@ABV0@@Z 004053f8 f i PageScanning.obj
 0001:00004418       ??4CApplicationRegistryMapping@@QAEAAV0@ABV0@@Z 00405418 f i PageScanning.obj
 0001:00004439       ??1CAuditScannerConfiguration@@UAE@XZ 00405439 f i PageScanning.obj
 0001:000045f4       ??_GCAuditScannerConfiguration@@UAEPAXI@Z 004055f4 f i PageScanning.obj
 0001:000045f4       ??_ECAuditScannerConfiguration@@UAEPAXI@Z 004055f4 f i PageScanning.obj
 0001:00004610       ??4?$CDynaList@VCApplicationRegistryMapping@@@@QAEAAV0@ABV0@@Z 00405610 f i PageScanning.obj
 0001:000046bd       ??0?$CDynaList@VCApplicationRegistryMapping@@@@QAE@ABV0@@Z 004056bd f i PageScanning.obj
 0001:000046dd       ??0CAuditScannerConfiguration@@QAE@ABV0@@Z 004056dd f i PageScanning.obj
 0001:00004b95       ?ScanInternetExplorer@CPageScanning@@IAEHXZ 00405b95 f   PageScanning.obj
 0001:00004ced       ?ScanFileSystem@CPageScanning@@IAEHXZ 00405ced f   PageScanning.obj
 0001:00004e52       ?ScanRegistryKeys@CPageScanning@@IAEHXZ 00405e52 f   PageScanning.obj
 0001:00004faa       ?ScanSoftware@CPageScanning@@IAEHXZ 00405faa f   PageScanning.obj
 0001:00005234       ?Scan@CPageScanning@@IAEHXZ 00406234 f   PageScanning.obj
 0001:000053b2       ?OnTimer@CPageScanning@@IAEXI@Z 004063b2 f   PageScanning.obj
 0001:0000544c       ?GetThisMessageMap@CPageScanning@@KGPBUAFX_MSGMAP@@XZ 0040644c f   PageScanning.obj
 0001:00005452       ?GetMessageMap@CPageScanning@@MBEPBUAFX_MSGMAP@@XZ 00406452 f   PageScanning.obj
 0001:00005457       ??0CPageUserData@@QAE@XZ   00406457 f i PageUserData.obj
 0001:00005470       ?AfxCrtErrorCheck@@YAHH@Z  00406470 f i PageUserData.obj
 0001:00005497       ?GetRuntimeClass@CPageUserData@@UBEPAUCRuntimeClass@@XZ 00406497 f   PageUserData.obj
 0001:0000549d       ??0CPageUserData@@QAE@PAVCUserDataCategory@@@Z 0040649d f   PageUserData.obj
 0001:000054c0       ??1CPageUserData@@UAE@XZ   004064c0 f   PageUserData.obj
 0001:000054cb       ?OnWizardFinish@CPageUserData@@UAEHXZ 004064cb f   PageUserData.obj
 0001:000054dd       ?mbslwr_s@Checked@ATL@@YAXPAEI@Z 004064dd f i PageUserData.obj
 0001:000054f4       ?mbsupr_s@Checked@ATL@@YAXPAEI@Z 004064f4 f i PageUserData.obj
 0001:0000550b       ?GetWindowRect@CWnd@@QBEXPAUtagRECT@@@Z 0040650b f i PageUserData.obj
 0001:0000551b       ?MapWindowPoints@CWnd@@QBEXPAV1@PAUtagRECT@@@Z 0040651b f i PageUserData.obj
 0001:00005539       ??_GCPageUserData@@UAEPAXI@Z 00406539 f i PageUserData.obj
 0001:00005539       ??_ECPageUserData@@UAEPAXI@Z 00406539 f i PageUserData.obj
 0001:00005555       ?CreateObject@CPageUserData@@SGPAVCObject@@XZ 00406555 f   PageUserData.obj
 0001:00005585       ?FailDDX@CPageUserData@@IAEXHPBD@Z 00406585 f   PageUserData.obj
 0001:000055b7       ?OnSize@CPageUserData@@IAEXIHH@Z 004065b7 f   PageUserData.obj
 0001:0000561c       ?OnVScroll@CPageUserData@@IAEXIIPAVCScrollBar@@@Z 0040661c f   PageUserData.obj
 0001:00005710       ?OnCommand@CPageUserData@@MAEHIJ@Z 00406710 f   PageUserData.obj
 0001:00005806       ??8ATL@@YA_NABV?$CStringT@DV?$StrTraitMFC@DV?$ChTraitsCRT@D@ATL@@@@@0@0@Z 00406806 f i PageUserData.obj
 0001:0000581b       ?ReleaseBuffer@?$CSimpleStringT@D$0A@@ATL@@QAEXH@Z 0040681b f i PageUserData.obj
 0001:00005845       ?GetPicklist@CAuditScannerConfiguration@@QAEPAVCPicklist@@AAV?$CStringT@DV?$StrTraitMFC@DV?$ChTraitsCRT@D@ATL@@@@@ATL@@@Z 00406845 f i PageUserData.obj
 0001:00005892       ?MoveControls@CPageUserData@@IAEXXZ 00406892 f   PageUserData.obj
 0001:00005a74       ?MakeUpper@?$CStringT@DV?$StrTraitMFC@DV?$ChTraitsCRT@D@ATL@@@@@ATL@@QAEAAV12@XZ 00406a74 f i PageUserData.obj
 0001:00005a9c       ?MakeLower@?$CStringT@DV?$StrTraitMFC@DV?$ChTraitsCRT@D@ATL@@@@@ATL@@QAEAAV12@XZ 00406a9c f i PageUserData.obj
 0001:00005ac4       ?OnPaint@CPageUserData@@IAEXXZ 00406ac4 f   PageUserData.obj
 0001:00005b3f       ??HATL@@YA?AV?$CStringT@DV?$StrTraitMFC@DV?$ChTraitsCRT@D@ATL@@@@@0@PBDABV10@@Z 00406b3f f i PageUserData.obj
 0001:00005ba3       ?GetThisMessageMap@CPageUserData@@KGPBUAFX_MSGMAP@@XZ 00406ba3 f   PageUserData.obj
 0001:00005ba9       ?GetMessageMap@CPageUserData@@MBEPBUAFX_MSGMAP@@XZ 00406ba9 f   PageUserData.obj
 0001:00005bae       ?CreateControls@CPageUserData@@IAEXXZ 00406bae f   PageUserData.obj
 0001:00005ece       ?Format@CTime@ATL@@QBE?AV?$CStringT@DV?$StrTraitMFC@DV?$ChTraitsCRT@D@ATL@@@@@2@PBD@Z 00406ece f i PageUserData.obj
 0001:00005f44       ?DoDataExchange@CPageUserData@@MAEXPAVCDataExchange@@@Z 00406f44 f   PageUserData.obj
 0001:00006156       ?OnInitDialog@CPageUserData@@MAEHXZ 00407156 f   PageUserData.obj
 0001:00006169       ?GetThisMessageMap@CScan32App@@KGPBUAFX_MSGMAP@@XZ 00407169 f   Scan32.obj
 0001:0000616f       ?ExitInstance@CScan32App@@UAEHXZ 0040716f f   Scan32.obj
 0001:00006174       ?CheckActive@CScan32App@@IAEXXZ 00407174 f   Scan32.obj
 0001:000061c8       ?GetLongPathNameA@CScan32App@@QAEXPBDPADK@Z 004071c8 f   Scan32.obj
 0001:000061fe       ??0CTimeSpan@ATL@@QAE@JHHH@Z 004071fe f i Scan32.obj
 0001:0000625c       ??0CTime@ATL@@QAE@HHHHHHH@Z 0040725c f i Scan32.obj
 0001:000062ef       ??MCTime@ATL@@QBE_NV01@@Z  004072ef f i Scan32.obj
 0001:0000630c       ??OCTime@ATL@@QBE_NV01@@Z  0040730c f i Scan32.obj
 0001:00006329       ??1bad_alloc@std@@UAE@XZ   00407329 f i Scan32.obj
 0001:00006334       ??_Ebad_alloc@std@@UAEPAXI@Z 00407334 f i Scan32.obj
 0001:00006334       ??_Gbad_alloc@std@@UAEPAXI@Z 00407334 f i Scan32.obj
 0001:00006356       ?_Copy_s@?$char_traits@D@std@@SAPADPADIPBDI@Z 00407356 f i Scan32.obj
 0001:00006372       ?_Move_s@?$char_traits@D@std@@SAPADPADIPBDI@Z 00407372 f i Scan32.obj
 0001:0000638e       ?_Inside@?$basic_string@DU?$char_traits@D@std@@V?$allocator@D@2@@std@@IAE_NPBD@Z 0040738e f i Scan32.obj
 0001:000063c9       ??$_Allocate@D@std@@YAPADIPAD@Z 004073c9 f i Scan32.obj
 0001:00006413       ??0bad_alloc@std@@QAE@ABV01@@Z 00407413 f i Scan32.obj
 0001:0000642b       ??$AtlAdd@H@ATL@@YAJPAHHH@Z 0040742b f i Scan32.obj
 0001:0000644f       ?GetMessageMap@CScan32App@@MBEPBUAFX_MSGMAP@@XZ 0040744f f   Scan32.obj
 0001:00006454       ?CheckSystemTray@CScan32App@@IAEXXZ 00407454 f   Scan32.obj
 0001:00006516       ??1?$CDynaList@PAVCAlertTriggerScanner@@@@UAE@XZ 00407516 f i Scan32.obj
 0001:00006521       ??_E?$CDynaList@PAVCAlertTriggerScanner@@@@UAEPAXI@Z 00407521 f i Scan32.obj
 0001:00006521       ??_G?$CDynaList@PAVCAlertTriggerScanner@@@@UAEPAXI@Z 00407521 f i Scan32.obj
 0001:00006543       ?GetTickCount@CTime@ATL@@SG?AV12@XZ 00407543 f i Scan32.obj
 0001:00006559       ?_Eos@?$basic_string@DU?$char_traits@D@std@@V?$allocator@D@2@@std@@IAEXI@Z 00407559 f i Scan32.obj
 0001:00006575       ??$AtlAddThrow@H@ATL@@YAHHH@Z 00407575 f i Scan32.obj
 0001:0000659a       ??_GCAlertTriggerScannerList@@UAEPAXI@Z 0040759a f i Scan32.obj
 0001:0000659a       ??_ECAlertTriggerScannerList@@UAEPAXI@Z 0040759a f i Scan32.obj
 0001:000065b6       ?CheckConfigFile@CScan32App@@IAEHXZ 004075b6 f   Scan32.obj
 0001:00006687       ?AddUserDataPages@CScan32App@@IAEHXZ 00407687 f   Scan32.obj
 0001:0000672e       ?Find@?$CStringT@DV?$StrTraitMFC@DV?$ChTraitsCRT@D@ATL@@@@@ATL@@QBEHDH@Z 0040772e f i Scan32.obj
 0001:0000675f       ??A?$CSimpleStringT@D$0A@@ATL@@QBEDH@Z 0040775f f i Scan32.obj
 0001:0000677f       ?_Tidy@?$basic_string@DU?$char_traits@D@std@@V?$allocator@D@2@@std@@IAEX_NI@Z 0040777f f i Scan32.obj
 0001:000067ca       ?erase@?$basic_string@DU?$char_traits@D@std@@V?$allocator@D@2@@std@@QAEAAV12@II@Z 004077ca f i Scan32.obj
 0001:00006839       ?_Copy@?$basic_string@DU?$char_traits@D@std@@V?$allocator@D@2@@std@@IAEXII@Z 00407839 f i Scan32.obj
 0001:0000691b       ?BuildWizardPages@CScan32App@@IAEHXZ 0040791b f   Scan32.obj
 0001:00006a21       ??8ATL@@YA_NABV?$CStringT@DV?$StrTraitMFC@DV?$ChTraitsCRT@D@ATL@@@@@0@D@Z 00407a21 f i Scan32.obj
 0001:00006a3c       ??1?$basic_string@DU?$char_traits@D@std@@V?$allocator@D@2@@std@@QAE@XZ 00407a3c f i Scan32.obj
 0001:00006a46       ?Mid@?$CStringT@DV?$StrTraitMFC@DV?$ChTraitsCRT@D@ATL@@@@@ATL@@QBE?AV12@HH@Z 00407a46 f i Scan32.obj
 0001:00006ac3       ?AppendChar@?$CSimpleStringT@D$0A@@ATL@@QAEXD@Z 00407ac3 f i Scan32.obj
 0001:00006aeb       ?_Grow@?$basic_string@DU?$char_traits@D@std@@V?$allocator@D@2@@std@@IAE_NI_N@Z 00407aeb f i Scan32.obj
 0001:00006b49       ?Right@?$CStringT@DV?$StrTraitMFC@DV?$ChTraitsCRT@D@ATL@@@@@ATL@@QBE?AV12@H@Z 00407b49 f i Scan32.obj
 0001:00006b8f       ?Truncate@?$CSimpleStringT@D$0A@@ATL@@QAEXH@Z 00407b8f f i Scan32.obj
 0001:00006baa       ?DeployPathScanner@CAuditScannerConfiguration@@QAE?AV?$CStringT@DV?$StrTraitMFC@DV?$ChTraitsCRT@D@ATL@@@@@ATL@@XZ 00407baa f i Scan32.obj
 0001:00006bc5       ?FTPDefDir@CAuditScannerConfiguration@@QAE?AV?$CStringT@DV?$StrTraitMFC@DV?$ChTraitsCRT@D@ATL@@@@@ATL@@XZ 00407bc5 f i Scan32.obj
 0001:00006be0       ?FTPDefDirBackup@CAuditScannerConfiguration@@QAE?AV?$CStringT@DV?$StrTraitMFC@DV?$ChTraitsCRT@D@ATL@@@@@ATL@@XZ 00407be0 f i Scan32.obj
 0001:00006bfb       ?Mid@?$CStringT@DV?$StrTraitMFC@DV?$ChTraitsCRT@D@ATL@@@@@ATL@@QBE?AV12@H@Z 00407bfb f i Scan32.obj
 0001:00006c1e       ?assign@?$basic_string@DU?$char_traits@D@std@@V?$allocator@D@2@@std@@QAEAAV12@ABV12@II@Z 00407c1e f i Scan32.obj
 0001:00006cb0       ?assign@?$basic_string@DU?$char_traits@D@std@@V?$allocator@D@2@@std@@QAEAAV12@PBDI@Z 00407cb0 f i Scan32.obj
 0001:00006d22       ?OpenLogFile@CScan32App@@IAEXAAVCLogFile@@@Z 00407d22 f   Scan32.obj
 0001:00006e0c       ?TrimRight@?$CStringT@DV?$StrTraitMFC@DV?$ChTraitsCRT@D@ATL@@@@@ATL@@QAEAAV12@XZ 00407e0c f i Scan32.obj
 0001:00006e56       ??Y?$CStringT@DV?$StrTraitMFC@DV?$ChTraitsCRT@D@ATL@@@@@ATL@@QAEAAV01@D@Z 00407e56 f i Scan32.obj
 0001:00006e68       ?assign@?$basic_string@DU?$char_traits@D@std@@V?$allocator@D@2@@std@@QAEAAV12@PBD@Z 00407e68 f i Scan32.obj
 0001:00006e85       ?ReadAuditConfiguration@CScan32App@@IAEHXZ 00407e85 f   Scan32.obj
 0001:00006f7d       ??Y?$CSimpleStringT@D$0A@@ATL@@QAEAAV01@ABV01@@Z 00407f7d f i Scan32.obj
 0001:00006f95       ??0?$basic_string@DU?$char_traits@D@std@@V?$allocator@D@2@@std@@QAE@PBD@Z 00407f95 f i Scan32.obj
 0001:00006fb7       ?ParseCmdLine@CScan32App@@IAEXXZ 00407fb7 f   Scan32.obj
 0001:000070cd       ?AuditAssetData@CScan32App@@IAEXXZ 004080cd f   Scan32.obj
 0001:0000732e       ?InstallMDA@CScan32App@@IAEXH@Z 0040832e f   Scan32.obj
 0001:000075ab       ?InstallUSB@CScan32App@@IAEXH@Z 004085ab f   Scan32.obj
 0001:000078af       ??Y?$CStringT@DV?$StrTraitMFC@DV?$ChTraitsCRT@D@ATL@@@@@ATL@@QAEAAV01@ABV?$CSimpleStringT@D$0A@@1@@Z 004088af f i Scan32.obj
 0001:000078c1       ?AlertMonitoredAssets@CAuditScannerConfiguration@@QAE?AV?$CDynaList@V?$CStringT@DV?$StrTraitMFC@DV?$ChTraitsCRT@D@ATL@@@@@ATL@@@@XZ 004088c1 f i Scan32.obj
 0001:000078df       ?GetLastAuditDate@CScan32App@@IAE?AVCTime@ATL@@XZ 004088df f   Scan32.obj
 0001:00007ae0       ?CheckAlertMonitorTriggers@CScan32App@@IAEHXZ 00408ae0 f   Scan32.obj
 0001:00007d7c       ?DecryptFTPPassword@CScan32App@@QAE?AV?$CStringT@DV?$StrTraitMFC@DV?$ChTraitsCRT@D@ATL@@@@@ATL@@PBD@Z 00408d7c f   Scan32.obj
 0001:00007ee8       ?ValidateFTP@CScan32App@@QAEPAVCFtpConnection@@XZ 00408ee8 f   Scan32.obj
 0001:000081f3       ?ValidateFTPBackup@CScan32App@@QAEPAVCFtpConnection@@XZ 004091f3 f   Scan32.obj
 0001:000084f7       ?CheckCloseDownRequested@CScan32App@@IAEHXZ 004094f7 f   Scan32.obj
 0001:00008548       ?GetRegValue@CScan32App@@SA?AV?$CStringT@DV?$StrTraitMFC@DV?$ChTraitsCRT@D@ATL@@@@@ATL@@PBD0@Z 00409548 f   Scan32.obj
 0001:000087c3       ?SetLastAuditDate@CScan32App@@IAEHXZ 004097c3 f   Scan32.obj
 0001:000088f7       ?ValidateDataPath@CScan32App@@IAEHXZ 004098f7 f   Scan32.obj
 0001:00008b85       ?AuditUserDefinedData@CScan32App@@IAEXXZ 00409b85 f   Scan32.obj
 0001:00008cff       ??0CScan32App@@QAE@XZ      00409cff f   Scan32.obj
 0001:00008e9f       ??1CScan32App@@UAE@XZ      00409e9f f   Scan32.obj
 0001:00009025       ?AuditNow@CScan32App@@IAEHAAVCLogFile@@@Z 0040a025 f   Scan32.obj
 0001:000092e7       ??_ECScan32App@@UAEPAXI@Z  0040a2e7 f i Scan32.obj
 0001:000092e7       ??_GCScan32App@@UAEPAXI@Z  0040a2e7 f i Scan32.obj
 0001:00009303       ?Process@CScan32App@@IAEH_N@Z 0040a303 f   Scan32.obj
 0001:0000975b       ?InitInstance@CScan32App@@UAEHXZ 0040a75b f   Scan32.obj
 0001:00009978       ?GetRuntimeClass@CScannerPage@@UBEPAUCRuntimeClass@@XZ 0040a978 f   ScannerPage.obj
 0001:0000997e       ??0CScannerPage@@QAE@XZ    0040a97e f   ScannerPage.obj
 0001:00009997       ??0CScannerPage@@QAE@I@Z   0040a997 f   ScannerPage.obj
 0001:000099ba       ??1CScannerPage@@UAE@XZ    0040a9ba f   ScannerPage.obj
 0001:000099c5       ?CreateObject@CScannerPage@@SGPAVCObject@@XZ 0040a9c5 f   ScannerPage.obj
 0001:000099f5       ??_GCScannerPage@@UAEPAXI@Z 0040a9f5 f i ScannerPage.obj
 0001:000099f5       ??_ECScannerPage@@UAEPAXI@Z 0040a9f5 f i ScannerPage.obj
 0001:00009a11       ?OnQueryCancel@CScannerPage@@UAEHXZ 0040aa11 f   ScannerPage.obj
 0001:00009a60       ??0CScannerTrayWnd@@QAE@XZ 0040aa60 f   ScannerTrayWnd.obj
 0001:00009a90       ??1CScannerTrayWnd@@UAE@XZ 0040aa90 f   ScannerTrayWnd.obj
 0001:00009ac4       ?OnTrayNotification@CScannerTrayWnd@@IAEJIJ@Z 0040aac4 f   ScannerTrayWnd.obj
 0001:00009acc       ?SetActive@CScannerTrayWnd@@QAEXH@Z 0040aacc f   ScannerTrayWnd.obj
 0001:00009aea       ??_ECScannerTrayWnd@@UAEPAXI@Z 0040aaea f i ScannerTrayWnd.obj
 0001:00009aea       ??_GCScannerTrayWnd@@UAEPAXI@Z 0040aaea f i ScannerTrayWnd.obj
 0001:00009b06       ?OnCreate@CScannerTrayWnd@@IAEHPAUtagCREATESTRUCTA@@@Z 0040ab06 f   ScannerTrayWnd.obj
 0001:00009b50       ?OnClose@CScannerTrayWnd@@IAEXXZ 0040ab50 f   ScannerTrayWnd.obj
 0001:00009b63       ?GetThisMessageMap@CScannerTrayWnd@@KGPBUAFX_MSGMAP@@XZ 0040ab63 f   ScannerTrayWnd.obj
 0001:00009b69       ?GetMessageMap@CScannerTrayWnd@@MBEPBUAFX_MSGMAP@@XZ 0040ab69 f   ScannerTrayWnd.obj
 0001:00009b6e       ?GetRuntimeClass@CShtScan@@UBEPAUCRuntimeClass@@XZ 0040ab6e f   ShtScan.obj
 0001:00009b74       ?Empty@?$CDynaList@VCPageUserData@@@@QAEXXZ 0040ab74 f i ShtScan.obj
 0001:00009b74       ?Empty@?$CDynaList@VCInternetExplorerCacheItem@@@@QAEXXZ 0040ab74 f i InternetExplorerScanner.obj
 0001:00009ba9       ?LoadIconA@CWinApp@@QBEPAUHICON__@@I@Z 0040aba9 f i ShtScan.obj
 0001:00009bc1       ?MoveNext@CShtScan@@QAEXXZ 0040abc1 f   ShtScan.obj
 0001:00009be8       ?SetButtons@CShtScan@@QAEXXZ 0040abe8 f   ShtScan.obj
 0001:00009c3e       ?OnInitDialog@CShtScan@@UAEHXZ 0040ac3e f   ShtScan.obj
 0001:00009d37       ?OnTimer@CShtScan@@IAEXI@Z 0040ad37 f   ShtScan.obj
 0001:00009d60       ??_G?$CDynaList@VCPageUserData@@@@UAEPAXI@Z 0040ad60 f i ShtScan.obj
 0001:00009d60       ??_E?$CDynaList@VCPageUserData@@@@UAEPAXI@Z 0040ad60 f i ShtScan.obj
 0001:00009d82       ??0CShtScan@@QAE@PBDPAVCWnd@@I@Z 0040ad82 f   ShtScan.obj
 0001:00009e09       ??1CShtScan@@UAE@XZ        0040ae09 f   ShtScan.obj
 0001:00009e85       ?GetThisMessageMap@CShtScan@@KGPBUAFX_MSGMAP@@XZ 0040ae85 f   ShtScan.obj
 0001:00009e8b       ??_GCShtScan@@UAEPAXI@Z    0040ae8b f i ShtScan.obj
 0001:00009e8b       ??_ECShtScan@@UAEPAXI@Z    0040ae8b f i ShtScan.obj
 0001:00009ea7       ?GetMessageMap@CShtScan@@MBEPBUAFX_MSGMAP@@XZ 0040aea7 f   ShtScan.obj
 0001:00009eac       ?SaveAuditData@CShtScan@@QAEXAAVCAuditDataFile@@@Z 0040aeac f   ShtScan.obj
 0001:0000a060       ??_ECUserDataCategory@@UAEPAXI@Z 0040b060 f i StdAfx.obj
 0001:0000a0a9       ??1CApplicationInstance@@QAE@XZ 0040b0a9 f i StdAfx.obj
 0001:0000a105       ??_ECApplicationInstance@@QAEPAXI@Z 0040b105 f i StdAfx.obj
 0001:0000a14e       ??_ECAuditDataFileItem@@QAEPAXI@Z 0040b14e f i StdAfx.obj
 0001:0000a197       ?Empty@?$CDynaList@VCAuditDataFileItem@@@@QAEXXZ 0040b197 f i StdAfx.obj
 0001:0000a1bc       ??1?$CDynaList@VCAuditDataFileItem@@@@UAE@XZ 0040b1bc f i StdAfx.obj
 0001:0000a1c7       ??_G?$CDynaList@VCAuditDataFileItem@@@@UAEPAXI@Z 0040b1c7 f i StdAfx.obj
 0001:0000a1c7       ??_E?$CDynaList@VCAuditDataFileItem@@@@UAEPAXI@Z 0040b1c7 f i StdAfx.obj
 0001:0000a1e9       ??1CAuditDataFileCategory@@QAE@XZ 0040b1e9 f i StdAfx.obj
 0001:0000a205       ??_ECAuditDataFileCategory@@QAEPAXI@Z 0040b205 f i StdAfx.obj
 0001:0000a24e       ??_ECActiveProcess@@QAEPAXI@Z 0040b24e f i ActiveProcessScanner1.obj
 0001:0000a297       ??0CAuditDataFileItem@@QAE@XZ 0040b297 f i ActiveProcessScanner1.obj
 0001:0000a2b3       ?Empty@?$CDynaList@VCActiveProcess@@@@QAEXXZ 0040b2b3 f i ActiveProcessScanner1.obj
 0001:0000a2d8       ??1?$CDynaList@VCActiveProcess@@@@UAE@XZ 0040b2d8 f i ActiveProcessScanner1.obj
 0001:0000a2e3       ??_E?$CDynaList@VCActiveProcess@@@@UAEPAXI@Z 0040b2e3 f i ActiveProcessScanner1.obj
 0001:0000a2e3       ??_G?$CDynaList@VCActiveProcess@@@@UAEPAXI@Z 0040b2e3 f i ActiveProcessScanner1.obj
 0001:0000a305       ??4CAuditDataFileItem@@QAEAAV0@ABV0@@Z 0040b305 f i ActiveProcessScanner1.obj
 0001:0000a33e       ??4?$CDynaList@VCAuditDataFileItem@@@@QAEAAV0@ABV0@@Z 0040b33e f i ActiveProcessScanner1.obj
 0001:0000a3eb       ?Expand@?$CDynaList@VCAuditDataFileItem@@@@IAEXK@Z 0040b3eb f i ActiveProcessScanner1.obj
 0001:0000a4bb       ??1CActiveProcessScanner@@UAE@XZ 0040b4bb f   ActiveProcessScanner1.obj
 0001:0000a4e8       ??4CActiveProcess@@QAEAAV0@ABV0@@Z 0040b4e8 f i ActiveProcessScanner1.obj
 0001:0000a50f       ?Add@?$CDynaList@VCAuditDataFileItem@@@@QAEKABVCAuditDataFileItem@@@Z 0040b50f f i ActiveProcessScanner1.obj
 0001:0000a540       ??4CAuditDataFileCategory@@QAEAAV0@ABV0@@Z 0040b540 f i ActiveProcessScanner1.obj
 0001:0000a56d       ??0CActiveProcess@@QAE@XZ  0040b56d f i ActiveProcessScanner1.obj
 0001:0000a5ad       ??0CActiveProcess@@QAE@PBD0K@Z 0040b5ad f i ActiveProcessScanner1.obj
 0001:0000a5f9       ??0CActiveProcessScanner@@QAE@XZ 0040b5f9 f   ActiveProcessScanner1.obj
 0001:0000a696       ??_ECActiveProcessScanner@@UAEPAXI@Z 0040b696 f i ActiveProcessScanner1.obj
 0001:0000a696       ??_GCActiveProcessScanner@@UAEPAXI@Z 0040b696 f i ActiveProcessScanner1.obj
 0001:0000a6b2       ?Expand@?$CDynaList@VCActiveProcess@@@@IAEXK@Z 0040b6b2 f i ActiveProcessScanner1.obj
 0001:0000a782       ??0CAuditDataFileCategory@@QAE@XZ 0040b782 f i ActiveProcessScanner1.obj
 0001:0000a7cf       ??0CAuditDataFileCategory@@QAE@PBDHH@Z 0040b7cf f i ActiveProcessScanner1.obj
 0001:0000a81e       ?Expand@?$CDynaList@VCAuditDataFileCategory@@@@IAEXK@Z 0040b81e f i ActiveProcessScanner1.obj
 0001:0000a8ee       ?GetProcessExecutable@CActiveProcessScanner@@IAE?AV?$CStringT@DV?$StrTraitMFC@DV?$ChTraitsCRT@D@ATL@@@@@ATL@@K@Z 0040b8ee f   ActiveProcessScanner1.obj
 0001:0000a973       ?Add@?$CDynaList@VCActiveProcess@@@@QAEKABVCActiveProcess@@@Z 0040b973 f i ActiveProcessScanner1.obj
 0001:0000a9a4       ?Add@?$CDynaList@VCAuditDataFileCategory@@@@QAEKABVCAuditDataFileCategory@@@Z 0040b9a4 f i ActiveProcessScanner1.obj
 0001:0000a9d5       ?ScanWMI@CActiveProcessScanner@@UAE_NPAVCWMIScanner@@@Z 0040b9d5 f   ActiveProcessScanner1.obj
 0001:0000aaca       ?ScanActiveProcesses@CActiveProcessScanner@@IAEHXZ 0040baca f   ActiveProcessScanner1.obj
 0001:0000ac0f       ?ScanRegistry9X@CActiveProcessScanner@@UAE_NXZ 0040bc0f f   ActiveProcessScanner1.obj
 0001:0000ac0f       ?ScanRegistryNT@CActiveProcessScanner@@UAE_NXZ 0040bc0f f   ActiveProcessScanner1.obj
 0001:0000ac0f       ?ScanRegistryXP@CActiveProcessScanner@@UAE_NXZ 0040bc0f f   ActiveProcessScanner1.obj
 0001:0000ac17       ?SaveData@CActiveProcessScanner@@UAE_NPAVCAuditDataFile@@@Z 0040bc17 f   ActiveProcessScanner1.obj
 0001:0000ad5d       ?InitializeDefaults@CAlertDefinitionsFile@@IAEXXZ 0040bd5d f   AlertDefinitionsFile.obj
 0001:0000ad73       ?Expand@?$CDynaList@PAVCAlertNotification@@@@IAEXK@Z 0040bd73 f i AlertNotificationFile.obj
 0001:0000ad73       ?Expand@?$CDynaList@PAVCAlertTrigger@@@@IAEXK@Z 0040bd73 f i AlertDefinitionsFile.obj
 0001:0000ad73       ?Expand@?$CDynaList@PAVCFileSystemFolder@@@@IAEXK@Z 0040bd73 f i FileSystemScanner.obj
 0001:0000ad73       ?Expand@?$CDynaList@PAVCAuditDataScanner@@@@IAEXK@Z 0040bd73 f i AlertTriggerScanner.obj
 0001:0000ad73       ?Expand@?$CDynaList@PAVCAlertDefinition@@@@IAEXK@Z 0040bd73 f i AlertDefinitionsFile.obj
 0001:0000ad73       ?Expand@?$CDynaList@PAVCFileSystemFile@@@@IAEXK@Z 0040bd73 f i FileSystemScanner.obj
 0001:0000ad73       ?Expand@?$CDynaList@PAVCAlertTriggerScanner@@@@IAEXK@Z 0040bd73 f i AlertTriggerScanner.obj
 0001:0000adee       ?_Lrotate@?$_Tree@V?$_Tmap_traits@V?$basic_string@DU?$char_traits@D@std@@V?$allocator@D@2@@std@@W4StringValue@@U?$less@V?$basic_string@DU?$char_traits@D@std@@V?$allocator@D@2@@std@@@2@V?$allocator@U?$pair@$$CBV?$basic_string@DU?$char_traits@D@std@@V?$allocator@D@2@@std@@W4StringValue@@@std@@@2@$0A@@std@@@std@@IAEXPAU_Node@?$_Tree_nod@V?$_Tmap_traits@V?$basic_string@DU?$char_traits@D@std@@V?$allocator@D@2@@std@@W4StringValue@@U?$less@V?$basic_string@DU?$char_traits@D@std@@V?$allocator@D@2@@std@@@2@V?$allocator@U?$pair@$$CBV?$basic_string@DU?$char_traits@D@std@@V?$allocator@D@2@@std@@W4StringValue@@@std@@@2@$0A@@std@@@2@@Z 0040bdee f i AlertDefinitionsFile.obj
 0001:0000ae30       ?_Rrotate@?$_Tree@V?$_Tmap_traits@V?$basic_string@DU?$char_traits@D@std@@V?$allocator@D@2@@std@@W4StringValue@@U?$less@V?$basic_string@DU?$char_traits@D@std@@V?$allocator@D@2@@std@@@2@V?$allocator@U?$pair@$$CBV?$basic_string@DU?$char_traits@D@std@@V?$allocator@D@2@@std@@W4StringValue@@@std@@@2@$0A@@std@@@std@@IAEXPAU_Node@?$_Tree_nod@V?$_Tmap_traits@V?$basic_string@DU?$char_traits@D@std@@V?$allocator@D@2@@std@@W4StringValue@@U?$less@V?$basic_string@DU?$char_traits@D@std@@V?$allocator@D@2@@std@@@2@V?$allocator@U?$pair@$$CBV?$basic_string@DU?$char_traits@D@std@@V?$allocator@D@2@@std@@W4StringValue@@@std@@@2@$0A@@std@@@2@@Z 0040be30 f i AlertDefinitionsFile.obj
 0001:0000ae74       ??0?$CArray@UElemPos@CMarkup@@AAU12@@@QAE@XZ 0040be74 f i AlertDefinitionsFile.obj
 0001:0000ae8b       ?memcpy_s@Checked@ATL@@YAXPAXIPBXI@Z 0040be8b f i AlertDefinitionsFile.obj
 0001:0000aeaa       ?EnsureRead@CArchive@@QAEXPAXI@Z 0040beaa f i AlertDefinitionsFile.obj
 0001:0000aec9       ??1?$CArray@UElemPos@CMarkup@@AAU12@@@UAE@XZ 0040bec9 f i AlertDefinitionsFile.obj
 0001:0000aede       ??$swap@D@std@@YAXAAD0@Z   0040bede f i AlertDefinitionsFile.obj
 0001:0000aef5       ??_G?$CArray@UElemPos@CMarkup@@AAU12@@@UAEPAXI@Z 0040bef5 f i AlertDefinitionsFile.obj
 0001:0000aef5       ??_E?$CArray@UElemPos@CMarkup@@AAU12@@@UAEPAXI@Z 0040bef5 f i AlertDefinitionsFile.obj
 0001:0000af11       ??$SerializeElements@UElemPos@CMarkup@@@@YGXAAVCArchive@@PAUElemPos@CMarkup@@H@Z 0040bf11 f i AlertDefinitionsFile.obj
 0001:0000af97       ?Add@?$CDynaList@PAVCAlertTriggerScanner@@@@QAEKABQAVCAlertTriggerScanner@@@Z 0040bf97 f i AlertTriggerScanner.obj
 0001:0000af97       ?Add@?$CDynaList@PAVCAlertTrigger@@@@QAEKABQAVCAlertTrigger@@@Z 0040bf97 f i AlertDefinitionsFile.obj
 0001:0000af97       ?Add@?$CDynaList@PAVCFileSystemFile@@@@QAEKABQAVCFileSystemFile@@@Z 0040bf97 f i FileSystemScanner.obj
 0001:0000af97       ?Add@?$CDynaList@PAVCAlertDefinition@@@@QAEKABQAVCAlertDefinition@@@Z 0040bf97 f i AlertDefinitionsFile.obj
 0001:0000af97       ?Add@?$CDynaList@PAVCAuditDataScanner@@@@QAEKABQAVCAuditDataScanner@@@Z 0040bf97 f i AlertTriggerScanner.obj
 0001:0000af97       ?Add@?$CDynaList@PAVCFileSystemFolder@@@@QAEKABQAVCFileSystemFolder@@@Z 0040bf97 f i FileSystemScanner.obj
 0001:0000af97       ?Add@?$CDynaList@PAVCAlertNotification@@@@QAEKABQAVCAlertNotification@@@Z 0040bf97 f i AlertNotificationFile.obj
 0001:0000afc5       ??_E?$CDynaList@PAVCAlertTrigger@@@@UAEPAXI@Z 0040bfc5 f i AlertDefinitionsFile.obj
 0001:0000afc5       ??_G?$CDynaList@PAVCAlertTrigger@@@@UAEPAXI@Z 0040bfc5 f i AlertDefinitionsFile.obj
 0001:0000afe7       ??_E?$CDynaList@PAVCAlertDefinition@@@@UAEPAXI@Z 0040bfe7 f i AlertDefinitionsFile.obj
 0001:0000afe7       ??_G?$CDynaList@PAVCAlertDefinition@@@@UAEPAXI@Z 0040bfe7 f i AlertDefinitionsFile.obj
 0001:0000b009       ?_Inc@const_iterator@?$_Tree@V?$_Tmap_traits@V?$basic_string@DU?$char_traits@D@std@@V?$allocator@D@2@@std@@W4StringValue@@U?$less@V?$basic_string@DU?$char_traits@D@std@@V?$allocator@D@2@@std@@@2@V?$allocator@U?$pair@$$CBV?$basic_string@DU?$char_traits@D@std@@V?$allocator@D@2@@std@@W4StringValue@@@std@@@2@$0A@@std@@@std@@QAEXXZ 0040c009 f i AlertDefinitionsFile.obj
 0001:0000b058       ??$_Allocate@U_Node@?$_Tree_nod@V?$_Tmap_traits@V?$basic_string@DU?$char_traits@D@std@@V?$allocator@D@2@@std@@W4StringValue@@U?$less@V?$basic_string@DU?$char_traits@D@std@@V?$allocator@D@2@@std@@@2@V?$allocator@U?$pair@$$CBV?$basic_string@DU?$char_traits@D@std@@V?$allocator@D@2@@std@@W4StringValue@@@std@@@2@$0A@@std@@@std@@@std@@YAPAU_Node@?$_Tree_nod@V?$_Tmap_traits@V?$basic_string@DU?$char_traits@D@std@@V?$allocator@D@2@@std@@W4StringValue@@U?$less@V?$basic_string@DU?$char_traits@D@std@@V?$allocator@D@2@@std@@@2@V?$allocator@U?$pair@$$CBV?$basic_string@DU?$char_traits@D@std@@V?$allocator@D@2@@std@@W4StringValue@@@std@@@2@$0A@@std@@@0@IPAU120@@Z 0040c058 f i AlertDefinitionsFile.obj
 0001:0000b0a5       ??$_Allocate@V_Aux_cont@std@@@std@@YAPAV_Aux_cont@0@IPAV10@@Z 0040c0a5 f i AlertDefinitionsFile.obj
 0001:0000b0f4       ?SetSize@?$CArray@UElemPos@CMarkup@@AAU12@@@QAEXHH@Z 0040c0f4 f i AlertDefinitionsFile.obj
 0001:0000b2d9       ??0CAlertDefinitionsFile@@QAE@XZ 0040c2d9 f   AlertDefinitionsFile.obj
 0001:0000b2f3       ?Serialize@?$CArray@UElemPos@CMarkup@@AAU12@@@UAEXAAVCArchive@@@Z 0040c2f3 f i AlertDefinitionsFile.obj
 0001:0000b330       ??0CAlertDefinition@@QAE@XZ 0040c330 f i AlertDefinitionsFile.obj
 0001:0000b34e       ?_Buynode@?$_Tree@V?$_Tmap_traits@V?$basic_string@DU?$char_traits@D@std@@V?$allocator@D@2@@std@@W4StringValue@@U?$less@V?$basic_string@DU?$char_traits@D@std@@V?$allocator@D@2@@std@@@2@V?$allocator@U?$pair@$$CBV?$basic_string@DU?$char_traits@D@std@@V?$allocator@D@2@@std@@W4StringValue@@@std@@@2@$0A@@std@@@std@@IAEPAU_Node@?$_Tree_nod@V?$_Tmap_traits@V?$basic_string@DU?$char_traits@D@std@@V?$allocator@D@2@@std@@W4StringValue@@U?$less@V?$basic_string@DU?$char_traits@D@std@@V?$allocator@D@2@@std@@@2@V?$allocator@U?$pair@$$CBV?$basic_string@DU?$char_traits@D@std@@V?$allocator@D@2@@std@@W4StringValue@@@std@@@2@$0A@@std@@@2@XZ 0040c34e f i AlertDefinitionsFile.obj
 0001:0000b37c       ??0const_iterator@?$_Tree@V?$_Tmap_traits@V?$CStringT@DV?$StrTraitMFC@DV?$ChTraitsCRT@D@ATL@@@@@ATL@@V12@U?$less@V?$CStringT@DV?$StrTraitMFC@DV?$ChTraitsCRT@D@ATL@@@@@ATL@@@std@@V?$allocator@U?$pair@$$CBV?$CStringT@DV?$StrTraitMFC@DV?$ChTraitsCRT@D@ATL@@@@@ATL@@V12@@std@@@4@$0A@@std@@@std@@QAE@PAU_Node@?$_Tree_nod@V?$_Tmap_traits@V?$CStringT@DV?$StrTraitMFC@DV?$ChTraitsCRT@D@ATL@@@@@ATL@@V12@U?$less@V?$CStringT@DV?$StrTraitMFC@DV?$ChTraitsCRT@D@ATL@@@@@ATL@@@std@@V?$allocator@U?$pair@$$CBV?$CStringT@DV?$StrTraitMFC@DV?$ChTraitsCRT@D@ATL@@@@@ATL@@V12@@std@@@4@$0A@@std@@@2@PBV12@@Z 0040c37c f i ApplicationSerial.obj
 0001:0000b37c       ??0const_iterator@?$_Tree@V?$_Tmap_traits@V?$basic_string@DU?$char_traits@D@std@@V?$allocator@D@2@@std@@W4StringValue@@U?$less@V?$basic_string@DU?$char_traits@D@std@@V?$allocator@D@2@@std@@@2@V?$allocator@U?$pair@$$CBV?$basic_string@DU?$char_traits@D@std@@V?$allocator@D@2@@std@@W4StringValue@@@std@@@2@$0A@@std@@@std@@QAE@PAU_Node@?$_Tree_nod@V?$_Tmap_traits@V?$basic_string@DU?$char_traits@D@std@@V?$allocator@D@2@@std@@W4StringValue@@U?$less@V?$basic_string@DU?$char_traits@D@std@@V?$allocator@D@2@@std@@@2@V?$allocator@U?$pair@$$CBV?$basic_string@DU?$char_traits@D@std@@V?$allocator@D@2@@std@@W4StringValue@@@std@@@2@$0A@@std@@@2@PBV12@@Z 0040c37c f i AlertDefinitionsFile.obj
 0001:0000b3a2       ??0CMarkup@@QAE@XZ         0040c3a2 f i AlertDefinitionsFile.obj
 0001:0000b3ea       ??0CMarkup@@QAE@ABV0@@Z    0040c3ea f i AlertDefinitionsFile.obj
 0001:0000b435       ??1CMarkup@@UAE@XZ         0040c435 f i AlertDefinitionsFile.obj
 0001:0000b45d       ?GetChildTagName@CMarkup@@QBE?AV?$CStringT@DV?$StrTraitMFC@DV?$ChTraitsCRT@D@ATL@@@@@ATL@@XZ 0040c45d f i AlertDefinitionsFile.obj
 0001:0000b477       ?GetChildData@CMarkup@@QBE?AV?$CStringT@DV?$StrTraitMFC@DV?$ChTraitsCRT@D@ATL@@@@@ATL@@XZ 0040c477 f i AlertDefinitionsFile.obj
 0001:0000b491       ?GetChildDataAsBoolean@CMarkup@@QBE_NXZ 0040c491 f i AlertDefinitionsFile.obj
 0001:0000b4d4       ?GetChildDataAsInt@CMarkup@@QBEHXZ 0040c4d4 f i AlertDefinitionsFile.obj
 0001:0000b4ff       ??_GCMarkup@@UAEPAXI@Z     0040c4ff f i AlertDefinitionsFile.obj
 0001:0000b4ff       ??_ECMarkup@@UAEPAXI@Z     0040c4ff f i AlertDefinitionsFile.obj
 0001:0000b51b       ?_Init@?$_Tree@V?$_Tmap_traits@V?$basic_string@DU?$char_traits@D@std@@V?$allocator@D@2@@std@@W4StringValue@@U?$less@V?$basic_string@DU?$char_traits@D@std@@V?$allocator@D@2@@std@@@2@V?$allocator@U?$pair@$$CBV?$basic_string@DU?$char_traits@D@std@@V?$allocator@D@2@@std@@W4StringValue@@@std@@@2@$0A@@std@@@std@@IAEXXZ 0040c51b f i AlertDefinitionsFile.obj
 0001:0000b540       ??1logic_error@std@@UAE@XZ 0040c540 f i AlertDefinitionsFile.obj
 0001:0000b55d       ?what@logic_error@std@@UBEPBDXZ 0040c55d f i AlertDefinitionsFile.obj
 0001:0000b56b       ??_Elogic_error@std@@UAEPAXI@Z 0040c56b f i AlertDefinitionsFile.obj
 0001:0000b56b       ??_Glogic_error@std@@UAEPAXI@Z 0040c56b f i AlertDefinitionsFile.obj
 0001:0000b587       ??1CAlertDefinition@@QAE@XZ 0040c587 f i AlertDefinitionsFile.obj
 0001:0000b5d5       ??1?$_Tree_val@V?$_Tmap_traits@V?$CStringT@DV?$StrTraitMFC@DV?$ChTraitsCRT@D@ATL@@@@@ATL@@V12@U?$less@V?$CStringT@DV?$StrTraitMFC@DV?$ChTraitsCRT@D@ATL@@@@@ATL@@@std@@V?$allocator@U?$pair@$$CBV?$CStringT@DV?$StrTraitMFC@DV?$ChTraitsCRT@D@ATL@@@@@ATL@@V12@@std@@@4@$0A@@std@@@std@@QAE@XZ 0040c5d5 f i ApplicationSerial.obj
 0001:0000b5d5       ??1?$_Tree_val@V?$_Tmap_traits@V?$basic_string@DU?$char_traits@D@std@@V?$allocator@D@2@@std@@W4StringValue@@U?$less@V?$basic_string@DU?$char_traits@D@std@@V?$allocator@D@2@@std@@@2@V?$allocator@U?$pair@$$CBV?$basic_string@DU?$char_traits@D@std@@V?$allocator@D@2@@std@@W4StringValue@@@std@@@2@$0A@@std@@@std@@QAE@XZ 0040c5d5 f i AlertDefinitionsFile.obj
 0001:0000b5de       ?begin@?$_Tree@V?$_Tmap_traits@V?$CStringT@DV?$StrTraitMFC@DV?$ChTraitsCRT@D@ATL@@@@@ATL@@V12@U?$less@V?$CStringT@DV?$StrTraitMFC@DV?$ChTraitsCRT@D@ATL@@@@@ATL@@@std@@V?$allocator@U?$pair@$$CBV?$CStringT@DV?$StrTraitMFC@DV?$ChTraitsCRT@D@ATL@@@@@ATL@@V12@@std@@@4@$0A@@std@@@std@@QAE?AViterator@12@XZ 0040c5de f i ApplicationSerial.obj
 0001:0000b5de       ?begin@?$_Tree@V?$_Tmap_traits@V?$basic_string@DU?$char_traits@D@std@@V?$allocator@D@2@@std@@W4StringValue@@U?$less@V?$basic_string@DU?$char_traits@D@std@@V?$allocator@D@2@@std@@@2@V?$allocator@U?$pair@$$CBV?$basic_string@DU?$char_traits@D@std@@V?$allocator@D@2@@std@@W4StringValue@@@std@@@2@$0A@@std@@@std@@QAE?AViterator@12@XZ 0040c5de f i AlertDefinitionsFile.obj
 0001:0000b5f4       ?_Make_iter@?$_Tree@V?$_Tmap_traits@V?$CStringT@DV?$StrTraitMFC@DV?$ChTraitsCRT@D@ATL@@@@@ATL@@V12@U?$less@V?$CStringT@DV?$StrTraitMFC@DV?$ChTraitsCRT@D@ATL@@@@@ATL@@@std@@V?$allocator@U?$pair@$$CBV?$CStringT@DV?$StrTraitMFC@DV?$ChTraitsCRT@D@ATL@@@@@ATL@@V12@@std@@@4@$0A@@std@@@std@@QBE?AViterator@12@Vconst_iterator@12@@Z 0040c5f4 f i ApplicationSerial.obj
 0001:0000b5f4       ?_Make_iter@?$_Tree@V?$_Tmap_traits@V?$basic_string@DU?$char_traits@D@std@@V?$allocator@D@2@@std@@W4StringValue@@U?$less@V?$basic_string@DU?$char_traits@D@std@@V?$allocator@D@2@@std@@@2@V?$allocator@U?$pair@$$CBV?$basic_string@DU?$char_traits@D@std@@V?$allocator@D@2@@std@@W4StringValue@@@std@@@2@$0A@@std@@@std@@QBE?AViterator@12@Vconst_iterator@12@@Z 0040c5f4 f i AlertDefinitionsFile.obj
 0001:0000b617       ??0?$basic_string@DU?$char_traits@D@std@@V?$allocator@D@2@@std@@QAE@ABV01@@Z 0040c617 f i AlertDefinitionsFile.obj
 0001:0000b63d       ?Field@CAlertTrigger@@QAEXV?$CStringT@DV?$StrTraitMFC@DV?$ChTraitsCRT@D@ATL@@@@@ATL@@@Z 0040c63d f i AlertDefinitionsFile.obj
 0001:0000b63d       ?AlertName@CAlertNotification@@QAEXV?$CStringT@DV?$StrTraitMFC@DV?$ChTraitsCRT@D@ATL@@@@@ATL@@@Z 0040c63d f i AlertNotificationFile.obj
 0001:0000b63d       ?Name@CAuditDataFileItem@@QAEXV?$CStringT@DV?$StrTraitMFC@DV?$ChTraitsCRT@D@ATL@@@@@ATL@@@Z 0040c63d f i AuditDataFile.obj
 0001:0000b669       ??1CAlertDefinitionsFile@@QAE@XZ 0040c669 f   AlertDefinitionsFile.obj
 0001:0000b6ad       ?ProcessAlertTrigger@CAlertDefinitionsFile@@IAEXVCMarkup@@PAVCAlertDefinition@@@Z 0040c6ad f   AlertDefinitionsFile.obj
 0001:0000b873       ??_G_Node@?$_Tree_nod@V?$_Tmap_traits@V?$basic_string@DU?$char_traits@D@std@@V?$allocator@D@2@@std@@W4StringValue@@U?$less@V?$basic_string@DU?$char_traits@D@std@@V?$allocator@D@2@@std@@@2@V?$allocator@U?$pair@$$CBV?$basic_string@DU?$char_traits@D@std@@V?$allocator@D@2@@std@@W4StringValue@@@std@@@2@$0A@@std@@@std@@QAEPAXI@Z 0040c873 f i AlertDefinitionsFile.obj
 0001:0000b896       ??0logic_error@std@@QAE@ABV?$basic_string@DU?$char_traits@D@std@@V?$allocator@D@2@@1@@Z 0040c896 f i AlertDefinitionsFile.obj
 0001:0000b8cb       ??0out_of_range@std@@QAE@ABV?$basic_string@DU?$char_traits@D@std@@V?$allocator@D@2@@1@@Z 0040c8cb f i AlertDefinitionsFile.obj
 0001:0000b8e3       ??1out_of_range@std@@UAE@XZ 0040c8e3 f i AlertDefinitionsFile.obj
 0001:0000b8ee       ??_Gout_of_range@std@@UAEPAXI@Z 0040c8ee f i AlertDefinitionsFile.obj
 0001:0000b8ee       ??_Eout_of_range@std@@UAEPAXI@Z 0040c8ee f i AlertDefinitionsFile.obj
 0001:0000b910       ?ProcessAlertTriggers@CAlertDefinitionsFile@@IAEXVCMarkup@@PAVCAlertDefinition@@@Z 0040c910 f   AlertDefinitionsFile.obj
 0001:0000b99e       ?ProcessAlertDefinition@CAlertDefinitionsFile@@IAEXVCMarkup@@@Z 0040c99e f   AlertDefinitionsFile.obj
 0001:0000bab9       ??0?$_Tree@V?$_Tmap_traits@V?$basic_string@DU?$char_traits@D@std@@V?$allocator@D@2@@std@@W4StringValue@@U?$less@V?$basic_string@DU?$char_traits@D@std@@V?$allocator@D@2@@std@@@2@V?$allocator@U?$pair@$$CBV?$basic_string@DU?$char_traits@D@std@@V?$allocator@D@2@@std@@W4StringValue@@@std@@@2@$0A@@std@@@std@@QAE@ABU?$less@V?$basic_string@DU?$char_traits@D@std@@V?$allocator@D@2@@std@@@1@ABV?$allocator@U?$pair@$$CBV?$basic_string@DU?$char_traits@D@std@@V?$allocator@D@2@@std@@W4StringValue@@@std@@@1@@Z 0040cab9 f i AlertDefinitionsFile.obj
 0001:0000baee       ?DeserializeScannerConfiguration@CAlertDefinitionsFile@@IAEXVCMarkup@@@Z 0040caee f   AlertDefinitionsFile.obj
 0001:0000bb69       ?erase@?$_Tree@V?$_Tmap_traits@V?$basic_string@DU?$char_traits@D@std@@V?$allocator@D@2@@std@@W4StringValue@@U?$less@V?$basic_string@DU?$char_traits@D@std@@V?$allocator@D@2@@std@@@2@V?$allocator@U?$pair@$$CBV?$basic_string@DU?$char_traits@D@std@@V?$allocator@D@2@@std@@W4StringValue@@@std@@@2@$0A@@std@@@std@@QAE?AViterator@12@Vconst_iterator@12@@Z 0040cb69 f i AlertDefinitionsFile.obj
 0001:0000bdf7       ??0logic_error@std@@QAE@ABV01@@Z 0040cdf7 f i AlertDefinitionsFile.obj
 0001:0000be31       ??0out_of_range@std@@QAE@ABV01@@Z 0040ce31 f i AlertDefinitionsFile.obj
 0001:0000be49       ?_Erase@?$_Tree@V?$_Tmap_traits@V?$basic_string@DU?$char_traits@D@std@@V?$allocator@D@2@@std@@W4StringValue@@U?$less@V?$basic_string@DU?$char_traits@D@std@@V?$allocator@D@2@@std@@@2@V?$allocator@U?$pair@$$CBV?$basic_string@DU?$char_traits@D@std@@V?$allocator@D@2@@std@@W4StringValue@@@std@@@2@$0A@@std@@@std@@IAEXPAU_Node@?$_Tree_nod@V?$_Tmap_traits@V?$basic_string@DU?$char_traits@D@std@@V?$allocator@D@2@@std@@W4StringValue@@U?$less@V?$basic_string@DU?$char_traits@D@std@@V?$allocator@D@2@@std@@@2@V?$allocator@U?$pair@$$CBV?$basic_string@DU?$char_traits@D@std@@V?$allocator@D@2@@std@@W4StringValue@@@std@@@2@$0A@@std@@@2@@Z 0040ce49 f i AlertDefinitionsFile.obj
 0001:0000be84       ?Load@CAlertDefinitionsFile@@QAEHPBD@Z 0040ce84 f   AlertDefinitionsFile.obj
 0001:0000bf92       ?clear@?$_Tree@V?$_Tmap_traits@V?$basic_string@DU?$char_traits@D@std@@V?$allocator@D@2@@std@@W4StringValue@@U?$less@V?$basic_string@DU?$char_traits@D@std@@V?$allocator@D@2@@std@@@2@V?$allocator@U?$pair@$$CBV?$basic_string@DU?$char_traits@D@std@@V?$allocator@D@2@@std@@W4StringValue@@@std@@@2@$0A@@std@@@std@@QAEXXZ 0040cf92 f i AlertDefinitionsFile.obj
 0001:0000bfb8       ?erase@?$_Tree@V?$_Tmap_traits@V?$basic_string@DU?$char_traits@D@std@@V?$allocator@D@2@@std@@W4StringValue@@U?$less@V?$basic_string@DU?$char_traits@D@std@@V?$allocator@D@2@@std@@@2@V?$allocator@U?$pair@$$CBV?$basic_string@DU?$char_traits@D@std@@V?$allocator@D@2@@std@@W4StringValue@@@std@@@2@$0A@@std@@@std@@QAE?AViterator@12@Vconst_iterator@12@0@Z 0040cfb8 f i AlertDefinitionsFile.obj
 0001:0000c064       ?_Tidy@?$_Tree@V?$_Tmap_traits@V?$basic_string@DU?$char_traits@D@std@@V?$allocator@D@2@@std@@W4StringValue@@U?$less@V?$basic_string@DU?$char_traits@D@std@@V?$allocator@D@2@@std@@@2@V?$allocator@U?$pair@$$CBV?$basic_string@DU?$char_traits@D@std@@V?$allocator@D@2@@std@@W4StringValue@@@std@@@2@$0A@@std@@@std@@IAEXXZ 0040d064 f i AlertDefinitionsFile.obj
 0001:0000c0b2       ??1?$_Tree@V?$_Tmap_traits@V?$basic_string@DU?$char_traits@D@std@@V?$allocator@D@2@@std@@W4StringValue@@U?$less@V?$basic_string@DU?$char_traits@D@std@@V?$allocator@D@2@@std@@@2@V?$allocator@U?$pair@$$CBV?$basic_string@DU?$char_traits@D@std@@V?$allocator@D@2@@std@@W4StringValue@@@std@@@2@$0A@@std@@@std@@QAE@XZ 0040d0b2 f i AlertDefinitionsFile.obj
 0001:0000c0da       ??0?$map@V?$basic_string@DU?$char_traits@D@std@@V?$allocator@D@2@@std@@W4StringValue@@U?$less@V?$basic_string@DU?$char_traits@D@std@@V?$allocator@D@2@@std@@@2@V?$allocator@U?$pair@$$CBV?$basic_string@DU?$char_traits@D@std@@V?$allocator@D@2@@std@@W4StringValue@@@std@@@2@@std@@QAE@XZ 0040d0da f i AlertDefinitionsFile.obj
 0001:0000c0f3       ?NotificationTypeAsString@CAlertNotification@@QAEPBDXZ 0040d0f3 f i AlertNotificationFile.obj
 0001:0000c125       ?Type@CAlertNotification@@QAEXPBD@Z 0040d125 f i AlertNotificationFile.obj
 0001:0000c170       ??1?$CDynaList@PAVCAlertNotification@@@@UAE@XZ 0040d170 f i AlertNotificationFile.obj
 0001:0000c17b       ??_E?$CDynaList@PAVCAlertNotification@@@@UAEPAXI@Z 0040d17b f i AlertNotificationFile.obj
 0001:0000c17b       ??_G?$CDynaList@PAVCAlertNotification@@@@UAEPAXI@Z 0040d17b f i AlertNotificationFile.obj
 0001:0000c19d       ??0CAlertNotification@@QAE@XZ 0040d19d f i AlertNotificationFile.obj
 0001:0000c1c9       ??0CAlertNotificationFile@@QAE@XZ 0040d1c9 f   AlertNotificationFile.obj
 0001:0000c1ea       ??1CAlertNotification@@QAE@XZ 0040d1ea f i AlertNotificationFile.obj
 0001:0000c224       ?WriteAlert@CAlertNotificationFile@@IAEXPAVCAlertNotification@@@Z 0040d224 f   AlertNotificationFile.obj
 0001:0000c2f4       ??1CAlertNotificationFile@@QAE@XZ 0040d2f4 f   AlertNotificationFile.obj
 0001:0000c365       ?ProcessAlertNotification@CAlertNotificationFile@@IAEXVCMarkup@@@Z 0040d365 f   AlertNotificationFile.obj
 0001:0000c515       ?Write@CAlertNotificationFile@@QAEHAAV?$CStringT@DV?$StrTraitMFC@DV?$ChTraitsCRT@D@ATL@@@@@ATL@@@Z 0040d515 f   AlertNotificationFile.obj
 0001:0000c62e       ?ProcessElementRead@CAlertNotificationFile@@IAEXVCMarkup@@@Z 0040d62e f   AlertNotificationFile.obj
 0001:0000c6e3       ?Load@CAlertNotificationFile@@QAEHPBD@Z 0040d6e3 f   AlertNotificationFile.obj
 0001:0000c86c       ?Save@CAlertTriggerScannerList@@QAEXAAVCAuditDataFile@@0@Z 0040d86c f   AlertTriggerScanner.obj
 0001:0000c89e       ?Scan@CAlertTriggerScannerList@@QAEHXZ 0040d89e f   AlertTriggerScanner.obj
 0001:0000c8c8       ?Test@CAlertTriggerScannerList@@QAEHAAVCAlertNotificationFile@@AAVCAuditDataFile@@1@Z 0040d8c8 f   AlertTriggerScanner.obj
 0001:0000c8fd       ?Save@CAlertTriggerScanner_HW@@UAEXAAVCAuditDataFile@@0@Z 0040d8fd f   AlertTriggerScanner.obj
 0001:0000c90c       ?Save@CAlertTriggerScanner_Registry@@UAEXAAVCAuditDataFile@@0@Z 0040d90c f   AlertTriggerScanner.obj
 0001:0000c91b       ?Scan@CAlertTriggerScanner_OS@@UAEHXZ 0040d91b f   AlertTriggerScanner.obj
 0001:0000c926       ?Save@CAlertTriggerScanner_OS@@UAEXAAVCAuditDataFile@@0@Z 0040d926 f   AlertTriggerScanner.obj
 0001:0000c935       ?Scan@CAlertTriggerScanner_SW@@UAEHXZ 0040d935 f   AlertTriggerScanner.obj
 0001:0000c944       ?Save@CAlertTriggerScanner_SW@@UAEXAAVCAuditDataFile@@0@Z 0040d944 f   AlertTriggerScanner.obj
 0001:0000c953       ?GetLocalTm@CTime@ATL@@QBEPAUtm@@PAU3@@Z 0040d953 f i AlertTriggerScanner.obj
 0001:0000c993       ?GetYear@CTime@ATL@@QBEHXZ 0040d993 f i AlertTriggerScanner.obj
 0001:0000c9b3       ?GetMonth@CTime@ATL@@QBEHXZ 0040d9b3 f i AlertTriggerScanner.obj
 0001:0000c9cf       ?GetDay@CTime@ATL@@QBEHXZ  0040d9cf f i AlertTriggerScanner.obj
 0001:0000c9ea       ?ConvertTimeString@CAlertTriggerScanner_IE@@IAE?AVCTime@ATL@@AAV?$CStringT@DV?$StrTraitMFC@DV?$ChTraitsCRT@D@ATL@@@@@3@@Z 0040d9ea f   AlertTriggerScanner.obj
 0001:0000ca5a       ?ReverseFind@?$CStringT@DV?$StrTraitMFC@DV?$ChTraitsCRT@D@ATL@@@@@ATL@@QBEHD@Z 0040da5a f i AlertTriggerScanner.obj
 0001:0000ca7c       ??1?$CDynaList@PAVCAuditDataScanner@@@@UAE@XZ 0040da7c f i AlertTriggerScanner.obj
 0001:0000ca87       ??_GCInternetHistoryList@@UAEPAXI@Z 0040da87 f i AlertTriggerScanner.obj
 0001:0000ca87       ??_ECInternetHistoryList@@UAEPAXI@Z 0040da87 f i AlertTriggerScanner.obj
 0001:0000ca87       ??_G?$CDynaList@VCInternetHistoryEntry@@@@UAEPAXI@Z 0040da87 f i AlertTriggerScanner.obj
 0001:0000ca87       ??_E?$CDynaList@VCInternetHistoryEntry@@@@UAEPAXI@Z 0040da87 f i AlertTriggerScanner.obj
 0001:0000caa9       ??_E?$CDynaList@PAVCAuditDataScanner@@@@UAEPAXI@Z 0040daa9 f i AlertTriggerScanner.obj
 0001:0000caa9       ??_G?$CDynaList@PAVCAuditDataScanner@@@@UAEPAXI@Z 0040daa9 f i AlertTriggerScanner.obj
 0001:0000cacb       ?GetBuffer@?$CSimpleStringT@D$0A@@ATL@@QAEPADXZ 0040dacb f i AlertTriggerScanner.obj
 0001:0000cae5       ??9ATL@@YA_NABV?$CStringT@DV?$StrTraitMFC@DV?$ChTraitsCRT@D@ATL@@@@@0@0@Z 0040dae5 f i AlertTriggerScanner.obj
 0001:0000cafb       ??1CAlertTriggerScannerList@@UAE@XZ 0040dafb f   AlertTriggerScanner.obj
 0001:0000cb46       ??1CInternetHistoryList@@UAE@XZ 0040db46 f i AlertTriggerScanner.obj
 0001:0000cb51       ?Test@CAlertTriggerScanner_IE@@UAEHAAVCAlertNotificationFile@@AAVCAuditDataFile@@1@Z 0040db51 f   AlertTriggerScanner.obj
 0001:0000cb87       ?Find@?$CStringT@DV?$StrTraitMFC@DV?$ChTraitsCRT@D@ATL@@@@@ATL@@QBEHPBDH@Z 0040db87 f i AlertTriggerScanner.obj
 0001:0000cbbd       ?SetAt@?$CSimpleStringT@D$0A@@ATL@@QAEXHD@Z 0040dbbd f i AlertTriggerScanner.obj
 0001:0000cbf8       ??1CAlertTriggerScanner@@UAE@XZ 0040dbf8 f i AlertTriggerScanner.obj
 0001:0000cc18       ??_ECAlertTriggerScanner@@UAEPAXI@Z 0040dc18 f i AlertTriggerScanner.obj
 0001:0000cc18       ??_GCAlertTriggerScanner@@UAEPAXI@Z 0040dc18 f i AlertTriggerScanner.obj
 0001:0000cc34       ??1CAlertTriggerScanner_HW@@UAE@XZ 0040dc34 f   AlertTriggerScanner.obj
 0001:0000cc82       ??1CAlertTriggerScanner_Registry@@UAE@XZ 0040dc82 f   AlertTriggerScanner.obj
 0001:0000ccd0       ??1CAlertTriggerScanner_OS@@UAE@XZ 0040dcd0 f   AlertTriggerScanner.obj
 0001:0000cd26       ??1CAlertTriggerScanner_SW@@UAE@XZ 0040dd26 f   AlertTriggerScanner.obj
 0001:0000cd5b       ??1CAlertTriggerScanner_IE@@UAE@XZ 0040dd5b f   AlertTriggerScanner.obj
 0001:0000cda3       ?FindInternetCategory@CAlertTriggerScanner_IE@@IBEPAVCAuditDataFileCategory@@PAV?$CDynaList@VCAuditDataFileCategory@@@@V?$CStringT@DV?$StrTraitMFC@DV?$ChTraitsCRT@D@ATL@@@@@ATL@@@Z 0040dda3 f   AlertTriggerScanner.obj
 0001:0000cdf4       ?CreateAlertScanner@CAlertTriggerScanner@@QAEPAVCAuditDataScanner@@PBD@Z 0040ddf4 f   AlertTriggerScanner.obj
 0001:0000d1bf       ??_GCAlertTriggerScanner_HW@@UAEPAXI@Z 0040e1bf f i AlertTriggerScanner.obj
 0001:0000d1bf       ??_ECAlertTriggerScanner_HW@@UAEPAXI@Z 0040e1bf f i AlertTriggerScanner.obj
 0001:0000d1db       ?Scan@CAlertTriggerScanner_HW@@UAEHXZ 0040e1db f   AlertTriggerScanner.obj
 0001:0000d204       ??_ECAlertTriggerScanner_Registry@@UAEPAXI@Z 0040e204 f i AlertTriggerScanner.obj
 0001:0000d204       ??_GCAlertTriggerScanner_Registry@@UAEPAXI@Z 0040e204 f i AlertTriggerScanner.obj
 0001:0000d220       ??_ECAlertTriggerScanner_OS@@UAEPAXI@Z 0040e220 f i AlertTriggerScanner.obj
 0001:0000d220       ??_GCAlertTriggerScanner_OS@@UAEPAXI@Z 0040e220 f i AlertTriggerScanner.obj
 0001:0000d23c       ??_GCAlertTriggerScanner_SW@@UAEPAXI@Z 0040e23c f i AlertTriggerScanner.obj
 0001:0000d23c       ??_ECAlertTriggerScanner_SW@@UAEPAXI@Z 0040e23c f i AlertTriggerScanner.obj
 0001:0000d258       ??_GCAlertTriggerScanner_IE@@UAEPAXI@Z 0040e258 f i AlertTriggerScanner.obj
 0001:0000d258       ??_ECAlertTriggerScanner_IE@@UAEPAXI@Z 0040e258 f i AlertTriggerScanner.obj
 0001:0000d274       ?OSVersion@CAuditDataFile@@QAE?AV?$CStringT@DV?$StrTraitMFC@DV?$ChTraitsCRT@D@ATL@@@@@ATL@@XZ 0040e274 f i AlertTriggerScanner.obj
 0001:0000d292       ?OSFamily@CAuditDataFile@@QAE?AV?$CStringT@DV?$StrTraitMFC@DV?$ChTraitsCRT@D@ATL@@@@@ATL@@XZ 0040e292 f i AlertTriggerScanner.obj
 0001:0000d2b0       ?OSProductID@CAuditDataFile@@QAE?AV?$CStringT@DV?$StrTraitMFC@DV?$ChTraitsCRT@D@ATL@@@@@ATL@@XZ 0040e2b0 f i AlertTriggerScanner.obj
 0001:0000d2ce       ?OSCDKey@CAuditDataFile@@QAE?AV?$CStringT@DV?$StrTraitMFC@DV?$ChTraitsCRT@D@ATL@@@@@ATL@@XZ 0040e2ce f i AlertTriggerScanner.obj
 0001:0000d2ec       ?FindApplication@CAlertTriggerScanner_SW@@IAEHAAV?$CStringT@DV?$StrTraitMFC@DV?$ChTraitsCRT@D@ATL@@@@@ATL@@PAV?$CDynaList@VCApplicationInstance@@@@@Z 0040e2ec f   AlertTriggerScanner.obj
 0001:0000d346       ??0CAlertNotification@@QAE@PBDW4eNotificationType@0@0000@Z 0040e346 f i AlertTriggerScanner.obj
 0001:0000d3cc       ??0CAlertTriggerScanner@@QAE@PBDH0@Z 0040e3cc f i AlertTriggerScanner.obj
 0001:0000d423       ?TestValue@CAlertTriggerScanner_HW@@IAEHAAVCAlertNotificationFile@@PAVCAuditDataFileItem@@1@Z 0040e423 f   AlertTriggerScanner.obj
 0001:0000d9d5       ?Scan@CAlertTriggerScanner_Registry@@UAEHXZ 0040e9d5 f   AlertTriggerScanner.obj
 0001:0000dac3       ?Test@CAlertTriggerScanner_Registry@@UAEHAAVCAlertNotificationFile@@AAVCAuditDataFile@@1@Z 0040eac3 f   AlertTriggerScanner.obj
 0001:0000dd13       ?Test@CAlertTriggerScanner_OS@@UAEHAAVCAlertNotificationFile@@AAVCAuditDataFile@@1@Z 0040ed13 f   AlertTriggerScanner.obj
 0001:0000e060       ??0CAlertTriggerScanner_SW@@QAE@PBDPAVCAuditScannerConfiguration@@@Z 0040f060 f   AlertTriggerScanner.obj
 0001:0000e0be       ?Test@CAlertTriggerScanner_SW@@UAEHAAVCAlertNotificationFile@@AAVCAuditDataFile@@1@Z 0040f0be f   AlertTriggerScanner.obj
 0001:0000e2db       ??0CAlertTriggerScanner_IE@@QAE@PBD0PAVCAuditScannerConfiguration@@@Z 0040f2db f   AlertTriggerScanner.obj
 0001:0000e373       ?Scan@CAlertTriggerScanner_IE@@UAEHXZ 0040f373 f   AlertTriggerScanner.obj
 0001:0000e673       ??0CAuditDataFileCategory@@QAE@PBDH@Z 0040f673 f i AlertTriggerScanner.obj
 0001:0000e6bf       ??0CAlertTriggerScanner_HW@@QAE@PBDH00@Z 0040f6bf f   AlertTriggerScanner.obj
 0001:0000e7b1       ?Test@CAlertTriggerScanner_HW@@UAEHAAVCAlertNotificationFile@@AAVCAuditDataFile@@1@Z 0040f7b1 f   AlertTriggerScanner.obj
 0001:0000e8fd       ??0CAlertTriggerScanner_Registry@@QAE@PBDH00@Z 0040f8fd f   AlertTriggerScanner.obj
 0001:0000e968       ??0CAlertTriggerScanner_OS@@QAE@PBDH00@Z 0040f968 f   AlertTriggerScanner.obj
 0001:0000e9d3       ?Setup@CAlertTriggerScannerList@@QAEHPAVCAuditScannerConfiguration@@PAVCWMIScanner@@AAVCAlertDefinitionsFile@@PBDAAVCTime@ATL@@@Z 0040f9d3 f   AlertTriggerScanner.obj
 0001:0000ece3       ?Save@CAlertTriggerScanner_IE@@UAEXAAVCAuditDataFile@@0@Z 0040fce3 f   AlertTriggerScanner.obj
 0001:0000f1ab       ?memmove_s@Checked@ATL@@YAXPAXIPBXI@Z 004101ab f i ApplicationInstance.obj
 0001:0000f1ca       ?RationalizePublisher@CApplicationInstanceList@@IAE?AV?$CStringT@DV?$StrTraitMFC@DV?$ChTraitsCRT@D@ATL@@@@@ATL@@AAV23@@Z 004101ca f   ApplicationInstance.obj
 0001:0000f1ea       ?Replace@?$CStringT@DV?$StrTraitMFC@DV?$ChTraitsCRT@D@ATL@@@@@ATL@@QAEHPBD0@Z 004101ea f i ApplicationInstance.obj
 0001:0000f353       ?Remove@?$CStringT@DV?$StrTraitMFC@DV?$ChTraitsCRT@D@ATL@@@@@ATL@@QAEHD@Z 00410353 f i ApplicationInstance.obj
 0001:0000f3c9       ?TrimLeft@?$CStringT@DV?$StrTraitMFC@DV?$ChTraitsCRT@D@ATL@@@@@ATL@@QAEAAV12@XZ 004103c9 f i ApplicationInstance.obj
 0001:0000f430       ?Field@CAlertTrigger@@QAE?AV?$CStringT@DV?$StrTraitMFC@DV?$ChTraitsCRT@D@ATL@@@@@ATL@@XZ 00410430 f i AlertTriggerScanner.obj
 0001:0000f430       ?Value@CRegistryKey@@QAE?AV?$CStringT@DV?$StrTraitMFC@DV?$ChTraitsCRT@D@ATL@@@@@ATL@@XZ 00410430 f i RegistryScanner.obj
 0001:0000f430       ?AlertName@CAlertNotification@@QAE?AV?$CStringT@DV?$StrTraitMFC@DV?$ChTraitsCRT@D@ATL@@@@@ATL@@XZ 00410430 f i AlertNotificationFile.obj
 0001:0000f430       ?Stub@CPublisherMapping@@QAE?AV?$CStringT@DV?$StrTraitMFC@DV?$ChTraitsCRT@D@ATL@@@@@ATL@@XZ 00410430 f i PublisherMappings.obj
 0001:0000f430       ?Name@CSystemService@@QAE?AV?$CStringT@DV?$StrTraitMFC@DV?$ChTraitsCRT@D@ATL@@@@@ATL@@XZ 00410430 f i ServicesScanner.obj
 0001:0000f430       ?Name@CAuditDataFileItem@@QAE?AV?$CStringT@DV?$StrTraitMFC@DV?$ChTraitsCRT@D@ATL@@@@@ATL@@XZ 00410430 f i AlertTriggerScanner.obj
 0001:0000f430       ?Executable@CActiveProcess@@QAE?AV?$CStringT@DV?$StrTraitMFC@DV?$ChTraitsCRT@D@ATL@@@@@ATL@@XZ 00410430 f i ActiveProcessScanner1.obj
 0001:0000f430       ?RegistryKey@CRegistryMapping@@QAE?AV?$CStringT@DV?$StrTraitMFC@DV?$ChTraitsCRT@D@ATL@@@@@ATL@@XZ 00410430 f i ApplicationSerial.obj
 0001:0000f430       ?Value@CEnvironmentVariable@@QAE?AV?$CStringT@DV?$StrTraitMFC@DV?$ChTraitsCRT@D@ATL@@@@@ATL@@XZ 00410430 f i EnvironmentVariablesScanner.obj
 0001:0000f430       ?ApplicationName@CApplicationSerial@@QAE?AV?$CStringT@DV?$StrTraitMFC@DV?$ChTraitsCRT@D@ATL@@@@@ATL@@XZ 00410430 f i ApplicationInstance.obj
 0001:0000f430       ?Guid@CApplicationInstance@@QAE?AV?$CStringT@DV?$StrTraitMFC@DV?$ChTraitsCRT@D@ATL@@@@@ATL@@XZ 00410430 f i ApplicationInstance.obj
 0001:0000f448       ?Version@CApplicationInstance@@QAE?AV?$CStringT@DV?$StrTraitMFC@DV?$ChTraitsCRT@D@ATL@@@@@ATL@@XZ 00410448 f i ApplicationInstance.obj
 0001:0000f463       ?Empty@?$CDynaList@VCApplicationInstance@@@@QAEXXZ 00410463 f i ApplicationInstance.obj
 0001:0000f488       ?ContainsApplication@CApplicationInstanceList@@QAEPAVCApplicationInstance@@AAV?$CStringT@DV?$StrTraitMFC@DV?$ChTraitsCRT@D@ATL@@@@@ATL@@@Z 00410488 f   ApplicationInstance.obj
 0001:0000f4e9       ?ContainsGuid@CApplicationInstanceList@@QAEPAVCApplicationInstance@@AAV?$CStringT@DV?$StrTraitMFC@DV?$ChTraitsCRT@D@ATL@@@@@ATL@@@Z 004104e9 f   ApplicationInstance.obj
 0001:0000f54a       ??0CApplicationSerial@@QAE@ABV0@@Z 0041054a f i ApplicationInstance.obj
 0001:0000f5e8       ?Publisher@CApplicationInstance@@QAEXV?$CStringT@DV?$StrTraitMFC@DV?$ChTraitsCRT@D@ATL@@@@@ATL@@@Z 004105e8 f i ApplicationInstance.obj
 0001:0000f617       ?Serial@CApplicationInstance@@QAE?AVCApplicationSerial@@XZ 00410617 f i ApplicationInstance.obj
 0001:0000f632       ?Source@CApplicationInstance@@QAEXV?$CStringT@DV?$StrTraitMFC@DV?$ChTraitsCRT@D@ATL@@@@@ATL@@@Z 00410632 f i ApplicationInstance.obj
 0001:0000f661       ?Version@CApplicationInstance@@QAEXV?$CStringT@DV?$StrTraitMFC@DV?$ChTraitsCRT@D@ATL@@@@@ATL@@@Z 00410661 f i ApplicationInstance.obj
 0001:0000f690       ??4CApplicationSerial@@QAEAAV0@ABV0@@Z 00410690 f i ApplicationInstance.obj
 0001:0000f6e7       ??4CApplicationInstance@@QAEAAV0@ABV0@@Z 004106e7 f i ApplicationInstance.obj
 0001:0000f73e       ??0CApplicationInstance@@QAE@XZ 0041073e f   ApplicationInstance.obj
 0001:0000f7b9       ?GetApplicationName@CApplicationInstanceList@@IAE?AV?$CStringT@DV?$StrTraitMFC@DV?$ChTraitsCRT@D@ATL@@@@@ATL@@PAUHKEY__@@AAV23@1@Z 004107b9 f   ApplicationInstance.obj
 0001:0000f8a3       ?Serial@CApplicationInstance@@QAEXVCApplicationSerial@@@Z 004108a3 f i ApplicationInstance.obj
 0001:0000f8d3       ?Expand@?$CDynaList@VCApplicationInstance@@@@IAEXK@Z 004108d3 f i ApplicationInstance.obj
 0001:0000f9a3       ?IsInstalledApplication@CApplicationInstanceList@@IAEHPAUHKEY__@@AAV?$CStringT@DV?$StrTraitMFC@DV?$ChTraitsCRT@D@ATL@@@@@ATL@@@Z 004109a3 f   ApplicationInstance.obj
 0001:0000fb26       ?Add@?$CDynaList@VCApplicationInstance@@@@QAEKABVCApplicationInstance@@@Z 00410b26 f i ApplicationInstance.obj
 0001:0000fb57       ?AddApplicationInstance@CApplicationInstanceList@@QAEXV?$CStringT@DV?$StrTraitMFC@DV?$ChTraitsCRT@D@ATL@@@@@ATL@@0000@Z 00410b57 f   ApplicationInstance.obj
 0001:0000fe2d       ?ScanUninstallKey@CApplicationInstanceList@@IAEXPAUHKEY__@@@Z 00410e2d f   ApplicationInstance.obj
 0001:000100e4       ?ScanWindowsInstaller@CApplicationInstanceList@@IAEXPAUHKEY__@@@Z 004110e4 f   ApplicationInstance.obj
 0001:00010546       ?ScanExceptions@CApplicationInstanceList@@IAEXXZ 00411546 f   ApplicationInstance.obj
 0001:00010afc       ?Detect@CApplicationInstanceList@@QAEHPAVCAuditScannerConfiguration@@@Z 00411afc f   ApplicationInstance.obj
 0001:00010de2       ??0CApplicationRegistryMapping@@QAE@XZ 00411de2 f   ApplicationRegistryMapping.obj
 0001:00010e07       ??0CApplicationRegistryMapping@@QAE@AAV?$CStringT@DV?$StrTraitMFC@DV?$ChTraitsCRT@D@ATL@@@@@ATL@@@Z 00411e07 f   ApplicationRegistryMapping.obj
 0001:00010e51       ??0CRegistryMapping@@QAE@AAV?$CStringT@DV?$StrTraitMFC@DV?$ChTraitsCRT@D@ATL@@@@@ATL@@0@Z 00411e51 f i ApplicationRegistryMapping.obj
 0001:00010e97       ?Expand@?$CDynaList@VCRegistryMapping@@@@IAEXK@Z 00411e97 f i ApplicationRegistryMapping.obj
 0001:00010f5e       ?Add@?$CDynaList@VCRegistryMapping@@@@QAEKABVCRegistryMapping@@@Z 00411f5e f i ApplicationRegistryMapping.obj
 0001:00010f8f       ?AddMapping@CApplicationRegistryMapping@@QAEXAAV?$CStringT@DV?$StrTraitMFC@DV?$ChTraitsCRT@D@ATL@@@@@ATL@@0@Z 00411f8f f   ApplicationRegistryMapping.obj
 0001:00010fcb       ??8const_iterator@?$_Tree@V?$_Tmap_traits@V?$basic_string@DU?$char_traits@D@std@@V?$allocator@D@2@@std@@W4StringValue@@U?$less@V?$basic_string@DU?$char_traits@D@std@@V?$allocator@D@2@@std@@@2@V?$allocator@U?$pair@$$CBV?$basic_string@DU?$char_traits@D@std@@V?$allocator@D@2@@std@@W4StringValue@@@std@@@2@$0A@@std@@@std@@QBE_NABV012@@Z 00411fcb f i AlertDefinitionsFile.obj
 0001:00010fcb       ??8const_iterator@?$_Tree@V?$_Tmap_traits@V?$CStringT@DV?$StrTraitMFC@DV?$ChTraitsCRT@D@ATL@@@@@ATL@@V12@U?$less@V?$CStringT@DV?$StrTraitMFC@DV?$ChTraitsCRT@D@ATL@@@@@ATL@@@std@@V?$allocator@U?$pair@$$CBV?$CStringT@DV?$StrTraitMFC@DV?$ChTraitsCRT@D@ATL@@@@@ATL@@V12@@std@@@4@$0A@@std@@@std@@QBE_NABV012@@Z 00411fcb f i ApplicationSerial.obj
 0001:00010ff2       ?_Rrotate@?$_Tree@V?$_Tmap_traits@V?$CStringT@DV?$StrTraitMFC@DV?$ChTraitsCRT@D@ATL@@@@@ATL@@V12@U?$less@V?$CStringT@DV?$StrTraitMFC@DV?$ChTraitsCRT@D@ATL@@@@@ATL@@@std@@V?$allocator@U?$pair@$$CBV?$CStringT@DV?$StrTraitMFC@DV?$ChTraitsCRT@D@ATL@@@@@ATL@@V12@@std@@@4@$0A@@std@@@std@@IAEXPAU_Node@?$_Tree_nod@V?$_Tmap_traits@V?$CStringT@DV?$StrTraitMFC@DV?$ChTraitsCRT@D@ATL@@@@@ATL@@V12@U?$less@V?$CStringT@DV?$StrTraitMFC@DV?$ChTraitsCRT@D@ATL@@@@@ATL@@@std@@V?$allocator@U?$pair@$$CBV?$CStringT@DV?$StrTraitMFC@DV?$ChTraitsCRT@D@ATL@@@@@ATL@@V12@@std@@@4@$0A@@std@@@2@@Z 00411ff2 f i ApplicationSerial.obj
 0001:00011036       ?_Inc@const_iterator@?$_Tree@V?$_Tmap_traits@V?$CStringT@DV?$StrTraitMFC@DV?$ChTraitsCRT@D@ATL@@@@@ATL@@V12@U?$less@V?$CStringT@DV?$StrTraitMFC@DV?$ChTraitsCRT@D@ATL@@@@@ATL@@@std@@V?$allocator@U?$pair@$$CBV?$CStringT@DV?$StrTraitMFC@DV?$ChTraitsCRT@D@ATL@@@@@ATL@@V12@@std@@@4@$0A@@std@@@std@@QAEXXZ 00412036 f i ApplicationSerial.obj
 0001:00011085       ?InitHashTable@?$CMap@V?$CStringT@DV?$StrTraitMFC@DV?$ChTraitsCRT@D@ATL@@@@@ATL@@PBDV12@AAV12@@@QAEXIH@Z 00412085 f i ApplicationSerial.obj
 0001:000110e2       ?GetItemBinary_JML@CApplicationSerials@@IAEHPAUHKEY__@@PBD1AAVCByteArray@@@Z 004120e2 f   ApplicationSerial.obj
 0001:0001118e       ?_Dec@const_iterator@?$_Tree@V?$_Tmap_traits@V?$CStringT@DV?$StrTraitMFC@DV?$ChTraitsCRT@D@ATL@@@@@ATL@@V12@U?$less@V?$CStringT@DV?$StrTraitMFC@DV?$ChTraitsCRT@D@ATL@@@@@ATL@@@std@@V?$allocator@U?$pair@$$CBV?$CStringT@DV?$StrTraitMFC@DV?$ChTraitsCRT@D@ATL@@@@@ATL@@V12@@std@@@4@$0A@@std@@@std@@QAEXXZ 0041218e f i ApplicationSerial.obj
 0001:000111ef       ??0?$CMap@V?$CStringT@DV?$StrTraitMFC@DV?$ChTraitsCRT@D@ATL@@@@@ATL@@PBDV12@AAV12@@@QAE@H@Z 004121ef f i ApplicationSerial.obj
 0001:00011216       ??$_Allocate@U_Node@?$_Tree_nod@V?$_Tmap_traits@V?$CStringT@DV?$StrTraitMFC@DV?$ChTraitsCRT@D@ATL@@@@@ATL@@V12@U?$less@V?$CStringT@DV?$StrTraitMFC@DV?$ChTraitsCRT@D@ATL@@@@@ATL@@@std@@V?$allocator@U?$pair@$$CBV?$CStringT@DV?$StrTraitMFC@DV?$ChTraitsCRT@D@ATL@@@@@ATL@@V12@@std@@@4@$0A@@std@@@std@@@std@@YAPAU_Node@?$_Tree_nod@V?$_Tmap_traits@V?$CStringT@DV?$StrTraitMFC@DV?$ChTraitsCRT@D@ATL@@@@@ATL@@V12@U?$less@V?$CStringT@DV?$StrTraitMFC@DV?$ChTraitsCRT@D@ATL@@@@@ATL@@@std@@V?$allocator@U?$pair@$$CBV?$CStringT@DV?$StrTraitMFC@DV?$ChTraitsCRT@D@ATL@@@@@ATL@@V12@@std@@@4@$0A@@std@@@0@IPAU120@@Z 00412216 f i ApplicationSerial.obj
 0001:00011263       ?_Lrotate@?$_Tree@V?$_Tmap_traits@V?$CStringT@DV?$StrTraitMFC@DV?$ChTraitsCRT@D@ATL@@@@@ATL@@V12@U?$less@V?$CStringT@DV?$StrTraitMFC@DV?$ChTraitsCRT@D@ATL@@@@@ATL@@@std@@V?$allocator@U?$pair@$$CBV?$CStringT@DV?$StrTraitMFC@DV?$ChTraitsCRT@D@ATL@@@@@ATL@@V12@@std@@@4@$0A@@std@@@std@@IAEXPAU_Node@?$_Tree_nod@V?$_Tmap_traits@V?$CStringT@DV?$StrTraitMFC@DV?$ChTraitsCRT@D@ATL@@@@@ATL@@V12@U?$less@V?$CStringT@DV?$StrTraitMFC@DV?$ChTraitsCRT@D@ATL@@@@@ATL@@@std@@V?$allocator@U?$pair@$$CBV?$CStringT@DV?$StrTraitMFC@DV?$ChTraitsCRT@D@ATL@@@@@ATL@@V12@@std@@@4@$0A@@std@@@2@@Z 00412263 f i ApplicationSerial.obj
 0001:000112a5       ??$CompareElements@V?$CStringT@DV?$StrTraitMFC@DV?$ChTraitsCRT@D@ATL@@@@@ATL@@PBD@@YGHPBV?$CStringT@DV?$StrTraitMFC@DV?$ChTraitsCRT@D@ATL@@@@@ATL@@PBQBD@Z 004122a5 f i ApplicationSerial.obj
 0001:000112c9       ??MATL@@YA_NABV?$CStringT@DV?$StrTraitMFC@DV?$ChTraitsCRT@D@ATL@@@@@0@0@Z 004122c9 f i ApplicationSerial.obj
 0001:000112e2       ??1CPair@?$CMap@V?$CStringT@DV?$StrTraitMFC@DV?$ChTraitsCRT@D@ATL@@@@@ATL@@PBDV12@AAV12@@@QAE@XZ 004122e2 f i ApplicationSerial.obj
 0001:000112e2       ??1CEnvironmentVariable@@QAE@XZ 004122e2 f i EnvironmentVariablesScanner.obj
 0001:000112e2       ??1CPublisherMapping@@QAE@XZ 004122e2 f i PageScanning.obj
 0001:000112e2       ??1CActiveProcess@@QAE@XZ  004122e2 f i ActiveProcessScanner1.obj
 0001:000112e2       ??1?$pair@$$CBV?$CStringT@DV?$StrTraitMFC@DV?$ChTraitsCRT@D@ATL@@@@@ATL@@V12@@std@@QAE@XZ 004122e2 f i ApplicationSerial.obj
 0001:000112e2       ??1?$pair@V?$CStringT@DV?$StrTraitMFC@DV?$ChTraitsCRT@D@ATL@@@@@ATL@@V12@@std@@QAE@XZ 004122e2 f i ApplicationSerial.obj
 0001:000112e2       ??1CAlertTrigger@@QAE@XZ   004122e2 f i AlertDefinitionsFile.obj
 0001:000112e2       ??1CInstalledObject@@QAE@XZ 004122e2 f i ObjectScanner.obj
 0001:000112e2       ??1CPhysicalDisk@@QAE@XZ   004122e2 f i PhysicalDiskScanner.obj
 0001:000112e2       ??1CRegistryMapping@@QAE@XZ 004122e2 f i PageScanning.obj
 0001:000112e2       ??1CRegistryKey@@QAE@XZ    004122e2 f i RegistryScanner.obj
 0001:000112fb       ?GetAssocAt@?$CMap@V?$CStringT@DV?$StrTraitMFC@DV?$ChTraitsCRT@D@ATL@@@@@ATL@@PBDV12@AAV12@@@IBEPAVCAssoc@1@PBDAAI1@Z 004122fb f i ApplicationSerial.obj
 0001:0001134d       ??1CApplicationSerial@@QAE@XZ 0041234d f   ApplicationSerial.obj
 0001:00011391       ?_Buynode@?$_Tree@V?$_Tmap_traits@V?$CStringT@DV?$StrTraitMFC@DV?$ChTraitsCRT@D@ATL@@@@@ATL@@V12@U?$less@V?$CStringT@DV?$StrTraitMFC@DV?$ChTraitsCRT@D@ATL@@@@@ATL@@@std@@V?$allocator@U?$pair@$$CBV?$CStringT@DV?$StrTraitMFC@DV?$ChTraitsCRT@D@ATL@@@@@ATL@@V12@@std@@@4@$0A@@std@@@std@@IAEPAU_Node@?$_Tree_nod@V?$_Tmap_traits@V?$CStringT@DV?$StrTraitMFC@DV?$ChTraitsCRT@D@ATL@@@@@ATL@@V12@U?$less@V?$CStringT@DV?$StrTraitMFC@DV?$ChTraitsCRT@D@ATL@@@@@ATL@@@std@@V?$allocator@U?$pair@$$CBV?$CStringT@DV?$StrTraitMFC@DV?$ChTraitsCRT@D@ATL@@@@@ATL@@V12@@std@@@4@$0A@@std@@@2@XZ 00412391 f i ApplicationSerial.obj
 0001:000113bf       ??0?$_Container_base_aux_alloc_real@V?$allocator@U?$pair@$$CBV?$CStringT@DV?$StrTraitMFC@DV?$ChTraitsCRT@D@ATL@@@@@ATL@@V12@@std@@@std@@@std@@IAE@V?$allocator@U?$pair@$$CBV?$CStringT@DV?$StrTraitMFC@DV?$ChTraitsCRT@D@ATL@@@@@ATL@@V12@@std@@@1@@Z 004123bf f i ApplicationSerial.obj
 0001:000113bf       ??0?$_Container_base_aux_alloc_real@V?$allocator@U?$pair@$$CBV?$basic_string@DU?$char_traits@D@std@@V?$allocator@D@2@@std@@W4StringValue@@@std@@@std@@@std@@IAE@V?$allocator@U?$pair@$$CBV?$basic_string@DU?$char_traits@D@std@@V?$allocator@D@2@@std@@W4StringValue@@@std@@@1@@Z 004123bf f i AlertDefinitionsFile.obj
 0001:000113df       ??_ECApplicationSerial@@QAEPAXI@Z 004123df f i ApplicationSerial.obj
 0001:00011428       ??0?$pair@V?$CStringT@DV?$StrTraitMFC@DV?$ChTraitsCRT@D@ATL@@@@@ATL@@V12@@std@@QAE@ABV?$CStringT@DV?$StrTraitMFC@DV?$ChTraitsCRT@D@ATL@@@@@ATL@@0@Z 00412428 f i ApplicationSerial.obj
 0001:0001145a       ?_Init@?$_Tree@V?$_Tmap_traits@V?$CStringT@DV?$StrTraitMFC@DV?$ChTraitsCRT@D@ATL@@@@@ATL@@V12@U?$less@V?$CStringT@DV?$StrTraitMFC@DV?$ChTraitsCRT@D@ATL@@@@@ATL@@@std@@V?$allocator@U?$pair@$$CBV?$CStringT@DV?$StrTraitMFC@DV?$ChTraitsCRT@D@ATL@@@@@ATL@@V12@@std@@@4@$0A@@std@@@std@@IAEXXZ 0041245a f i ApplicationSerial.obj
 0001:0001147f       ??0?$pair@$$CBV?$CStringT@DV?$StrTraitMFC@DV?$ChTraitsCRT@D@ATL@@@@@ATL@@V12@@std@@QAE@ABU01@@Z 0041247f f i ApplicationSerial.obj
 0001:0001147f       ??$?0V?$CStringT@DV?$StrTraitMFC@DV?$ChTraitsCRT@D@ATL@@@@@ATL@@V01@@?$pair@$$CBV?$CStringT@DV?$StrTraitMFC@DV?$ChTraitsCRT@D@ATL@@@@@ATL@@V12@@std@@QAE@ABU?$pair@V?$CStringT@DV?$StrTraitMFC@DV?$ChTraitsCRT@D@ATL@@@@@ATL@@V12@@1@@Z 0041247f f i ApplicationSerial.obj
 0001:000114b3       ??0?$_Tmap_traits@V?$CStringT@DV?$StrTraitMFC@DV?$ChTraitsCRT@D@ATL@@@@@ATL@@V12@U?$less@V?$CStringT@DV?$StrTraitMFC@DV?$ChTraitsCRT@D@ATL@@@@@ATL@@@std@@V?$allocator@U?$pair@$$CBV?$CStringT@DV?$StrTraitMFC@DV?$ChTraitsCRT@D@ATL@@@@@ATL@@V12@@std@@@4@$0A@@std@@QAE@U?$less@V?$CStringT@DV?$StrTraitMFC@DV?$ChTraitsCRT@D@ATL@@@@@ATL@@@1@V?$allocator@U?$pair@$$CBV?$CStringT@DV?$StrTraitMFC@DV?$ChTraitsCRT@D@ATL@@@@@ATL@@V12@@std@@@1@@Z 004124b3 f i ApplicationSerial.obj
 0001:000114b3       ??0?$_Tmap_traits@V?$basic_string@DU?$char_traits@D@std@@V?$allocator@D@2@@std@@W4StringValue@@U?$less@V?$basic_string@DU?$char_traits@D@std@@V?$allocator@D@2@@std@@@2@V?$allocator@U?$pair@$$CBV?$basic_string@DU?$char_traits@D@std@@V?$allocator@D@2@@std@@W4StringValue@@@std@@@2@$0A@@std@@QAE@U?$less@V?$basic_string@DU?$char_traits@D@std@@V?$allocator@D@2@@std@@@1@V?$allocator@U?$pair@$$CBV?$basic_string@DU?$char_traits@D@std@@V?$allocator@D@2@@std@@W4StringValue@@@std@@@1@@Z 004124b3 f i AlertDefinitionsFile.obj
 0001:000114cd       ?NextDetectionTime@CWindowsUpdate@@QBE?AV?$CStringT@DV?$StrTraitMFC@DV?$ChTraitsCRT@D@ATL@@@@@ATL@@XZ 004124cd f i WindowsSecurityScanner.obj
 0001:000114cd       ?StartMode@CSystemService@@QAE?AV?$CStringT@DV?$StrTraitMFC@DV?$ChTraitsCRT@D@ATL@@@@@ATL@@XZ 004124cd f i ServicesScanner.obj
 0001:000114cd       ?Identifier@CApplicationSerial@@QAE?AV?$CStringT@DV?$StrTraitMFC@DV?$ChTraitsCRT@D@ATL@@@@@ATL@@XZ 004124cd f i ApplicationSerial.obj
 0001:000114cd       ?DisplayUnits@CAuditDataFileItem@@QAE?AV?$CStringT@DV?$StrTraitMFC@DV?$ChTraitsCRT@D@ATL@@@@@ATL@@XZ 004124cd f i AlertTriggerScanner.obj
 0001:000114cd       ?Name@CApplicationInstance@@QAE?AV?$CStringT@DV?$StrTraitMFC@DV?$ChTraitsCRT@D@ATL@@@@@ATL@@XZ 004124cd f i AlertTriggerScanner.obj
 0001:000114cd       ?VolumeName@CLogicalDrive@@QAE?AV?$CStringT@DV?$StrTraitMFC@DV?$ChTraitsCRT@D@ATL@@@@@ATL@@XZ 004124cd f i LogicalDriveScanner.obj
 0001:000114cd       ?ServicePack@CInstalledPatch@@QBE?AV?$CStringT@DV?$StrTraitMFC@DV?$ChTraitsCRT@D@ATL@@@@@ATL@@XZ 004124cd f i AuditDataFile.obj
 0001:000114e8       ?RegistryKey@CApplicationSerial@@QAE?AV?$CStringT@DV?$StrTraitMFC@DV?$ChTraitsCRT@D@ATL@@@@@ATL@@XZ 004124e8 f i ApplicationSerial.obj
 0001:000114e8       ?DriveLetter@CLogicalDrive@@QAE?AV?$CStringT@DV?$StrTraitMFC@DV?$ChTraitsCRT@D@ATL@@@@@ATL@@XZ 004124e8 f i LogicalDriveScanner.obj
 0001:000114e8       ?InstallDate@CInstalledPatch@@QBE?AV?$CStringT@DV?$StrTraitMFC@DV?$ChTraitsCRT@D@ATL@@@@@ATL@@XZ 004124e8 f i AuditDataFile.obj
 0001:00011503       ?Empty@?$CDynaList@VCApplicationSerial@@@@QAEXXZ 00412503 f i ApplicationSerial.obj
 0001:00011528       ??_G_Node@?$_Tree_nod@V?$_Tmap_traits@V?$CStringT@DV?$StrTraitMFC@DV?$ChTraitsCRT@D@ATL@@@@@ATL@@V12@U?$less@V?$CStringT@DV?$StrTraitMFC@DV?$ChTraitsCRT@D@ATL@@@@@ATL@@@std@@V?$allocator@U?$pair@$$CBV?$CStringT@DV?$StrTraitMFC@DV?$ChTraitsCRT@D@ATL@@@@@ATL@@V12@@std@@@4@$0A@@std@@@std@@QAEPAXI@Z 00412528 f i ApplicationSerial.obj
 0001:00011547       ?RemoveAll@?$CMap@V?$CStringT@DV?$StrTraitMFC@DV?$ChTraitsCRT@D@ATL@@@@@ATL@@PBDV12@AAV12@@@QAEXXZ 00412547 f i ApplicationSerial.obj
 0001:00011599       ?ContainsIdentifier@CApplicationSerials@@QAEPAVCApplicationSerial@@AAV?$CStringT@DV?$StrTraitMFC@DV?$ChTraitsCRT@D@ATL@@@@@ATL@@@Z 00412599 f   ApplicationSerial.obj
 0001:00011666       ??0_Node@?$_Tree_nod@V?$_Tmap_traits@V?$CStringT@DV?$StrTraitMFC@DV?$ChTraitsCRT@D@ATL@@@@@ATL@@V12@U?$less@V?$CStringT@DV?$StrTraitMFC@DV?$ChTraitsCRT@D@ATL@@@@@ATL@@@std@@V?$allocator@U?$pair@$$CBV?$CStringT@DV?$StrTraitMFC@DV?$ChTraitsCRT@D@ATL@@@@@ATL@@V12@@std@@@4@$0A@@std@@@std@@QAE@PAU012@00ABU?$pair@$$CBV?$CStringT@DV?$StrTraitMFC@DV?$ChTraitsCRT@D@ATL@@@@@ATL@@V12@@2@D@Z 00412666 f i ApplicationSerial.obj
 0001:00011699       ??0?$_Tree_nod@V?$_Tmap_traits@V?$basic_string@DU?$char_traits@D@std@@V?$allocator@D@2@@std@@W4StringValue@@U?$less@V?$basic_string@DU?$char_traits@D@std@@V?$allocator@D@2@@std@@@2@V?$allocator@U?$pair@$$CBV?$basic_string@DU?$char_traits@D@std@@V?$allocator@D@2@@std@@W4StringValue@@@std@@@2@$0A@@std@@@std@@IAE@ABU?$less@V?$basic_string@DU?$char_traits@D@std@@V?$allocator@D@2@@std@@@1@V?$allocator@U?$pair@$$CBV?$basic_string@DU?$char_traits@D@std@@V?$allocator@D@2@@std@@W4StringValue@@@std@@@1@@Z 00412699 f i AlertDefinitionsFile.obj
 0001:00011699       ??0?$_Tree_nod@V?$_Tmap_traits@V?$CStringT@DV?$StrTraitMFC@DV?$ChTraitsCRT@D@ATL@@@@@ATL@@V12@U?$less@V?$CStringT@DV?$StrTraitMFC@DV?$ChTraitsCRT@D@ATL@@@@@ATL@@@std@@V?$allocator@U?$pair@$$CBV?$CStringT@DV?$StrTraitMFC@DV?$ChTraitsCRT@D@ATL@@@@@ATL@@V12@@std@@@4@$0A@@std@@@std@@IAE@ABU?$less@V?$CStringT@DV?$StrTraitMFC@DV?$ChTraitsCRT@D@ATL@@@@@ATL@@@1@V?$allocator@U?$pair@$$CBV?$CStringT@DV?$StrTraitMFC@DV?$ChTraitsCRT@D@ATL@@@@@ATL@@V12@@std@@@1@@Z 00412699 f i ApplicationSerial.obj
 0001:000116ba       ??1?$CDynaList@VCApplicationSerial@@@@UAE@XZ 004126ba f i ApplicationSerial.obj
 0001:000116c5       ??_E?$CDynaList@VCApplicationSerial@@@@UAEPAXI@Z 004126c5 f i ApplicationSerial.obj
 0001:000116c5       ??_G?$CDynaList@VCApplicationSerial@@@@UAEPAXI@Z 004126c5 f i ApplicationSerial.obj
 0001:000116e7       ??1?$CMap@V?$CStringT@DV?$StrTraitMFC@DV?$ChTraitsCRT@D@ATL@@@@@ATL@@PBDV12@AAV12@@@UAE@XZ 004126e7 f i ApplicationSerial.obj
 0001:000116f2       ??_G?$CMap@V?$CStringT@DV?$StrTraitMFC@DV?$ChTraitsCRT@D@ATL@@@@@ATL@@PBDV12@AAV12@@@UAEPAXI@Z 004126f2 f i ApplicationSerial.obj
 0001:000116f2       ??_E?$CMap@V?$CStringT@DV?$StrTraitMFC@DV?$ChTraitsCRT@D@ATL@@@@@ATL@@PBDV12@AAV12@@@UAEPAXI@Z 004126f2 f i ApplicationSerial.obj
 0001:0001170e       ?_Buynode@?$_Tree@V?$_Tmap_traits@V?$CStringT@DV?$StrTraitMFC@DV?$ChTraitsCRT@D@ATL@@@@@ATL@@V12@U?$less@V?$CStringT@DV?$StrTraitMFC@DV?$ChTraitsCRT@D@ATL@@@@@ATL@@@std@@V?$allocator@U?$pair@$$CBV?$CStringT@DV?$StrTraitMFC@DV?$ChTraitsCRT@D@ATL@@@@@ATL@@V12@@std@@@4@$0A@@std@@@std@@IAEPAU_Node@?$_Tree_nod@V?$_Tmap_traits@V?$CStringT@DV?$StrTraitMFC@DV?$ChTraitsCRT@D@ATL@@@@@ATL@@V12@U?$less@V?$CStringT@DV?$StrTraitMFC@DV?$ChTraitsCRT@D@ATL@@@@@ATL@@@std@@V?$allocator@U?$pair@$$CBV?$CStringT@DV?$StrTraitMFC@DV?$ChTraitsCRT@D@ATL@@@@@ATL@@V12@@std@@@4@$0A@@std@@@2@PAU342@00ABU?$pair@$$CBV?$CStringT@DV?$StrTraitMFC@DV?$ChTraitsCRT@D@ATL@@@@@ATL@@V12@@2@D@Z 0041270e f i ApplicationSerial.obj
 0001:0001176c       ??0?$_Tree_ptr@V?$_Tmap_traits@V?$CStringT@DV?$StrTraitMFC@DV?$ChTraitsCRT@D@ATL@@@@@ATL@@V12@U?$less@V?$CStringT@DV?$StrTraitMFC@DV?$ChTraitsCRT@D@ATL@@@@@ATL@@@std@@V?$allocator@U?$pair@$$CBV?$CStringT@DV?$StrTraitMFC@DV?$ChTraitsCRT@D@ATL@@@@@ATL@@V12@@std@@@4@$0A@@std@@@std@@IAE@ABU?$less@V?$CStringT@DV?$StrTraitMFC@DV?$ChTraitsCRT@D@ATL@@@@@ATL@@@1@V?$allocator@U?$pair@$$CBV?$CStringT@DV?$StrTraitMFC@DV?$ChTraitsCRT@D@ATL@@@@@ATL@@V12@@std@@@1@@Z 0041276c f i ApplicationSerial.obj
 0001:0001176c       ??0?$_Tree_ptr@V?$_Tmap_traits@V?$basic_string@DU?$char_traits@D@std@@V?$allocator@D@2@@std@@W4StringValue@@U?$less@V?$basic_string@DU?$char_traits@D@std@@V?$allocator@D@2@@std@@@2@V?$allocator@U?$pair@$$CBV?$basic_string@DU?$char_traits@D@std@@V?$allocator@D@2@@std@@W4StringValue@@@std@@@2@$0A@@std@@@std@@IAE@ABU?$less@V?$basic_string@DU?$char_traits@D@std@@V?$allocator@D@2@@std@@@1@V?$allocator@U?$pair@$$CBV?$basic_string@DU?$char_traits@D@std@@V?$allocator@D@2@@std@@W4StringValue@@@std@@@1@@Z 0041276c f i AlertDefinitionsFile.obj
 0001:00011789       ??0length_error@std@@QAE@ABV?$basic_string@DU?$char_traits@D@std@@V?$allocator@D@2@@1@@Z 00412789 f i ApplicationSerial.obj
 0001:000117a1       ??1length_error@std@@UAE@XZ 004127a1 f i ApplicationSerial.obj
 0001:000117ac       ??_Elength_error@std@@UAEPAXI@Z 004127ac f i ApplicationSerial.obj
 0001:000117ac       ??_Glength_error@std@@UAEPAXI@Z 004127ac f i ApplicationSerial.obj
 0001:000117ce       ?RegistryKey@CApplicationSerial@@QAEXAAV?$CStringT@DV?$StrTraitMFC@DV?$ChTraitsCRT@D@ATL@@@@@ATL@@@Z 004127ce f i ApplicationSerial.obj
 0001:0001184d       ??0CApplicationSerial@@QAE@XZ 0041284d f   ApplicationSerial.obj
 0001:000118da       ?ContainsApplication@CApplicationSerials@@QAEPAVCApplicationSerial@@AAV?$CStringT@DV?$StrTraitMFC@DV?$ChTraitsCRT@D@ATL@@@@@ATL@@@Z 004128da f   ApplicationSerial.obj
 0001:00011a4f       ?Expand@?$CDynaList@VCApplicationSerial@@@@IAEXK@Z 00412a4f f i ApplicationSerial.obj
 0001:00011b1f       ?_Insert@?$_Tree@V?$_Tmap_traits@V?$CStringT@DV?$StrTraitMFC@DV?$ChTraitsCRT@D@ATL@@@@@ATL@@V12@U?$less@V?$CStringT@DV?$StrTraitMFC@DV?$ChTraitsCRT@D@ATL@@@@@ATL@@@std@@V?$allocator@U?$pair@$$CBV?$CStringT@DV?$StrTraitMFC@DV?$ChTraitsCRT@D@ATL@@@@@ATL@@V12@@std@@@4@$0A@@std@@@std@@IAE?AViterator@12@_NPAU_Node@?$_Tree_nod@V?$_Tmap_traits@V?$CStringT@DV?$StrTraitMFC@DV?$ChTraitsCRT@D@ATL@@@@@ATL@@V12@U?$less@V?$CStringT@DV?$StrTraitMFC@DV?$ChTraitsCRT@D@ATL@@@@@ATL@@@std@@V?$allocator@U?$pair@$$CBV?$CStringT@DV?$StrTraitMFC@DV?$ChTraitsCRT@D@ATL@@@@@ATL@@V12@@std@@@4@$0A@@std@@@2@ABU?$pair@$$CBV?$CStringT@DV?$StrTraitMFC@DV?$ChTraitsCRT@D@ATL@@@@@ATL@@V12@@2@@Z 00412b1f f i ApplicationSerial.obj
 0001:00011c7a       ??0length_error@std@@QAE@ABV01@@Z 00412c7a f i ApplicationSerial.obj
 0001:00011c92       ??0?$_Tree_val@V?$_Tmap_traits@V?$basic_string@DU?$char_traits@D@std@@V?$allocator@D@2@@std@@W4StringValue@@U?$less@V?$basic_string@DU?$char_traits@D@std@@V?$allocator@D@2@@std@@@2@V?$allocator@U?$pair@$$CBV?$basic_string@DU?$char_traits@D@std@@V?$allocator@D@2@@std@@W4StringValue@@@std@@@2@$0A@@std@@@std@@IAE@ABU?$less@V?$basic_string@DU?$char_traits@D@std@@V?$allocator@D@2@@std@@@1@V?$allocator@U?$pair@$$CBV?$basic_string@DU?$char_traits@D@std@@V?$allocator@D@2@@std@@W4StringValue@@@std@@@1@@Z 00412c92 f i AlertDefinitionsFile.obj
 0001:00011c92       ??0?$_Tree_val@V?$_Tmap_traits@V?$CStringT@DV?$StrTraitMFC@DV?$ChTraitsCRT@D@ATL@@@@@ATL@@V12@U?$less@V?$CStringT@DV?$StrTraitMFC@DV?$ChTraitsCRT@D@ATL@@@@@ATL@@@std@@V?$allocator@U?$pair@$$CBV?$CStringT@DV?$StrTraitMFC@DV?$ChTraitsCRT@D@ATL@@@@@ATL@@V12@@std@@@4@$0A@@std@@@std@@IAE@ABU?$less@V?$CStringT@DV?$StrTraitMFC@DV?$ChTraitsCRT@D@ATL@@@@@ATL@@@1@V?$allocator@U?$pair@$$CBV?$CStringT@DV?$StrTraitMFC@DV?$ChTraitsCRT@D@ATL@@@@@ATL@@V12@@std@@@1@@Z 00412c92 f i ApplicationSerial.obj
 0001:00011caf       ?erase@?$_Tree@V?$_Tmap_traits@V?$CStringT@DV?$StrTraitMFC@DV?$ChTraitsCRT@D@ATL@@@@@ATL@@V12@U?$less@V?$CStringT@DV?$StrTraitMFC@DV?$ChTraitsCRT@D@ATL@@@@@ATL@@@std@@V?$allocator@U?$pair@$$CBV?$CStringT@DV?$StrTraitMFC@DV?$ChTraitsCRT@D@ATL@@@@@ATL@@V12@@std@@@4@$0A@@std@@@std@@QAE?AViterator@12@Vconst_iterator@12@@Z 00412caf f i ApplicationSerial.obj
 0001:00011f3d       ?_Erase@?$_Tree@V?$_Tmap_traits@V?$CStringT@DV?$StrTraitMFC@DV?$ChTraitsCRT@D@ATL@@@@@ATL@@V12@U?$less@V?$CStringT@DV?$StrTraitMFC@DV?$ChTraitsCRT@D@ATL@@@@@ATL@@@std@@V?$allocator@U?$pair@$$CBV?$CStringT@DV?$StrTraitMFC@DV?$ChTraitsCRT@D@ATL@@@@@ATL@@V12@@std@@@4@$0A@@std@@@std@@IAEXPAU_Node@?$_Tree_nod@V?$_Tmap_traits@V?$CStringT@DV?$StrTraitMFC@DV?$ChTraitsCRT@D@ATL@@@@@ATL@@V12@U?$less@V?$CStringT@DV?$StrTraitMFC@DV?$ChTraitsCRT@D@ATL@@@@@ATL@@@std@@V?$allocator@U?$pair@$$CBV?$CStringT@DV?$StrTraitMFC@DV?$ChTraitsCRT@D@ATL@@@@@ATL@@V12@@std@@@4@$0A@@std@@@2@@Z 00412f3d f i ApplicationSerial.obj
 0001:00011f78       ??0CPair@?$CMap@V?$CStringT@DV?$StrTraitMFC@DV?$ChTraitsCRT@D@ATL@@@@@ATL@@PBDV12@AAV12@@@IAE@PBD@Z 00412f78 f i ApplicationSerial.obj
 0001:00011f92       ?GetDigitalProductId@CApplicationSerials@@IAE?AV?$CStringT@DV?$StrTraitMFC@DV?$ChTraitsCRT@D@ATL@@@@@ATL@@AAV23@@Z 00412f92 f   ApplicationSerial.obj
 0001:000121a8       ?IsSerialNumber@CApplicationSerials@@IAEHAAV?$CStringT@DV?$StrTraitMFC@DV?$ChTraitsCRT@D@ATL@@@@@ATL@@@Z 004131a8 f   ApplicationSerial.obj
 0001:00012259       ?Add@?$CDynaList@VCApplicationSerial@@@@QAEKABVCApplicationSerial@@@Z 00413259 f i ApplicationSerial.obj
 0001:0001228a       ?insert@?$_Tree@V?$_Tmap_traits@V?$CStringT@DV?$StrTraitMFC@DV?$ChTraitsCRT@D@ATL@@@@@ATL@@V12@U?$less@V?$CStringT@DV?$StrTraitMFC@DV?$ChTraitsCRT@D@ATL@@@@@ATL@@@std@@V?$allocator@U?$pair@$$CBV?$CStringT@DV?$StrTraitMFC@DV?$ChTraitsCRT@D@ATL@@@@@ATL@@V12@@std@@@4@$0A@@std@@@std@@QAE?AU?$pair@Viterator@?$_Tree@V?$_Tmap_traits@V?$CStringT@DV?$StrTraitMFC@DV?$ChTraitsCRT@D@ATL@@@@@ATL@@V12@U?$less@V?$CStringT@DV?$StrTraitMFC@DV?$ChTraitsCRT@D@ATL@@@@@ATL@@@std@@V?$allocator@U?$pair@$$CBV?$CStringT@DV?$StrTraitMFC@DV?$ChTraitsCRT@D@ATL@@@@@ATL@@V12@@std@@@4@$0A@@std@@@std@@_N@2@ABU?$pair@$$CBV?$CStringT@DV?$StrTraitMFC@DV?$ChTraitsCRT@D@ATL@@@@@ATL@@V12@@2@@Z 0041328a f i ApplicationSerial.obj
 0001:00012357       ??0?$_Tree@V?$_Tmap_traits@V?$CStringT@DV?$StrTraitMFC@DV?$ChTraitsCRT@D@ATL@@@@@ATL@@V12@U?$less@V?$CStringT@DV?$StrTraitMFC@DV?$ChTraitsCRT@D@ATL@@@@@ATL@@@std@@V?$allocator@U?$pair@$$CBV?$CStringT@DV?$StrTraitMFC@DV?$ChTraitsCRT@D@ATL@@@@@ATL@@V12@@std@@@4@$0A@@std@@@std@@QAE@ABU?$less@V?$CStringT@DV?$StrTraitMFC@DV?$ChTraitsCRT@D@ATL@@@@@ATL@@@1@ABV?$allocator@U?$pair@$$CBV?$CStringT@DV?$StrTraitMFC@DV?$ChTraitsCRT@D@ATL@@@@@ATL@@V12@@std@@@1@@Z 00413357 f i ApplicationSerial.obj
 0001:0001238c       ?clear@?$_Tree@V?$_Tmap_traits@V?$CStringT@DV?$StrTraitMFC@DV?$ChTraitsCRT@D@ATL@@@@@ATL@@V12@U?$less@V?$CStringT@DV?$StrTraitMFC@DV?$ChTraitsCRT@D@ATL@@@@@ATL@@@std@@V?$allocator@U?$pair@$$CBV?$CStringT@DV?$StrTraitMFC@DV?$ChTraitsCRT@D@ATL@@@@@ATL@@V12@@std@@@4@$0A@@std@@@std@@QAEXXZ 0041338c f i ApplicationSerial.obj
 0001:000123b2       ?FindAllProductSerials@CApplicationSerials@@IAEXPAUHKEY__@@AAV?$CStringT@DV?$StrTraitMFC@DV?$ChTraitsCRT@D@ATL@@@@@ATL@@@Z 004133b2 f   ApplicationSerial.obj
 0001:00012750       ?ReadSerials@CApplicationSerials@@IAEXPAVCAuditScannerConfiguration@@@Z 00413750 f   ApplicationSerial.obj
 0001:000129af       ?Add@?$Dictionary@V?$CStringT@DV?$StrTraitMFC@DV?$ChTraitsCRT@D@ATL@@@@@ATL@@V12@@@QAEXV?$CStringT@DV?$StrTraitMFC@DV?$ChTraitsCRT@D@ATL@@@@@ATL@@0@Z 004139af f i ApplicationSerial.obj
 0001:00012a23       ?erase@?$_Tree@V?$_Tmap_traits@V?$CStringT@DV?$StrTraitMFC@DV?$ChTraitsCRT@D@ATL@@@@@ATL@@V12@U?$less@V?$CStringT@DV?$StrTraitMFC@DV?$ChTraitsCRT@D@ATL@@@@@ATL@@@std@@V?$allocator@U?$pair@$$CBV?$CStringT@DV?$StrTraitMFC@DV?$ChTraitsCRT@D@ATL@@@@@ATL@@V12@@std@@@4@$0A@@std@@@std@@QAE?AViterator@12@Vconst_iterator@12@0@Z 00413a23 f i ApplicationSerial.obj
 0001:00012acf       ?NewAssoc@?$CMap@V?$CStringT@DV?$StrTraitMFC@DV?$ChTraitsCRT@D@ATL@@@@@ATL@@PBDV12@AAV12@@@IAEPAVCAssoc@1@PBD@Z 00413acf f i ApplicationSerial.obj
 0001:00012b61       ?FillGuidDictionary@CApplicationSerials@@IAEXXZ 00413b61 f   ApplicationSerial.obj
 0001:00012e1b       ?_Tidy@?$_Tree@V?$_Tmap_traits@V?$CStringT@DV?$StrTraitMFC@DV?$ChTraitsCRT@D@ATL@@@@@ATL@@V12@U?$less@V?$CStringT@DV?$StrTraitMFC@DV?$ChTraitsCRT@D@ATL@@@@@ATL@@@std@@V?$allocator@U?$pair@$$CBV?$CStringT@DV?$StrTraitMFC@DV?$ChTraitsCRT@D@ATL@@@@@ATL@@V12@@std@@@4@$0A@@std@@@std@@IAEXXZ 00413e1b f i ApplicationSerial.obj
 0001:00012e69       ??A?$CMap@V?$CStringT@DV?$StrTraitMFC@DV?$ChTraitsCRT@D@ATL@@@@@ATL@@PBDV12@AAV12@@@QAEAAV?$CStringT@DV?$StrTraitMFC@DV?$ChTraitsCRT@D@ATL@@@@@ATL@@PBD@Z 00413e69 f i ApplicationSerial.obj
 0001:00012ece       ?Detect@CApplicationSerials@@QAEHPAVCAuditScannerConfiguration@@@Z 00413ece f   ApplicationSerial.obj
 0001:00012fcf       ??1?$_Tree@V?$_Tmap_traits@V?$CStringT@DV?$StrTraitMFC@DV?$ChTraitsCRT@D@ATL@@@@@ATL@@V12@U?$less@V?$CStringT@DV?$StrTraitMFC@DV?$ChTraitsCRT@D@ATL@@@@@ATL@@@std@@V?$allocator@U?$pair@$$CBV?$CStringT@DV?$StrTraitMFC@DV?$ChTraitsCRT@D@ATL@@@@@ATL@@V12@@std@@@4@$0A@@std@@@std@@QAE@XZ 00413fcf f i ApplicationSerial.obj
 0001:00012ff7       ??0?$map@V?$CStringT@DV?$StrTraitMFC@DV?$ChTraitsCRT@D@ATL@@@@@ATL@@V12@U?$less@V?$CStringT@DV?$StrTraitMFC@DV?$ChTraitsCRT@D@ATL@@@@@ATL@@@std@@V?$allocator@U?$pair@$$CBV?$CStringT@DV?$StrTraitMFC@DV?$ChTraitsCRT@D@ATL@@@@@ATL@@V12@@std@@@4@@std@@QAE@XZ 00413ff7 f i ApplicationSerial.obj
 0001:00013010       ?Serialize@?$CMap@V?$CStringT@DV?$StrTraitMFC@DV?$ChTraitsCRT@D@ATL@@@@@ATL@@PBDV12@AAV12@@@UAEXAAVCArchive@@@Z 00414010 f i ApplicationSerial.obj
 0001:00013123       ??0?$Dictionary@V?$CStringT@DV?$StrTraitMFC@DV?$ChTraitsCRT@D@ATL@@@@@ATL@@V12@@@QAE@XZ 00414123 f i ApplicationSerial.obj
 0001:00013138       ??1?$Dictionary@V?$CStringT@DV?$StrTraitMFC@DV?$ChTraitsCRT@D@ATL@@@@@ATL@@V12@@@UAE@XZ 00414138 f i ApplicationSerial.obj
 0001:00013146       ??_E?$Dictionary@V?$CStringT@DV?$StrTraitMFC@DV?$ChTraitsCRT@D@ATL@@@@@ATL@@V12@@@UAEPAXI@Z 00414146 f i ApplicationSerial.obj
 0001:00013146       ??_G?$Dictionary@V?$CStringT@DV?$StrTraitMFC@DV?$ChTraitsCRT@D@ATL@@@@@ATL@@V12@@@UAEPAXI@Z 00414146 f i ApplicationSerial.obj
 0001:0001316b       ??0CApplicationSerials@@QAE@XZ 0041416b f   ApplicationSerial.obj
 0001:00013e17       ??1CApplicationSerials@@QAE@XZ 00414e17 f   ApplicationSerial.obj
 0001:00013ea0       ??0CAssetType@@QAE@XZ      00414ea0 f   AssetType.obj
 0001:00014082       ?FindAuditDataCategory@CAuditDataFile@@QAEPAVCAuditDataFileCategory@@PBD@Z 00415082 f   AuditDataFile.obj
 0001:000140bd       ?WriteUserDefinedDataItems@CAuditDataFile@@IAEXXZ 004150bd f   AuditDataFile.obj
 0001:000141b3       ?GetChildAttrib@CMarkup@@QBE?AV?$CStringT@DV?$StrTraitMFC@DV?$ChTraitsCRT@D@ATL@@@@@ATL@@PBD@Z 004151b3 f i AuditDataFile.obj
 0001:000141d0       ?GetChildAttribAsBoolean@CMarkup@@QBE_NPBD_N@Z 004151d0 f i AuditDataFile.obj
 0001:0001422f       ?GetChildAttribAsInt@CMarkup@@QBEHPBDH@Z 0041522f f i AuditDataFile.obj
 0001:000142a1       ?Publisher@CApplicationInstance@@QAE?AV?$CStringT@DV?$StrTraitMFC@DV?$ChTraitsCRT@D@ATL@@@@@ATL@@XZ 004152a1 f i ApplicationInstance.obj
 0001:000142a1       ?Name@CInstalledPatch@@QBE?AV?$CStringT@DV?$StrTraitMFC@DV?$ChTraitsCRT@D@ATL@@@@@ATL@@XZ 004152a1 f i AuditDataFile.obj
 0001:000142a1       ?Description@CUserAccount@@QBE?AV?$CStringT@DV?$StrTraitMFC@DV?$ChTraitsCRT@D@ATL@@@@@ATL@@XZ 004152a1 f i UsersScanner.obj
 0001:000142a1       ?FileSystem@CLogicalDrive@@QAE?AV?$CStringT@DV?$StrTraitMFC@DV?$ChTraitsCRT@D@ATL@@@@@ATL@@XZ 004152a1 f i LogicalDriveScanner.obj
 0001:000142a1       ?ScheduledInstallDate@CWindowsUpdate@@QBE?AV?$CStringT@DV?$StrTraitMFC@DV?$ChTraitsCRT@D@ATL@@@@@ATL@@XZ 004152a1 f i WindowsSecurityScanner.obj
 0001:000142bc       ?Installer@CInstalledPatch@@QBE?AV?$CStringT@DV?$StrTraitMFC@DV?$ChTraitsCRT@D@ATL@@@@@ATL@@XZ 004152bc f i AuditDataFile.obj
 0001:000142d7       ?ShortName@CFileSystemFolder@@QAE?AV?$CStringT@DV?$StrTraitMFC@DV?$ChTraitsCRT@D@ATL@@@@@ATL@@XZ 004152d7 f i AuditDataFile.obj
 0001:00014310       ?FindAuditDataItem@CAuditDataFileCategory@@QAEPAVCAuditDataFileItem@@PBD@Z 00415310 f   AuditDataFile.obj
 0001:00014382       ?WriteAuditedItems@CAuditDataFile@@IAEXXZ 00415382 f   AuditDataFile.obj
 0001:0001487d       ?WriteInternetItems@CAuditDataFile@@IAEXXZ 0041587d f   AuditDataFile.obj
 0001:00014aac       ?WriteFileSystemFiles@CAuditDataFile@@IAEXPAVCFileSystemFolder@@@Z 00415aac f   AuditDataFile.obj
 0001:00014c49       ??1?$CDynaList@VCApplicationInstance@@@@UAE@XZ 00415c49 f i AuditDataFile.obj
 0001:00014c54       ??_G?$CDynaList@VCApplicationInstance@@@@UAEPAXI@Z 00415c54 f i AuditDataFile.obj
 0001:00014c54       ??_E?$CDynaList@VCApplicationInstance@@@@UAEPAXI@Z 00415c54 f i AuditDataFile.obj
 0001:00014c76       ?ProcessGeneralElementRead@CAuditDataFile@@IAEXVCMarkup@@@Z 00415c76 f   AuditDataFile.obj
 0001:00014ed0       ?ProcessOSItems@CAuditDataFile@@IAEXVCMarkup@@@Z 00415ed0 f   AuditDataFile.obj
 0001:00015080       ?WriteFileSystemFolder@CAuditDataFile@@IAEXPAVCFileSystemFolder@@@Z 00416080 f   AuditDataFile.obj
 0001:00015123       ?Value@CAuditDataFileItem@@QAEXV?$CStringT@DV?$StrTraitMFC@DV?$ChTraitsCRT@D@ATL@@@@@ATL@@@Z 00416123 f i AuditDataFile.obj
 0001:00015152       ??0CAuditDataFileItem@@QAE@PBD00W4eDATATYPE@0@H@Z 00416152 f   AuditDataFile.obj
 0001:000151b8       ??0CAuditDataFileItem@@QAE@PBDK0W4eDATATYPE@0@H@Z 004161b8 f   AuditDataFile.obj
 0001:00015250       ?WriteAuditedApplications@CAuditDataFile@@IAEXXZ 00416250 f   AuditDataFile.obj
 0001:0001551c       ?WriteFileSystem@CAuditDataFile@@IAEXXZ 0041651c f   AuditDataFile.obj
 0001:0001562b       ?Empty@?$CDynaList@VCAuditDataFileCategory@@@@QAEXXZ 0041662b f i AuditDataFile.obj
 0001:00015650       ?Clean@CAuditDataFile@@QAEXXZ 00416650 f   AuditDataFile.obj
 0001:000156a1       ?ProcessApplication@CAuditDataFile@@IAEXVCMarkup@@@Z 004166a1 f   AuditDataFile.obj
 0001:00015858       ??1?$CDynaList@VCAuditDataFileCategory@@@@UAE@XZ 00416858 f i AuditDataFile.obj
 0001:00015863       ??_E?$CDynaList@VCAuditDataFileCategory@@@@UAEPAXI@Z 00416863 f i AuditDataFile.obj
 0001:00015863       ??_G?$CDynaList@VCAuditDataFileCategory@@@@UAEPAXI@Z 00416863 f i AuditDataFile.obj
 0001:00015885       ??0CAuditDataFile@@QAE@XZ  00416885 f   AuditDataFile.obj
 0001:00015993       ??1CAuditDataFile@@QAE@XZ  00416993 f   AuditDataFile.obj
 0001:00015ade       ?ProcessInternetItem@CAuditDataFile@@IAEXVCMarkup@@@Z 00416ade f   AuditDataFile.obj
 0001:00015c18       ?ProcessAuditedItem@CAuditDataFile@@IAEXVCMarkup@@@Z 00416c18 f   AuditDataFile.obj
 0001:00015d7d       ?ProcessApplications@CAuditDataFile@@IAEXVCMarkup@@@Z 00416d7d f   AuditDataFile.obj
 0001:00015e31       ?WriteGeneral@CAuditDataFile@@IAEXXZ 00416e31 f   AuditDataFile.obj
 0001:00015fd0       ?ProcessAuditedItems@CAuditDataFile@@IAEXVCMarkup@@@Z 00416fd0 f   AuditDataFile.obj
 0001:0001605b       ?ProcessInternetItems@CAuditDataFile@@IAEXVCMarkup@@@Z 0041705b f   AuditDataFile.obj
 0001:000160e6       ?Write@CAuditDataFile@@QAEHAAV?$CStringT@DV?$StrTraitMFC@DV?$ChTraitsCRT@D@ATL@@@@@ATL@@@Z 004170e6 f   AuditDataFile.obj
 0001:000161c6       ?ProcessElementRead@CAuditDataFile@@IAEXVCMarkup@@@Z 004171c6 f   AuditDataFile.obj
 0001:000162c9       ?Load@CAuditDataFile@@QAEHPBD@Z 004172c9 f   AuditDataFile.obj
 0001:000163fb       ?LogException@CAuditDataScanner@@IAEXPAVCException@@PBD@Z 004173fb f   AuditDataScanner.obj
 0001:00016470       ?Scan@CAuditDataScanner@@UAE_NPAVCWMIScanner@@@Z 00417470 f   AuditDataScanner.obj
 0001:0001653d       ??0CAuditDataScanner@@QAE@XZ 0041753d f   AuditDataScanner.obj
 0001:00016618       ??1CAuditDataScanner@@UAE@XZ 00417618 f   AuditDataScanner.obj
 0001:00016629       ??_ECAuditDataScanner@@UAEPAXI@Z 00417629 f i AuditDataScanner.obj
 0001:00016629       ??_GCAuditDataScanner@@UAEPAXI@Z 00417629 f i AuditDataScanner.obj
 0001:00016645       ?Find@?$CDynaList@V?$CStringT@DV?$StrTraitMFC@DV?$ChTraitsCRT@D@ATL@@@@@ATL@@@@QBEKABV?$CStringT@DV?$StrTraitMFC@DV?$ChTraitsCRT@D@ATL@@@@@ATL@@@Z 00417645 f i AuditScannerConfiguration.obj
 0001:00016678       ?InputCase@CUserDataField@@QAEXAAV?$CStringT@DV?$StrTraitMFC@DV?$ChTraitsCRT@D@ATL@@@@@ATL@@@Z 00417678 f i AuditScannerConfiguration.obj
 0001:000166e0       ?RationalizePublisherName@CAuditScannerConfiguration@@QAE?AV?$CStringT@DV?$StrTraitMFC@DV?$ChTraitsCRT@D@ATL@@@@@ATL@@AAV23@@Z 004176e0 f   AuditScannerConfiguration.obj
 0001:00016700       ?AlertMonitorEnabled@CAuditScannerConfiguration@@QAEHAAV?$CStringT@DV?$StrTraitMFC@DV?$ChTraitsCRT@D@ATL@@@@@ATL@@@Z 00417700 f   AuditScannerConfiguration.obj
 0001:00016745       ?Expand@?$CDynaList@VCUserDataField@@@@IAEXK@Z 00417745 f i AuditScannerConfiguration.obj
 0001:00016815       ?Expand@?$CDynaList@VCPicklist@@@@IAEXK@Z 00417815 f i AuditScannerConfiguration.obj
 0001:000168f5       ?Add@?$CDynaList@VCUserDataField@@@@QAEKABVCUserDataField@@@Z 004178f5 f i AuditScannerConfiguration.obj
 0001:00016926       ?Expand@?$CDynaList@VCUserDataCategory@@@@IAEXK@Z 00417926 f i AuditScannerConfiguration.obj
 0001:00016a06       ?Add@?$CDynaList@VCPicklist@@@@QAEKABVCPicklist@@@Z 00417a06 f i AuditScannerConfiguration.obj
 0001:00016a37       ?Add@?$CDynaList@VCUserDataCategory@@@@QAEKABVCUserDataCategory@@@Z 00417a37 f i AuditScannerConfiguration.obj
 0001:00016a68       ?InitializeDefaults@CAuditScannerConfiguration@@IAEXXZ 00417a68 f   AuditScannerConfiguration.obj
 0001:00016d0d       ?Expand@?$CDynaList@VCAuditLocation@@@@IAEXK@Z 00417d0d f i AuditScannerConfiguration.obj
 0001:00016ded       ??0CAuditScannerConfiguration@@QAE@XZ 00417ded f   AuditScannerConfiguration.obj
 0001:00016fb9       ?Add@?$CDynaList@VCAuditLocation@@@@QAEKABVCAuditLocation@@@Z 00417fb9 f i AuditScannerConfiguration.obj
 0001:00016fea       ?Expand@?$CDynaList@VCApplicationRegistryMapping@@@@IAEXK@Z 00417fea f i AuditScannerConfiguration.obj
 0001:000170ba       ?Add@?$CDynaList@VCApplicationRegistryMapping@@@@QAEKABVCApplicationRegistryMapping@@@Z 004180ba f i AuditScannerConfiguration.obj
 0001:000170eb       ?DeserializeScannerConfiguration@CAuditScannerConfiguration@@IAEXVCMarkup@@@Z 004180eb f   AuditScannerConfiguration.obj
 0001:00018a96       ?Load@CAuditScannerConfiguration@@QAEHPBD@Z 00419a96 f   AuditScannerConfiguration.obj
 0001:00018d5e       ?VariableExists@CEnvironmentVariablesScanner@@IAEHAAV?$CStringT@DV?$StrTraitMFC@DV?$ChTraitsCRT@D@ATL@@@@@ATL@@@Z 00419d5e f   EnvironmentVariablesScanner.obj
 0001:00018dad       ??1?$CDynaList@VCEnvironmentVariable@@@@UAE@XZ 00419dad f i EnvironmentVariablesScanner.obj
 0001:00018db8       ??_E?$CDynaList@VCEnvironmentVariable@@@@UAEPAXI@Z 00419db8 f i EnvironmentVariablesScanner.obj
 0001:00018db8       ??_G?$CDynaList@VCEnvironmentVariable@@@@UAEPAXI@Z 00419db8 f i EnvironmentVariablesScanner.obj
 0001:00018dda       ??1CEnvironmentVariablesScanner@@UAE@XZ 00419dda f   EnvironmentVariablesScanner.obj
 0001:00018df9       ??4CPublisherMapping@@QAEAAV0@ABV0@@Z 00419df9 f i PageScanning.obj
 0001:00018df9       ??4CRegistryKey@@QAEAAV0@ABV0@@Z 00419df9 f i RegistryScanner.obj
 0001:00018df9       ??4CEnvironmentVariable@@QAEAAV0@ABV0@@Z 00419df9 f i EnvironmentVariablesScanner.obj
 0001:00018df9       ??4CRegistryMapping@@QAEAAV0@ABV0@@Z 00419df9 f i PageScanning.obj
 0001:00018df9       ??4CInstalledObject@@QAEAAV0@ABV0@@Z 00419df9 f i ObjectScanner.obj
 0001:00018e1a       ??0CEnvironmentVariablesScanner@@QAE@XZ 00419e1a f   EnvironmentVariablesScanner.obj
 0001:00018e64       ??_GCEnvironmentVariablesScanner@@UAEPAXI@Z 00419e64 f i EnvironmentVariablesScanner.obj
 0001:00018e64       ??_ECEnvironmentVariablesScanner@@UAEPAXI@Z 00419e64 f i EnvironmentVariablesScanner.obj
 0001:00018e80       ?ScanWMI@CEnvironmentVariablesScanner@@UAE_NPAVCWMIScanner@@@Z 00419e80 f   EnvironmentVariablesScanner.obj
 0001:00018fe0       ?ScanVariables@CEnvironmentVariablesScanner@@IAEHXZ 00419fe0 f   EnvironmentVariablesScanner.obj
 0001:000190e9       ?ScanRegistryXP@CEnvironmentVariablesScanner@@UAE_NXZ 0041a0e9 f   EnvironmentVariablesScanner.obj
 0001:000190e9       ?ScanRegistry9X@CEnvironmentVariablesScanner@@UAE_NXZ 0041a0e9 f   EnvironmentVariablesScanner.obj
 0001:000190e9       ?ScanRegistryNT@CEnvironmentVariablesScanner@@UAE_NXZ 0041a0e9 f   EnvironmentVariablesScanner.obj
 0001:0001911b       ?SaveData@CEnvironmentVariablesScanner@@UAE_NPAVCAuditDataFile@@@Z 0041a11b f   EnvironmentVariablesScanner.obj
 0001:00019268       ?strchr@@YAPADPADH@Z       0041a268 f i ExplorerCache.obj
 0001:0001926d       ??0CTime@ATL@@QAE@ABU_SYSTEMTIME@@H@Z 0041a26d f i ExplorerCache.obj
 0001:000192c8       ??0CTime@ATL@@QAE@ABU_FILETIME@@H@Z 0041a2c8 f i ExplorerCache.obj
 0001:00019326       ?GetHour@CTime@ATL@@QBEHXZ 0041a326 f i FileSystemScanner.obj
 0001:00019342       ?GetMinute@CTime@ATL@@QBEHXZ 0041a342 f i FileSystemScanner.obj
 0001:0001935e       ?GetSecond@CTime@ATL@@QBEHXZ 0041a35e f i FileSystemScanner.obj
 0001:00019379       ?HasFiles@CFileSystemFolder@@QAEHXZ 0041a379 f   FileSystemScanner.obj
 0001:000193a8       ?Save@CFileSystemScanner@@QAE_NPAVCAuditDataFile@@@Z 0041a3a8 f   FileSystemScanner.obj
 0001:00019405       ?LogProgress@CFileSystemScanner@@IAEXPBD@Z 0041a405 f   FileSystemScanner.obj
 0001:00019436       ??1?$CDynaList@PAVCFileSystemFile@@@@UAE@XZ 0041a436 f i FileSystemScanner.obj
 0001:00019441       ??_E?$CDynaList@PAVCFileSystemFile@@@@UAEPAXI@Z 0041a441 f i FileSystemScanner.obj
 0001:00019441       ??_G?$CDynaList@PAVCFileSystemFile@@@@UAEPAXI@Z 0041a441 f i FileSystemScanner.obj
 0001:00019463       ??1CFileSystemFile@@QAE@XZ 0041a463 f i FileSystemScanner.obj
 0001:000194e3       ??1CFileSystemFolder@@QAE@XZ 0041a4e3 f i FileSystemScanner.obj
 0001:00019581       ??1CFileSystemFolderList@@UAE@XZ 0041a581 f   FileSystemScanner.obj
 0001:000195dd       ?SetOptions@CFileSystemScanner@@QAEXHHAAV?$CDynaList@V?$CStringT@DV?$StrTraitMFC@DV?$ChTraitsCRT@D@ATL@@@@@ATL@@@@0@Z 0041a5dd f   FileSystemScanner.obj
 0001:0001960a       ??0CFileSystemFile@@QAE@XZ 0041a60a f i FileSystemScanner.obj
 0001:000196fd       ?Name@CFileSystemFile@@QAEXPBD@Z 0041a6fd f i FileSystemScanner.obj
 0001:0001971b       ?ModifiedDateTime@CFileSystemFile@@QAEXAAV?$CStringT@DV?$StrTraitMFC@DV?$ChTraitsCRT@D@ATL@@@@@ATL@@@Z 0041a71b f i FileSystemScanner.obj
 0001:0001973e       ?CreatedDateTime@CFileSystemFile@@QAEXAAV?$CStringT@DV?$StrTraitMFC@DV?$ChTraitsCRT@D@ATL@@@@@ATL@@@Z 0041a73e f i FileSystemScanner.obj
 0001:00019761       ?LastAccessedDateTime@CFileSystemFile@@QAEXAAV?$CStringT@DV?$StrTraitMFC@DV?$ChTraitsCRT@D@ATL@@@@@ATL@@@Z 0041a761 f i FileSystemScanner.obj
 0001:00019784       ?CompanyName@CFileSystemFile@@QAEXAAV?$CStringT@DV?$StrTraitMFC@DV?$ChTraitsCRT@D@ATL@@@@@ATL@@@Z 0041a784 f i FileSystemScanner.obj
 0001:000197a7       ?ProductVersion1@CFileSystemFile@@QAEXAAV?$CStringT@DV?$StrTraitMFC@DV?$ChTraitsCRT@D@ATL@@@@@ATL@@@Z 0041a7a7 f i FileSystemScanner.obj
 0001:000197ca       ?ProductVersion2@CFileSystemFile@@QAEXAAV?$CStringT@DV?$StrTraitMFC@DV?$ChTraitsCRT@D@ATL@@@@@ATL@@@Z 0041a7ca f i FileSystemScanner.obj
 0001:000197ed       ?FileVersion1@CFileSystemFile@@QAEXAAV?$CStringT@DV?$StrTraitMFC@DV?$ChTraitsCRT@D@ATL@@@@@ATL@@@Z 0041a7ed f i FileSystemScanner.obj
 0001:00019810       ?FileVersion2@CFileSystemFile@@QAEXAAV?$CStringT@DV?$StrTraitMFC@DV?$ChTraitsCRT@D@ATL@@@@@ATL@@@Z 0041a810 f i FileSystemScanner.obj
 0001:00019833       ?Description@CFileSystemFile@@QAEXAAV?$CStringT@DV?$StrTraitMFC@DV?$ChTraitsCRT@D@ATL@@@@@ATL@@@Z 0041a833 f i FileSystemScanner.obj
 0001:00019856       ?ProductName@CFileSystemFile@@QAEXAAV?$CStringT@DV?$StrTraitMFC@DV?$ChTraitsCRT@D@ATL@@@@@ATL@@@Z 0041a856 f i FileSystemScanner.obj
 0001:00019879       ?OriginalFileName@CFileSystemFile@@QAEXAAV?$CStringT@DV?$StrTraitMFC@DV?$ChTraitsCRT@D@ATL@@@@@ATL@@@Z 0041a879 f i FileSystemScanner.obj
 0001:0001989c       ??0CFileSystemFolder@@QAE@PBD@Z 0041a89c f i FileSystemScanner.obj
 0001:000198f3       ?EnumDrives@CFileSystemScanner@@IAEKAAV?$CDynaList@V?$CStringT@DV?$StrTraitMFC@DV?$ChTraitsCRT@D@ATL@@@@@ATL@@@@@Z 0041a8f3 f   FileSystemScanner.obj
 0001:000199ba       ?IncludeFile@CFileSystemScanner@@IAEHPBD@Z 0041a9ba f   FileSystemScanner.obj
 0001:00019b76       ?ScanFile@CFileSystemScanner@@KAHPBDPAU_WIN32_FIND_DATAA@@PAVCFileSystemFile@@@Z 0041ab76 f   FileSystemScanner.obj
 0001:00019fcf       ?ScanFile@CFileSystemScanner@@IAEHPAVCFileSystemFolder@@PBDPAU_WIN32_FIND_DATAA@@@Z 0041afcf f   FileSystemScanner.obj
 0001:0001a0c8       ?ScanPath@CFileSystemScanner@@IAEHPAVCFileSystemFolder@@@Z 0041b0c8 f   FileSystemScanner.obj
 0001:0001a2a9       ?ScanSelectedFolders@CFileSystemScanner@@IAEXXZ 0041b2a9 f   FileSystemScanner.obj
 0001:0001a3a6       ?ScanDrive@CFileSystemScanner@@IAEHPBD@Z 0041b3a6 f   FileSystemScanner.obj
 0001:0001a3f7       ?ScanAllFolders@CFileSystemScanner@@IAEXXZ 0041b3f7 f   FileSystemScanner.obj
 0001:0001a4a5       ?Scan@CFileSystemScanner@@QAE_NPAVCListBox@@@Z 0041b4a5 f   FileSystemScanner.obj
 0001:0001a54b       ??0CFirewallInfo@@QAE@XZ   0041b54b f   Firewall.obj
 0001:0001a55f       ??1CFirewallInfo@@UAE@XZ   0041b55f f   Firewall.obj
 0001:0001a584       ??_GCFirewallInfo@@UAEPAXI@Z 0041b584 f i Firewall.obj
 0001:0001a584       ??_ECFirewallInfo@@UAEPAXI@Z 0041b584 f i Firewall.obj
 0001:0001a5a0       ??1CFirewallSettings@@UAE@XZ 0041b5a0 f   Firewall.obj
 0001:0001a5d0       ??_ECFirewallSettings@@UAEPAXI@Z 0041b5d0 f i Firewall.obj
 0001:0001a5d0       ??_GCFirewallSettings@@UAEPAXI@Z 0041b5d0 f i Firewall.obj
 0001:0001a5ec       ?Detect@CFirewallSettings@@IAEXXZ 0041b5ec f   Firewall.obj
 0001:0001a888       ??0CFirewallSettings@@QAE@PBD@Z 0041b888 f   Firewall.obj
 0001:0001a8e1       ?Detect@CFirewallInfo@@QAEXXZ 0041b8e1 f   Firewall.obj
 0001:0001a9b3       ??1CGraphicsAdapter@@QAE@XZ 0041b9b3 f i GraphicsAdaptersScanner.obj
 0001:0001a9f7       ??_ECGraphicsAdapter@@QAEPAXI@Z 0041b9f7 f i GraphicsAdaptersScanner.obj
 0001:0001aa40       ?Empty@?$CDynaList@VCGraphicsAdapter@@@@QAEXXZ 0041ba40 f i GraphicsAdaptersScanner.obj
 0001:0001aa65       ??1?$CDynaList@VCGraphicsAdapter@@@@UAE@XZ 0041ba65 f i GraphicsAdaptersScanner.obj
 0001:0001aa70       ??_G?$CDynaList@VCGraphicsAdapter@@@@UAEPAXI@Z 0041ba70 f i GraphicsAdaptersScanner.obj
 0001:0001aa70       ??_E?$CDynaList@VCGraphicsAdapter@@@@UAEPAXI@Z 0041ba70 f i GraphicsAdaptersScanner.obj
 0001:0001aa92       ??0CGraphicsAdapter@@QAE@AAV?$CStringT@DV?$StrTraitMFC@DV?$ChTraitsCRT@D@ATL@@@@@ATL@@000@Z 0041ba92 f i GraphicsAdaptersScanner.obj
 0001:0001ab0f       ??1CGraphicsAdaptersScanner@@UAE@XZ 0041bb0f f   GraphicsAdaptersScanner.obj
 0001:0001ab49       ??4CGraphicsAdapter@@QAEAAV0@ABV0@@Z 0041bb49 f i GraphicsAdaptersScanner.obj
 0001:0001aba0       ??0CGraphicsAdapter@@QAE@XZ 0041bba0 f   GraphicsAdaptersScanner.obj
 0001:0001ac17       ??0CGraphicsAdaptersScanner@@QAE@XZ 0041bc17 f   GraphicsAdaptersScanner.obj
 0001:0001ac61       ??_ECGraphicsAdaptersScanner@@UAEPAXI@Z 0041bc61 f i GraphicsAdaptersScanner.obj
 0001:0001ac61       ??_GCGraphicsAdaptersScanner@@UAEPAXI@Z 0041bc61 f i GraphicsAdaptersScanner.obj
 0001:0001ac7d       ?Expand@?$CDynaList@VCGraphicsAdapter@@@@IAEXK@Z 0041bc7d f i GraphicsAdaptersScanner.obj
 0001:0001ad4d       ?Add@?$CDynaList@VCGraphicsAdapter@@@@QAEKABVCGraphicsAdapter@@@Z 0041bd4d f i GraphicsAdaptersScanner.obj
 0001:0001ad7e       ?ScanWMI@CGraphicsAdaptersScanner@@UAE_NPAVCWMIScanner@@@Z 0041bd7e f   GraphicsAdaptersScanner.obj
 0001:0001b00e       ?ScanRegistryNT@CGraphicsAdaptersScanner@@UAE_NXZ 0041c00e f   GraphicsAdaptersScanner.obj
 0001:0001b5b2       ?ScanRegistryXP@CGraphicsAdaptersScanner@@UAE_NXZ 0041c5b2 f   GraphicsAdaptersScanner.obj
 0001:0001b990       ?ScanRegistry9X@CGraphicsAdaptersScanner@@UAE_NXZ 0041c990 f   GraphicsAdaptersScanner.obj
 0001:0001bc89       ?SaveData@CGraphicsAdaptersScanner@@UAE_NPAVCAuditDataFile@@@Z 0041cc89 f   GraphicsAdaptersScanner.obj
 0001:0001befa       ?Save@CHardwareScanner@@QAE_NAAVCAuditDataFile@@@Z 0041cefa f   HardwareScanner.obj
 0001:0001bf97       ??0CHardwareScanner@@QAE@XZ 0041cf97 f   HardwareScanner.obj
 0001:0001bfb2       ??1CHardwareScanner@@UAE@XZ 0041cfb2 f   HardwareScanner.obj
 0001:0001bfd1       ?Scan@CHardwareScanner@@QAE_NPAVCWMIScanner@@@Z 0041cfd1 f   HardwareScanner.obj
 0001:0001c363       ??_GCHardwareScanner@@UAEPAXI@Z 0041d363 f i HardwareScanner.obj
 0001:0001c363       ??_ECHardwareScanner@@UAEPAXI@Z 0041d363 f i HardwareScanner.obj
 0001:0001c37f       ??1CIEVersion@@UAE@XZ      0041d37f f   IEVersion.obj
 0001:0001c390       ??_ECIEVersion@@UAEPAXI@Z  0041d390 f i IEVersion.obj
 0001:0001c390       ??_GCIEVersion@@UAEPAXI@Z  0041d390 f i IEVersion.obj
 0001:0001c3ac       ?GetVersion@CIEVersion@@QAEXXZ 0041d3ac f   IEVersion.obj
 0001:0001c6c2       ??0CIEVersion@@QAE@XZ      0041d6c2 f   IEVersion.obj
 0001:0001c6f4       ?IsNT@COsInfo@@QAEHXZ      0041d6f4 f i InstalledPatches.obj
 0001:0001c714       ??1CQuickFix@@QAE@XZ       0041d714 f i InstalledPatches.obj
 0001:0001c78a       ??_ECQuickFix@@QAEPAXI@Z   0041d78a f i InstalledPatches.obj
 0001:0001c7d3       ?Empty@?$CDynaList@VCQuickFix@@@@QAEXXZ 0041d7d3 f i InstalledPatches.obj
 0001:0001c7f8       ??1?$CDynaList@VCQuickFix@@@@UAE@XZ 0041d7f8 f i InstalledPatches.obj
 0001:0001c803       ??_E?$CDynaList@VCQuickFix@@@@UAEPAXI@Z 0041d803 f i InstalledPatches.obj
 0001:0001c803       ??_G?$CDynaList@VCQuickFix@@@@UAEPAXI@Z 0041d803 f i InstalledPatches.obj
 0001:0001c825       ??4CQuickFix@@QAEAAV0@ABV0@@Z 0041d825 f i InstalledPatches.obj
 0001:0001c8b2       ??4?$CDynaList@VCQuickFix@@@@QAEAAV0@ABV0@@Z 0041d8b2 f i InstalledPatches.obj
 0001:0001c95f       ?AddPatch@CInstalledPatchList@@IAEXAAVCInstalledPatch@@@Z 0041d95f f   InstalledPatches.obj
 0001:0001cb2c       ??0?$CDynaList@VCQuickFix@@@@QAE@ABV0@@Z 0041db2c f i InstalledPatches.obj
 0001:0001cb4c       ?QuickFixList@CQuickFixScanner@@QAE?AV?$CDynaList@VCQuickFix@@@@XZ 0041db4c f i InstalledPatches.obj
 0001:0001cb67       ?ScanNT4@CInstalledPatchList@@IAEXXZ 0041db67 f   InstalledPatches.obj
 0001:0001cd99       ?GetPatchDetails@CInstalledPatchList@@IAEXPBD00@Z 0041dd99 f   InstalledPatches.obj
 0001:0001cf26       ?ScanServicePack@CInstalledPatchList@@IAEXPBD0@Z 0041df26 f   InstalledPatches.obj
 0001:0001d011       ?ScanProduct@CInstalledPatchList@@IAEXPBD@Z 0041e011 f   InstalledPatches.obj
 0001:0001d12a       ?Scan2000@CInstalledPatchList@@IAEXXZ 0041e12a f   InstalledPatches.obj
 0001:0001d209       ?Scan@CInstalledPatchList@@QAEHPAVCWMIScanner@@@Z 0041e209 f   InstalledPatches.obj
 0001:0001d3b2       ??1CInternetExplorerScanner@@UAE@XZ 0041e3b2 f   InternetExplorerScanner.obj
 0001:0001d3f8       ?ScanRegistryNT@CSystemBiosScanner@@UAE_NXZ 0041e3f8 f   SystemBiosScanner.obj
 0001:0001d3f8       ?ScanRegistryNT@CNetworkAdaptersScanner@@UAE_NXZ 0041e3f8 f   NetworkAdaptersScanner.obj
 0001:0001d3f8       ?ScanRegistryNT@CSystemProcessorScanner@@UAE_NXZ 0041e3f8 f   SystemProcessorScanner.obj
 0001:0001d3f8       ?ScanRegistry9X@CSystemBiosScanner@@UAE_NXZ 0041e3f8 f   SystemBiosScanner.obj
 0001:0001d3f8       ?ScanRegistryNT@CNetworkInformationScanner@@UAE_NXZ 0041e3f8 f   NetworkInformationScanner.obj
 0001:0001d3f8       ?ScanRegistryNT@CObjectScanner@@UAE_NXZ 0041e3f8 f   ObjectScanner.obj
 0001:0001d3f8       ?ScanRegistryNT@CInternetExplorerScanner@@UAE_NXZ 0041e3f8 f   InternetExplorerScanner.obj
 0001:0001d3f8       ?ScanRegistry9X@CInternetExplorerScanner@@UAE_NXZ 0041e3f8 f   InternetExplorerScanner.obj
 0001:0001d3f8       ?ScanRegistry9X@CObjectScanner@@UAE_NXZ 0041e3f8 f   ObjectScanner.obj
 0001:0001d3fd       ??_ECInternetExplorerScanner@@UAEPAXI@Z 0041e3fd f i InternetExplorerScanner.obj
 0001:0001d3fd       ??_GCInternetExplorerScanner@@UAEPAXI@Z 0041e3fd f i InternetExplorerScanner.obj
 0001:0001d419       ??_G?$CDynaList@VCInternetExplorerCacheItem@@@@UAEPAXI@Z 0041e419 f i InternetExplorerScanner.obj
 0001:0001d419       ??_E?$CDynaList@VCInternetExplorerCacheItem@@@@UAEPAXI@Z 0041e419 f i InternetExplorerScanner.obj
 0001:0001d43b       ??0CInternetHistoryEntry@@QAE@XZ 0041e43b f i InternetExplorerScanner.obj
 0001:0001d460       ??1CInternetHistoryEntry@@UAE@XZ 0041e460 f i InternetExplorerScanner.obj
 0001:0001d480       ??0CInternetExplorerCache@@QAE@W4CITYPE@@@Z 0041e480 f   InternetExplorerScanner.obj
 0001:0001d508       ??1CInternetExplorerCache@@UAE@XZ 0041e508 f   InternetExplorerScanner.obj
 0001:0001d550       ??0CInternetExplorerCacheItem@@QAE@XZ 0041e550 f i InternetExplorerScanner.obj
 0001:0001d575       ??1CInternetExplorerCacheItem@@UAE@XZ 0041e575 f i InternetExplorerScanner.obj
 0001:0001d58f       ??_ECInternetExplorerCacheItem@@UAEPAXI@Z 0041e58f f i InternetExplorerScanner.obj
 0001:0001d5d8       ??_ECInternetHistoryEntry@@UAEPAXI@Z 0041e5d8 f i InternetExplorerScanner.obj
 0001:0001d621       ??0CInternetExplorerScanner@@QAE@XZ 0041e621 f   InternetExplorerScanner.obj
 0001:0001d694       ??_GCInternetExplorerCache@@UAEPAXI@Z 0041e694 f i InternetExplorerScanner.obj
 0001:0001d694       ??_ECInternetExplorerCache@@UAEPAXI@Z 0041e694 f i InternetExplorerScanner.obj
 0001:0001d6b0       ??4CInternetExplorerCacheItem@@QAEAAV0@ABV0@@Z 0041e6b0 f i InternetExplorerScanner.obj
 0001:0001d6e9       ??0CInternetHistoryEntry@@QAE@VCTime@ATL@@AAV?$CStringT@DV?$StrTraitMFC@DV?$ChTraitsCRT@D@ATL@@@@@2@1@Z 0041e6e9 f i InternetExplorerScanner.obj
 0001:0001d754       ??4CInternetHistoryEntry@@QAEAAV0@ABV0@@Z 0041e754 f i InternetExplorerScanner.obj
 0001:0001d78d       ?Expand@?$CDynaList@VCInternetExplorerCacheItem@@@@IAEXK@Z 0041e78d f i InternetExplorerScanner.obj
 0001:0001d86e       ?Expand@?$CDynaList@VCInternetHistoryEntry@@@@IAEXK@Z 0041e86e f i InternetExplorerScanner.obj
 0001:0001d94e       ?Add@?$CDynaList@VCInternetExplorerCacheItem@@@@QAEKABVCInternetExplorerCacheItem@@@Z 0041e94e f i InternetExplorerScanner.obj
 0001:0001d97f       ?Add@?$CDynaList@VCInternetHistoryEntry@@@@QAEKABVCInternetHistoryEntry@@@Z 0041e97f f i InternetExplorerScanner.obj
 0001:0001d9b0       ?Initialize@CInternetExplorerCache@@QAEHXZ 0041e9b0 f   InternetExplorerScanner.obj
 0001:0001db78       ?AddEntry@CInternetHistoryList@@QAEHVCTime@ATL@@AAV?$CStringT@DV?$StrTraitMFC@DV?$ChTraitsCRT@D@ATL@@@@@3@1@Z 0041eb78 f   InternetExplorerScanner.obj
 0001:0001dc01       ?ScanInternetExplorer@CInternetExplorerScanner@@IAEXXZ 0041ec01 f   InternetExplorerScanner.obj
 0001:0001dc63       ?PreProcessInternetHistory@CInternetExplorerScanner@@QAEXAAVCInternetHistoryList@@@Z 0041ec63 f   InternetExplorerScanner.obj
 0001:0001dd6b       ?ScanWMI@CInternetExplorerScanner@@UAE_NPAVCWMIScanner@@@Z 0041ed6b f   InternetExplorerScanner.obj
 0001:0001dd94       ?ScanRegistryXP@CInternetExplorerScanner@@UAE_NXZ 0041ed94 f   InternetExplorerScanner.obj
 0001:0001ddc6       ?SaveDetailedInternetHistory@CInternetExplorerScanner@@IAEXPAVCAuditDataFile@@AAVCTime@ATL@@@Z 0041edc6 f   InternetExplorerScanner.obj
 0001:0001e024       ?SaveBasicInternetHistory@CInternetExplorerScanner@@IAEXPAVCAuditDataFile@@AAVCTime@ATL@@@Z 0041f024 f   InternetExplorerScanner.obj
 0001:0001e1a9       ?SaveData@CInternetExplorerScanner@@UAE_NPAVCAuditDataFile@@@Z 0041f1a9 f   InternetExplorerScanner.obj
 0001:0001e382       ??1CComBSTR@ATL@@QAE@XZ    0041f382 f i LaytonWMI.obj
 0001:0001e38b       ?Disconnect@CLaytonWMI@@QAEHXZ 0041f38b f   LaytonWMI.obj
 0001:0001e3f6       ?MoveNextEnumClassObject@CLaytonWMI@@QAEHXZ 0041f3f6 f   LaytonWMI.obj
 0001:0001e46d       ?CloseEnumClassObject@CLaytonWMI@@QAEHXZ 0041f46d f   LaytonWMI.obj
 0001:0001e4c8       ?GetLastErrorWMI@CLaytonWMI@@QAEJXZ 0041f4c8 f   LaytonWMI.obj
 0001:0001e4cc       ?dwCimValue@CLaytonWMI@@IAEKAAUtagVARIANT@@AAJ@Z 0041f4cc f   LaytonWMI.obj
 0001:0001e52d       ??1?$CAtlSafeAllocBufferManager@VCCRTAllocator@ATL@@@_ATL_SAFE_ALLOCA_IMPL@ATL@@QAE@XZ 0041f52d f i LaytonWMI.obj
 0001:0001e546       ?GetBaseTypeLength@?$ChTraitsCRT@D@ATL@@SAHPB_W@Z 0041f546 f i LaytonWMI.obj
 0001:0001e55d       ?A2WBSTR@@YAPA_WPBDH@Z     0041f55d f i LaytonWMI.obj
 0001:0001e5d7       ??0CComBSTR@ATL@@QAE@PBD@Z 0041f5d7 f i LaytonWMI.obj
 0001:0001e607       ?Connect@CLaytonWMI@@QAEHPBD@Z 0041f607 f   LaytonWMI.obj
 0001:0001e719       ?BeginEnumClassObject@CLaytonWMI@@QAEHPBD@Z 0041f719 f   LaytonWMI.obj
 0001:0001e7a7       ?GetClassObjectDwordValue@CLaytonWMI@@QAEKPBD@Z 0041f7a7 f   LaytonWMI.obj
 0001:0001e83b       ?GetClassObjectBoolValue@CLaytonWMI@@QAEHPBD@Z 0041f83b f   LaytonWMI.obj
 0001:0001e8e0       ??0CLaytonWMI@@QAE@XZ      0041f8e0 f   LaytonWMI.obj
 0001:0001e92a       ??1CLaytonWMI@@UAE@XZ      0041f92a f   LaytonWMI.obj
 0001:0001e961       ??_ECLaytonWMI@@UAEPAXI@Z  0041f961 f i LaytonWMI.obj
 0001:0001e961       ??_GCLaytonWMI@@UAEPAXI@Z  0041f961 f i LaytonWMI.obj
 0001:0001e97d       ??4?$CStringT@DV?$StrTraitMFC@DV?$ChTraitsCRT@D@ATL@@@@@ATL@@QAEAAV01@PB_W@Z 0041f97d f i LaytonWMI.obj
 0001:0001e9c7       ?u64CimValue@CLaytonWMI@@IAE_KAAUtagVARIANT@@AAJ@Z 0041f9c7 f   LaytonWMI.obj
 0001:0001e9c7       ?i64CimValue@CLaytonWMI@@IAE_JAAUtagVARIANT@@AAJ@Z 0041f9c7 f   LaytonWMI.obj
 0001:0001ea85       ?GetClassObjectI64Value@CLaytonWMI@@QAE_JPBD@Z 0041fa85 f   LaytonWMI.obj
 0001:0001eb1f       ?GetClassObjectU64Value@CLaytonWMI@@QAE_KPBD@Z 0041fb1f f   LaytonWMI.obj
 0001:0001ebd3       ?strVariant@CLaytonWMI@@IAEPBDUtagVARIANT@@@Z 0041fbd3 f   LaytonWMI.obj
 0001:0001ee77       ?strVariantArray@CLaytonWMI@@IAEPBDUtagVARIANT@@@Z 0041fe77 f   LaytonWMI.obj
 0001:0001efa9       ?strCimValue@CLaytonWMI@@IAEPBDAAUtagVARIANT@@AAJ@Z 0041ffa9 f   LaytonWMI.obj
 0001:0001f147       ?strCimArrayValue@CLaytonWMI@@IAEPBDAAUtagVARIANT@@AAJ@Z 00420147 f   LaytonWMI.obj
 0001:0001f27f       ?GetClassObjectStringValue@CLaytonWMI@@QAEPBDPBD@Z 0042027f f   LaytonWMI.obj
 0001:0001f32b       ?GetRefElementClassObjectStringValue@CLaytonWMI@@QAEPBDPBD0@Z 0042032b f   LaytonWMI.obj
 0001:0001f4f1       ?GetRefElementClassObjectDwordValue@CLaytonWMI@@QAEKPBD0@Z 004204f1 f   LaytonWMI.obj
 0001:0001f69f       ??1CLocaleScanner@@UAE@XZ  0042069f f   LocaleScanner.obj
 0001:0001f70f       ??_ECLocaleScanner@@UAEPAXI@Z 0042070f f i LocaleScanner.obj
 0001:0001f70f       ??_GCLocaleScanner@@UAEPAXI@Z 0042070f f i LocaleScanner.obj
 0001:0001f72b       ??0CLocaleScanner@@QAE@XZ  0042072b f   LocaleScanner.obj
 0001:0001f80f       ?ScanLocale@CLocaleScanner@@IAEXXZ 0042080f f   LocaleScanner.obj
 0001:0001fae3       ?ScanRegistryXP@CLocaleScanner@@UAE_NXZ 00420ae3 f   LocaleScanner.obj
 0001:0001fae3       ?ScanRegistryNT@CLocaleScanner@@UAE_NXZ 00420ae3 f   LocaleScanner.obj
 0001:0001fae3       ?ScanRegistry9X@CLocaleScanner@@UAE_NXZ 00420ae3 f   LocaleScanner.obj
 0001:0001fb15       ?GetRegValue@CLocaleScanner@@UAE?AV?$CStringT@DV?$StrTraitMFC@DV?$ChTraitsCRT@D@ATL@@@@@ATL@@PBD0@Z 00420b15 f   LocaleScanner.obj
 0001:0001fb15       ?GetRegValue@CRegistryScanner@@QAE?AV?$CStringT@DV?$StrTraitMFC@DV?$ChTraitsCRT@D@ATL@@@@@ATL@@PBD0@Z 00420b15 f   RegistryScanner.obj
 0001:0001fd92       ?SaveData@CLocaleScanner@@UAE_NPAVCAuditDataFile@@@Z 00420d92 f   LocaleScanner.obj
 0001:00020109       ?ScanWMI@CLogicalDriveScanner@@UAE_NPAVCWMIScanner@@@Z 00421109 f   LogicalDriveScanner.obj
 0001:0002014a       ?GetDiskSpace@CLogicalDriveScanner@@IAEHPBDPAK1@Z 0042114a f   LogicalDriveScanner.obj
 0001:0002020c       ?GetUniversalName@CLogicalDriveScanner@@IAEHPADPBD@Z 0042120c f   LogicalDriveScanner.obj
 0001:0002031f       ??1CLogicalDrive@@QAE@XZ   0042131f f i LogicalDriveScanner.obj
 0001:0002036d       ??_ECLogicalDrive@@QAEPAXI@Z 0042136d f i LogicalDriveScanner.obj
 0001:000203b6       ?Description@CInstalledPatch@@QBE?AV?$CStringT@DV?$StrTraitMFC@DV?$ChTraitsCRT@D@ATL@@@@@ATL@@XZ 004213b6 f i AuditDataFile.obj
 0001:000203b6       ?ProviderName@CLogicalDrive@@QAE?AV?$CStringT@DV?$StrTraitMFC@DV?$ChTraitsCRT@D@ATL@@@@@ATL@@XZ 004213b6 f i LogicalDriveScanner.obj
 0001:000203b6       ?ProductId@CApplicationSerial@@QAE?AV?$CStringT@DV?$StrTraitMFC@DV?$ChTraitsCRT@D@ATL@@@@@ATL@@XZ 004213b6 f i ApplicationSerial.obj
 0001:000203d1       ?DeviceType@CLogicalDrive@@QAE?AV?$CStringT@DV?$StrTraitMFC@DV?$ChTraitsCRT@D@ATL@@@@@ATL@@XZ 004213d1 f i LogicalDriveScanner.obj
 0001:000203ec       ?Empty@?$CDynaList@VCLogicalDrive@@@@QAEXXZ 004213ec f i LogicalDriveScanner.obj
 0001:00020411       ??1?$CDynaList@VCLogicalDrive@@@@UAE@XZ 00421411 f i LogicalDriveScanner.obj
 0001:0002041c       ??_G?$CDynaList@VCLogicalDrive@@@@UAEPAXI@Z 0042141c f i LogicalDriveScanner.obj
 0001:0002041c       ??_E?$CDynaList@VCLogicalDrive@@@@UAEPAXI@Z 0042141c f i LogicalDriveScanner.obj
 0001:0002043e       ??1CLogicalDriveScanner@@UAE@XZ 0042143e f   LogicalDriveScanner.obj
 0001:0002045d       ??4CLogicalDrive@@QAEAAV0@ABV0@@Z 0042145d f i LogicalDriveScanner.obj
 0001:000204c6       ??0CLogicalDrive@@QAE@XZ   004214c6 f i LogicalDriveScanner.obj
 0001:00020568       ??0CLogicalDriveScanner@@QAE@XZ 00421568 f   LogicalDriveScanner.obj
 0001:000205b2       ??_ECLogicalDriveScanner@@UAEPAXI@Z 004215b2 f i LogicalDriveScanner.obj
 0001:000205b2       ??_GCLogicalDriveScanner@@UAEPAXI@Z 004215b2 f i LogicalDriveScanner.obj
 0001:000205ce       ?Expand@?$CDynaList@VCLogicalDrive@@@@IAEXK@Z 004215ce f i LogicalDriveScanner.obj
 0001:0002069e       ?Add@?$CDynaList@VCLogicalDrive@@@@QAEKABVCLogicalDrive@@@Z 0042169e f i LogicalDriveScanner.obj
 0001:000206cf       ?ScanDrives@CLogicalDriveScanner@@IAEHXZ 004216cf f   LogicalDriveScanner.obj
 0001:000209e2       ?ScanRegistry9X@CLogicalDriveScanner@@UAE_NXZ 004219e2 f   LogicalDriveScanner.obj
 0001:000209e2       ?ScanRegistryXP@CLogicalDriveScanner@@UAE_NXZ 004219e2 f   LogicalDriveScanner.obj
 0001:000209e2       ?ScanRegistryNT@CLogicalDriveScanner@@UAE_NXZ 004219e2 f   LogicalDriveScanner.obj
 0001:000209ea       ?SaveData@CLogicalDriveScanner@@UAE_NPAVCAuditDataFile@@@Z 004219ea f   LogicalDriveScanner.obj
 0001:00020d09       ??1CMemoryScanner@@UAE@XZ  00421d09 f   MemoryScanner.obj
 0001:00020d14       ?ScanRegistryXP@CMemoryScanner@@UAE_NXZ 00421d14 f   MemoryScanner.obj
 0001:00020e42       ?ScanRegistryNT@CMemoryScanner@@UAE_NXZ 00421e42 f   MemoryScanner.obj
 0001:00020f5e       ?ScanRegistry9X@CMemoryScanner@@UAE_NXZ 00421f5e f   MemoryScanner.obj
 0001:00020f5e       ?ScanRegistry9X@CSystemProcessorScanner@@UAE_NXZ 00421f5e f   SystemProcessorScanner.obj
 0001:00020f63       ??_ECMemoryScanner@@UAEPAXI@Z 00421f63 f i MemoryScanner.obj
 0001:00020f63       ??_GCMemoryScanner@@UAEPAXI@Z 00421f63 f i MemoryScanner.obj
 0001:00020f7f       ??0CMemoryScanner@@QAE@XZ  00421f7f f   MemoryScanner.obj
 0001:00020fc7       ?SaveData@CMemoryScanner@@UAE_NPAVCAuditDataFile@@@Z 00421fc7 f   MemoryScanner.obj
 0001:0002117c       ??1CMemorySlot@@QAE@XZ     0042217c f i MemorySlotScanner.obj
 0001:00021187       ??_ECMemorySlot@@QAEPAXI@Z 00422187 f i MemorySlotScanner.obj
 0001:000211d6       ?Empty@?$CDynaList@VCMemorySlot@@@@QAEXXZ 004221d6 f i MemorySlotScanner.obj
 0001:000211fb       ??1?$CDynaList@VCMemorySlot@@@@UAE@XZ 004221fb f i MemorySlotScanner.obj
 0001:00021206       ??_E?$CDynaList@VCMemorySlot@@@@UAEPAXI@Z 00422206 f i MemorySlotScanner.obj
 0001:00021206       ??_G?$CDynaList@VCMemorySlot@@@@UAEPAXI@Z 00422206 f i MemorySlotScanner.obj
 0001:00021228       ??1CMemorySlotScanner@@UAE@XZ 00422228 f   MemorySlotScanner.obj
 0001:00021262       ??4CMemorySlot@@QAEAAV0@ABV0@@Z 00422262 f i MemorySlotScanner.obj
 0001:00021293       ??0CMemorySlot@@QAE@XZ     00422293 f   MemorySlotScanner.obj
 0001:000212d2       ??0CMemorySlotScanner@@QAE@XZ 004222d2 f   MemorySlotScanner.obj
 0001:0002131c       ??_ECMemorySlotScanner@@UAEPAXI@Z 0042231c f i MemorySlotScanner.obj
 0001:0002131c       ??_GCMemorySlotScanner@@UAEPAXI@Z 0042231c f i MemorySlotScanner.obj
 0001:00021338       ?Expand@?$CDynaList@VCMemorySlot@@@@IAEXK@Z 00422338 f i MemorySlotScanner.obj
 0001:00021408       ?FormFactorAsString@CMemorySlot@@QAE?AV?$CStringT@DV?$StrTraitMFC@DV?$ChTraitsCRT@D@ATL@@@@@ATL@@XZ 00422408 f i MemorySlotScanner.obj
 0001:000215bc       ?Add@?$CDynaList@VCMemorySlot@@@@QAEKABVCMemorySlot@@@Z 004225bc f i MemorySlotScanner.obj
 0001:000215ed       ?ScanWMI@CMemorySlotScanner@@UAE_NPAVCWMIScanner@@@Z 004225ed f   MemorySlotScanner.obj
 0001:0002176d       ?SaveData@CMemorySlotScanner@@UAE_NPAVCAuditDataFile@@@Z 0042276d f   MemorySlotScanner.obj
 0001:00021956       ??0CModuleVersion@@QAE@XZ  00422956 f   ModuleVersion.obj
 0001:00021963       ??1CModuleVersion@@UAE@XZ  00422963 f   ModuleVersion.obj
 0001:00021973       ?GetFileVersionInfoA@CModuleVersion@@QAEHPAD@Z 00422973 f   ModuleVersion.obj
 0001:00021a27       ??_GCModuleVersion@@UAEPAXI@Z 00422a27 f i ModuleVersion.obj
 0001:00021a27       ??_ECModuleVersion@@UAEPAXI@Z 00422a27 f i ModuleVersion.obj
 0001:00021a43       ?FindAdapter@CNetworkAdaptersScanner@@QAEPAVCNetworkAdapter@@AAV?$CStringT@DV?$StrTraitMFC@DV?$ChTraitsCRT@D@ATL@@@@@ATL@@@Z 00422a43 f   NetworkAdaptersScanner.obj
 0001:00021aa9       ??_ECNetworkAdapter@@QAEPAXI@Z 00422aa9 f i NetworkAdaptersScanner.obj
 0001:00021af2       ?Empty@?$CDynaList@VCNetworkAdapter@@@@QAEXXZ 00422af2 f i NetworkAdaptersScanner.obj
 0001:00021b17       ??1?$CDynaList@VCNetworkAdapter@@@@UAE@XZ 00422b17 f i NetworkAdaptersScanner.obj
 0001:00021b22       ??_G?$CDynaList@VCNetworkAdapter@@@@UAEPAXI@Z 00422b22 f i NetworkAdaptersScanner.obj
 0001:00021b22       ??_E?$CDynaList@VCNetworkAdapter@@@@UAEPAXI@Z 00422b22 f i NetworkAdaptersScanner.obj
 0001:00021b44       ??1CNetworkAdaptersScanner@@UAE@XZ 00422b44 f   NetworkAdaptersScanner.obj
 0001:00021b7e       ??4CNetworkAdapter@@QAEAAV0@ABV0@@Z 00422b7e f i NetworkAdaptersScanner.obj
 0001:00021be1       ??0CNetworkAdapter@@QAE@XZ 00422be1 f   NetworkAdaptersScanner.obj
 0001:00021c65       ??0CNetworkAdaptersScanner@@QAE@XZ 00422c65 f   NetworkAdaptersScanner.obj
 0001:00021caf       ??_GCNetworkAdaptersScanner@@UAEPAXI@Z 00422caf f i NetworkAdaptersScanner.obj
 0001:00021caf       ??_ECNetworkAdaptersScanner@@UAEPAXI@Z 00422caf f i NetworkAdaptersScanner.obj
 0001:00021ccb       ?Expand@?$CDynaList@VCNetworkAdapter@@@@IAEXK@Z 00422ccb f i NetworkAdaptersScanner.obj
 0001:00021d9b       ?Add@?$CDynaList@VCNetworkAdapter@@@@QAEKABVCNetworkAdapter@@@Z 00422d9b f i NetworkAdaptersScanner.obj
 0001:00021dcc       ?ScanWMI@CNetworkAdaptersScanner@@UAE_NPAVCWMIScanner@@@Z 00422dcc f   NetworkAdaptersScanner.obj
 0001:00022152       ?GetNetworkAdapters@CNetworkAdaptersScanner@@IAE_NXZ 00423152 f   NetworkAdaptersScanner.obj
 0001:00022585       ?ScanRegistry9X@CNetworkAdaptersScanner@@UAE_NXZ 00423585 f   NetworkAdaptersScanner.obj
 0001:00022585       ?ScanRegistryXP@CNetworkAdaptersScanner@@UAE_NXZ 00423585 f   NetworkAdaptersScanner.obj
 0001:0002258a       ?SaveData@CNetworkAdaptersScanner@@UAE_NPAVCAuditDataFile@@@Z 0042358a f   NetworkAdaptersScanner.obj
 0001:00022789       ?GetExplorerProcessHandle@@YAPAXXZ 00423789 f i NetworkInformationScanner.obj
 0001:0002290b       ??1CNetworkInformationScanner@@UAE@XZ 0042390b f   NetworkInformationScanner.obj
 0001:0002295d       ??_GCNetworkInformationScanner@@UAEPAXI@Z 0042395d f i NetworkInformationScanner.obj
 0001:0002295d       ??_ECNetworkInformationScanner@@UAEPAXI@Z 0042395d f i NetworkInformationScanner.obj
 0001:00022979       ?ScanExceptions@CNetworkInformationScanner@@UAE_NXZ 00423979 f   NetworkInformationScanner.obj
 0001:000229b8       ?ComputerName@CNetworkInformationScanner@@QAEXPBD@Z 004239b8 f i NetworkInformationScanner.obj
 0001:000229d9       ?DomainName@CNetworkInformationScanner@@QAEXPBD@Z 004239d9 f i NetworkInformationScanner.obj
 0001:00022a01       ?LogonClient@CNetworkInformationScanner@@QAEXPBD@Z 00423a01 f i NetworkInformationScanner.obj
 0001:00022a22       ?UserName@CNetworkInformationScanner@@QAEXPBD@Z 00423a22 f i NetworkInformationScanner.obj
 0001:00022a43       ??0CNetworkInformationScanner@@QAE@XZ 00423a43 f   NetworkInformationScanner.obj
 0001:00022aac       ??0?$CStringT@DV?$StrTraitMFC@DV?$ChTraitsCRT@D@ATL@@@@@ATL@@QAE@PBE@Z 00423aac f i NetworkInformationScanner.obj
 0001:00022ae2       ?GetActiveUser@@YA?AV?$CStringT@DV?$StrTraitMFC@DV?$ChTraitsCRT@D@ATL@@@@@ATL@@XZ 00423ae2 f i NetworkInformationScanner.obj
 0001:00022c00       ?ScanWMI@CNetworkInformationScanner@@UAE_NPAVCWMIScanner@@@Z 00423c00 f   NetworkInformationScanner.obj
 0001:00022e54       ?ScanRegistryXP@CNetworkInformationScanner@@UAE_NXZ 00423e54 f   NetworkInformationScanner.obj
 0001:00023074       ?ScanRegistry9X@CNetworkInformationScanner@@UAE_NXZ 00424074 f   NetworkInformationScanner.obj
 0001:000232c0       ?SaveData@CNetworkInformationScanner@@UAE_NPAVCAuditDataFile@@@Z 004242c0 f   NetworkInformationScanner.obj
 0001:0002344f       ?ScanWMI@CWindowsSecurityScanner@@UAE_NPAVCWMIScanner@@@Z 0042444f f   WindowsSecurityScanner.obj
 0001:0002344f       ?ScanWMI@CUsersScanner@@UAE_NPAVCWMIScanner@@@Z 0042444f f   UsersScanner.obj
 0001:0002344f       ?ScanWMI@CMemoryScanner@@UAE_NPAVCWMIScanner@@@Z 0042444f f   MemoryScanner.obj
 0001:0002344f       ?ScanWMI@CLocaleScanner@@UAE_NPAVCWMIScanner@@@Z 0042444f f   LocaleScanner.obj
 0001:0002344f       ?ScanWMI@CObjectScanner@@UAE_NPAVCWMIScanner@@@Z 0042444f f   ObjectScanner.obj
 0001:00023454       ??1?$CDynaList@VCInstalledObject@@@@UAE@XZ 00424454 f i ObjectScanner.obj
 0001:0002345f       ??_G?$CDynaList@VCInstalledObject@@@@UAEPAXI@Z 0042445f f i ObjectScanner.obj
 0001:0002345f       ??_E?$CDynaList@VCInstalledObject@@@@UAEPAXI@Z 0042445f f i ObjectScanner.obj
 0001:00023481       ??1CObjectScanner@@UAE@XZ  00424481 f   ObjectScanner.obj
 0001:000234bb       ??0CInstalledObject@@QAE@XZ 004244bb f i ObjectScanner.obj
 0001:00023500       ??0CInstalledObject@@QAE@PBD0@Z 00424500 f i ObjectScanner.obj
 0001:00023546       ??0CObjectScanner@@QAE@XZ  00424546 f   ObjectScanner.obj
 0001:00023590       ??_GCObjectScanner@@UAEPAXI@Z 00424590 f i ObjectScanner.obj
 0001:00023590       ??_ECObjectScanner@@UAEPAXI@Z 00424590 f i ObjectScanner.obj
 0001:000235ac       ?Expand@?$CDynaList@VCInstalledObject@@@@IAEXK@Z 004245ac f i ObjectScanner.obj
 0001:00023673       ?Add@?$CDynaList@VCInstalledObject@@@@QAEKABVCInstalledObject@@@Z 00424673 f i ObjectScanner.obj
 0001:000236a4       ?ScanRegistryXP@CObjectScanner@@UAE_NXZ 004246a4 f   ObjectScanner.obj
 0001:00023790       ?SaveData@CObjectScanner@@UAE_NPAVCAuditDataFile@@@Z 00424790 f   ObjectScanner.obj
 0001:0002386d       ??1COperatingSystemScanner@@QAE@XZ 0042486d f   OperatingSystemScanner.obj
 0001:000238ae       ??0COperatingSystemScanner@@QAE@XZ 004248ae f   OperatingSystemScanner.obj
 0001:00023934       ?Scan@COperatingSystemScanner@@UAE_NXZ 00424934 f   OperatingSystemScanner.obj
 0001:00023b5c       ?Save@COperatingSystemScanner@@QAE_NAAVCAuditDataFile@@@Z 00424b5c f   OperatingSystemScanner.obj
 0001:00023bbf       ??_ECPhysicalDisk@@QAEPAXI@Z 00424bbf f i PhysicalDiskScanner.obj
 0001:00023c08       ?ValueName@CRegistryMapping@@QAE?AV?$CStringT@DV?$StrTraitMFC@DV?$ChTraitsCRT@D@ATL@@@@@ATL@@XZ 00424c08 f i ApplicationSerial.obj
 0001:00023c08       ?Alias@CPublisherMapping@@QAE?AV?$CStringT@DV?$StrTraitMFC@DV?$ChTraitsCRT@D@ATL@@@@@ATL@@XZ 00424c08 f i PublisherMappings.obj
 0001:00023c08       ?GetDoc@CMarkup@@QBE?AV?$CStringT@DV?$StrTraitMFC@DV?$ChTraitsCRT@D@ATL@@@@@ATL@@XZ 00424c08 f i AlertNotificationFile.obj
 0001:00023c08       ?Name@CEnvironmentVariable@@QAE?AV?$CStringT@DV?$StrTraitMFC@DV?$ChTraitsCRT@D@ATL@@@@@ATL@@XZ 00424c08 f i EnvironmentVariablesScanner.obj
 0001:00023c08       ?Name@CRegistryKey@@QAE?AV?$CStringT@DV?$StrTraitMFC@DV?$ChTraitsCRT@D@ATL@@@@@ATL@@XZ 00424c08 f i RegistryScanner.obj
 0001:00023c08       ?GetUpdateState@CWindowsUpdate@@QBE?AV?$CStringT@DV?$StrTraitMFC@DV?$ChTraitsCRT@D@ATL@@@@@ATL@@XZ 00424c08 f i WindowsSecurityScanner.obj
 0001:00023c08       ?Model@CPhysicalDisk@@QAE?AV?$CStringT@DV?$StrTraitMFC@DV?$ChTraitsCRT@D@ATL@@@@@ATL@@XZ 00424c08 f i PhysicalDiskScanner.obj
 0001:00023c08       ?State@CSystemService@@QAE?AV?$CStringT@DV?$StrTraitMFC@DV?$ChTraitsCRT@D@ATL@@@@@ATL@@XZ 00424c08 f i ServicesScanner.obj
 0001:00023c08       ?User@CUserAccount@@QBE?AV?$CStringT@DV?$StrTraitMFC@DV?$ChTraitsCRT@D@ATL@@@@@ATL@@XZ 00424c08 f i UsersScanner.obj
 0001:00023c08       ?Value@CAuditDataFileItem@@QAE?AV?$CStringT@DV?$StrTraitMFC@DV?$ChTraitsCRT@D@ATL@@@@@ATL@@XZ 00424c08 f i AlertTriggerScanner.obj
 0001:00023c08       ?Product@CInstalledPatch@@QBE?AV?$CStringT@DV?$StrTraitMFC@DV?$ChTraitsCRT@D@ATL@@@@@ATL@@XZ 00424c08 f i AuditDataFile.obj
 0001:00023c08       ?Name@CActiveProcess@@QAE?AV?$CStringT@DV?$StrTraitMFC@DV?$ChTraitsCRT@D@ATL@@@@@ATL@@XZ 00424c08 f i ActiveProcessScanner1.obj
 0001:00023c08       ?CdKey@CApplicationSerial@@QAE?AV?$CStringT@DV?$StrTraitMFC@DV?$ChTraitsCRT@D@ATL@@@@@ATL@@XZ 00424c08 f i ApplicationSerial.obj
 0001:00023c23       ?Empty@?$CDynaList@VCPhysicalDisk@@@@QAEXXZ 00424c23 f i PhysicalDiskScanner.obj
 0001:00023c48       ??1?$CDynaList@VCPhysicalDisk@@@@UAE@XZ 00424c48 f i PhysicalDiskScanner.obj
 0001:00023c53       ??_G?$CDynaList@VCPhysicalDisk@@@@UAEPAXI@Z 00424c53 f i PhysicalDiskScanner.obj
 0001:00023c53       ??_E?$CDynaList@VCPhysicalDisk@@@@UAEPAXI@Z 00424c53 f i PhysicalDiskScanner.obj
 0001:00023c75       ??1CPhysicalDiskScanner@@UAE@XZ 00424c75 f   PhysicalDiskScanner.obj
 0001:00023caf       ??4CPhysicalDisk@@QAEAAV0@ABV0@@Z 00424caf f i PhysicalDiskScanner.obj
 0001:00023cf4       ??0CPhysicalDisk@@QAE@XZ   00424cf4 f i PhysicalDiskScanner.obj
 0001:00023d4b       ??0CPhysicalDiskScanner@@QAE@XZ 00424d4b f   PhysicalDiskScanner.obj
 0001:00023d95       ??_GCPhysicalDiskScanner@@UAEPAXI@Z 00424d95 f i PhysicalDiskScanner.obj
 0001:00023d95       ??_ECPhysicalDiskScanner@@UAEPAXI@Z 00424d95 f i PhysicalDiskScanner.obj
 0001:00023db1       ?Expand@?$CDynaList@VCPhysicalDisk@@@@IAEXK@Z 00424db1 f i PhysicalDiskScanner.obj
 0001:00023e81       ?Add@?$CDynaList@VCPhysicalDisk@@@@QAEKABVCPhysicalDisk@@@Z 00424e81 f i PhysicalDiskScanner.obj
 0001:00023eb2       ?ScanWMI@CPhysicalDiskScanner@@UAE_NPAVCWMIScanner@@@Z 00424eb2 f   PhysicalDiskScanner.obj
 0001:00024087       ?SaveData@CPhysicalDiskScanner@@UAE_NPAVCAuditDataFile@@@Z 00425087 f   PhysicalDiskScanner.obj
 0001:00024370       ?ScanRegistryNT@CPrinterScanner@@UAE_NXZ 00425370 f   PrinterScanner.obj
 0001:00024370       ?ScanRegistry9X@CMemorySlotScanner@@UAE_NXZ 00425370 f   MemorySlotScanner.obj
 0001:00024370       ?ScanRegistry9X@CPrinterScanner@@UAE_NXZ 00425370 f   PrinterScanner.obj
 0001:00024370       ?ScanRegistryXP@CPrinterScanner@@UAE_NXZ 00425370 f   PrinterScanner.obj
 0001:00024370       ?ScanRegistryNT@CMemorySlotScanner@@UAE_NXZ 00425370 f   MemorySlotScanner.obj
 0001:00024370       ?ScanRegistryXP@CMemorySlotScanner@@UAE_NXZ 00425370 f   MemorySlotScanner.obj
 0001:00024373       ??1CPrinter@@QAE@XZ        00425373 f i PrinterScanner.obj
 0001:00024373       ??1CNetworkAdapter@@QAE@XZ 00425373 f i NetworkAdaptersScanner.obj
 0001:000243b7       ??_ECPrinter@@QAEPAXI@Z    004253b7 f i PrinterScanner.obj
 0001:00024400       ?Empty@?$CDynaList@VCPrinter@@@@QAEXXZ 00425400 f i PrinterScanner.obj
 0001:00024425       ??1?$CDynaList@VCPrinter@@@@UAE@XZ 00425425 f i PrinterScanner.obj
 0001:00024430       ??_G?$CDynaList@VCPrinter@@@@UAEPAXI@Z 00425430 f i PrinterScanner.obj
 0001:00024430       ??_E?$CDynaList@VCPrinter@@@@UAEPAXI@Z 00425430 f i PrinterScanner.obj
 0001:00024452       ?DefaultPrinter@CPrinter@@QAEXV?$CStringT@DV?$StrTraitMFC@DV?$ChTraitsCRT@D@ATL@@@@@ATL@@@Z 00425452 f i PrinterScanner.obj
 0001:00024481       ??1CPrinterScanner@@UAE@XZ 00425481 f   PrinterScanner.obj
 0001:000244bb       ??4CPrinter@@QAEAAV0@ABV0@@Z 004254bb f i PrinterScanner.obj
 0001:0002450c       ??0CPrinter@@QAE@XZ        0042550c f   PrinterScanner.obj
 0001:0002457a       ??0CPrinterScanner@@QAE@XZ 0042557a f   PrinterScanner.obj
 0001:000245c4       ??_ECPrinterScanner@@UAEPAXI@Z 004255c4 f i PrinterScanner.obj
 0001:000245c4       ??_GCPrinterScanner@@UAEPAXI@Z 004255c4 f i PrinterScanner.obj
 0001:000245e0       ?Expand@?$CDynaList@VCPrinter@@@@IAEXK@Z 004255e0 f i PrinterScanner.obj
 0001:000246b0       ?Add@?$CDynaList@VCPrinter@@@@QAEKABVCPrinter@@@Z 004256b0 f i PrinterScanner.obj
 0001:000246e1       ?ScanWMI@CPrinterScanner@@UAE_NPAVCWMIScanner@@@Z 004256e1 f   PrinterScanner.obj
 0001:00024985       ?SaveData@CPrinterScanner@@UAE_NPAVCAuditDataFile@@@Z 00425985 f   PrinterScanner.obj
 0001:00024bc3       ??0CPublisherMappings@@QAE@XZ 00425bc3 f   PublisherMappings.obj
 0001:00024bd7       ??1CPublisherMappings@@UAE@XZ 00425bd7 f   PublisherMappings.obj
 0001:00024be2       ?RationalizePublisherName@CPublisherMappings@@QAE?AV?$CStringT@DV?$StrTraitMFC@DV?$ChTraitsCRT@D@ATL@@@@@ATL@@AAV23@@Z 00425be2 f   PublisherMappings.obj
 0001:00024cd9       ?ScanRegistry9X@CPhysicalDiskScanner@@UAE_NXZ 00425cd9 f   PhysicalDiskScanner.obj
 0001:00024cd9       ?ScanRegistryNT@CQuickFixScanner@@UAE_NXZ 00425cd9 f   QuickFixScanner.obj
 0001:00024cd9       ?ScanRegistryXP@CPhysicalDiskScanner@@UAE_NXZ 00425cd9 f   PhysicalDiskScanner.obj
 0001:00024cd9       ?ScanRegistryNT@CPhysicalDiskScanner@@UAE_NXZ 00425cd9 f   PhysicalDiskScanner.obj
 0001:00024cd9       ?ScanRegistryXP@CQuickFixScanner@@UAE_NXZ 00425cd9 f   QuickFixScanner.obj
 0001:00024cd9       ?ScanRegistry9X@CQuickFixScanner@@UAE_NXZ 00425cd9 f   QuickFixScanner.obj
 0001:00024cd9       ?ScanExceptions@CAuditDataScanner@@UAE_NXZ 00425cd9 f   ActiveProcessScanner1.obj
 0001:00024cdc       ?SaveData@CQuickFixScanner@@UAE_NPAVCAuditDataFile@@@Z 00425cdc f   QuickFixScanner.obj
 0001:00024ce1       ??0CQuickFixScanner@@QAE@XZ 00425ce1 f   QuickFixScanner.obj
 0001:00024d05       ??1CQuickFixScanner@@UAE@XZ 00425d05 f   QuickFixScanner.obj
 0001:00024d3f       ??0CQuickFix@@QAE@XZ       00425d3f f   QuickFixScanner.obj
 0001:00024e1d       ??_ECQuickFixScanner@@UAEPAXI@Z 00425e1d f i QuickFixScanner.obj
 0001:00024e1d       ??_GCQuickFixScanner@@UAEPAXI@Z 00425e1d f i QuickFixScanner.obj
 0001:00024e39       ?Expand@?$CDynaList@VCQuickFix@@@@IAEXK@Z 00425e39 f i QuickFixScanner.obj
 0001:00024f09       ?Add@?$CDynaList@VCQuickFix@@@@QAEKABVCQuickFix@@@Z 00425f09 f i QuickFixScanner.obj
 0001:00024f3a       ?ScanWMI@CQuickFixScanner@@UAE_NPAVCWMIScanner@@@Z 00425f3a f   QuickFixScanner.obj
 0001:00025172       ??_G?$CDynaList@VCRegistryKey@@@@UAEPAXI@Z 00426172 f i RegistryScanner.obj
 0001:00025172       ??_E?$CDynaList@VCRegistryKey@@@@UAEPAXI@Z 00426172 f i RegistryScanner.obj
 0001:00025194       ??0CRegistryScanner@@QAE@XZ 00426194 f   RegistryScanner.obj
 0001:000251bf       ??1CRegistryScanner@@UAE@XZ 004261bf f   RegistryScanner.obj
 0001:000251e5       ?SetOptions@CRegistryScanner@@QAEXAAV?$CDynaList@V?$CStringT@DV?$StrTraitMFC@DV?$ChTraitsCRT@D@ATL@@@@@ATL@@@@@Z 004261e5 f   RegistryScanner.obj
 0001:000251ed       ??0CEnvironmentVariable@@QAE@XZ 004261ed f i EnvironmentVariablesScanner.obj
 0001:000251ed       ??0CRegistryKey@@QAE@XZ    004261ed f i RegistryScanner.obj
 0001:00025232       ??0CRegistryKey@@QAE@PBD0@Z 00426232 f i RegistryScanner.obj
 0001:00025232       ??0CEnvironmentVariable@@QAE@PBD0@Z 00426232 f i EnvironmentVariablesScanner.obj
 0001:00025278       ??_ECRegistryScanner@@UAEPAXI@Z 00426278 f i RegistryScanner.obj
 0001:00025278       ??_GCRegistryScanner@@UAEPAXI@Z 00426278 f i RegistryScanner.obj
 0001:00025294       ?Expand@?$CDynaList@VCRegistryKey@@@@IAEXK@Z 00426294 f i RegistryScanner.obj
 0001:00025294       ?Expand@?$CDynaList@VCEnvironmentVariable@@@@IAEXK@Z 00426294 f i EnvironmentVariablesScanner.obj
 0001:0002535b       ?Add@?$CDynaList@VCRegistryKey@@@@QAEKABVCRegistryKey@@@Z 0042635b f i RegistryScanner.obj
 0001:0002535b       ?Add@?$CDynaList@VCEnvironmentVariable@@@@QAEKABVCEnvironmentVariable@@@Z 0042635b f i EnvironmentVariablesScanner.obj
 0001:0002538c       ?Scan@CRegistryScanner@@QAE_NXZ 0042638c f   RegistryScanner.obj
 0001:00025555       ?Save@CRegistryScanner@@QAE_NAAVCAuditDataFile@@@Z 00426555 f   RegistryScanner.obj
 0001:00025667       ?Delete@?$CStringT@DV?$StrTraitMFC@DV?$ChTraitsCRT@D@ATL@@@@@ATL@@QAEHHH@Z 00426667 f i ScanUtil.obj
 0001:000256e1       ?FindVersionString@@YA?AV?$CStringT@DV?$StrTraitMFC@DV?$ChTraitsCRT@D@ATL@@@@@ATL@@PBD0@Z 004266e1 f   ScanUtil.obj
 0001:0002586a       ?MakeUniqueFileName@@YA?AV?$CStringT@DV?$StrTraitMFC@DV?$ChTraitsCRT@D@ATL@@@@@ATL@@PBD00@Z 0042686a f   ScanUtil.obj
 0001:00025a1d       ??1CAuditDataFileItem@@QAE@XZ 00426a1d f i StdAfx.obj
 0001:00025a1d       ??1CSystemService@@QAE@XZ  00426a1d f i ServicesScanner.obj
 0001:00025a41       ??_ECSystemService@@QAEPAXI@Z 00426a41 f i ServicesScanner.obj
 0001:00025a8a       ?Empty@?$CDynaList@VCSystemService@@@@QAEXXZ 00426a8a f i ServicesScanner.obj
 0001:00025aaf       ??1?$CDynaList@VCSystemService@@@@UAE@XZ 00426aaf f i ServicesScanner.obj
 0001:00025aba       ??_G?$CDynaList@VCSystemService@@@@UAEPAXI@Z 00426aba f i ServicesScanner.obj
 0001:00025aba       ??_E?$CDynaList@VCSystemService@@@@UAEPAXI@Z 00426aba f i ServicesScanner.obj
 0001:00025adc       ?StartMode@CSystemService@@QAEXV?$CStringT@DV?$StrTraitMFC@DV?$ChTraitsCRT@D@ATL@@@@@ATL@@@Z 00426adc f i ServicesScanner.obj
 0001:00025adc       ?Name@CApplicationInstance@@QAEXV?$CStringT@DV?$StrTraitMFC@DV?$ChTraitsCRT@D@ATL@@@@@ATL@@@Z 00426adc f i ApplicationInstance.obj
 0001:00025adc       ?DisplayUnits@CAuditDataFileItem@@QAEXV?$CStringT@DV?$StrTraitMFC@DV?$ChTraitsCRT@D@ATL@@@@@ATL@@@Z 00426adc f i AuditDataFile.obj
 0001:00025b0b       ??1CServicesScanner@@UAE@XZ 00426b0b f   ServicesScanner.obj
 0001:00025b2a       ??4CSystemService@@QAEAAV0@ABV0@@Z 00426b2a f i ServicesScanner.obj
 0001:00025b57       ??0CSystemService@@QAE@XZ  00426b57 f i ServicesScanner.obj
 0001:00025bb1       ??0CSystemService@@QAE@PBD00@Z 00426bb1 f i ServicesScanner.obj
 0001:00025c0b       ??0CServicesScanner@@QAE@XZ 00426c0b f   ServicesScanner.obj
 0001:00025c55       ??_ECServicesScanner@@UAEPAXI@Z 00426c55 f i ServicesScanner.obj
 0001:00025c55       ??_GCServicesScanner@@UAEPAXI@Z 00426c55 f i ServicesScanner.obj
 0001:00025c71       ?DetectActiveServices@CServicesScanner@@IAEXXZ 00426c71 f   ServicesScanner.obj
 0001:00025e1e       ?Expand@?$CDynaList@VCSystemService@@@@IAEXK@Z 00426e1e f i ServicesScanner.obj
 0001:00025eee       ?CheckMuiCache@CServicesScanner@@IAE?AV?$CStringT@DV?$StrTraitMFC@DV?$ChTraitsCRT@D@ATL@@@@@ATL@@AAV23@@Z 00426eee f   ServicesScanner.obj
 0001:00026016       ?Add@?$CDynaList@VCSystemService@@@@QAEKABVCSystemService@@@Z 00427016 f i ServicesScanner.obj
 0001:00026047       ?ScanWMI@CServicesScanner@@UAE_NPAVCWMIScanner@@@Z 00427047 f   ServicesScanner.obj
 0001:00026190       ?DetectInstalledServices@CServicesScanner@@IAEXXZ 00427190 f   ServicesScanner.obj
 0001:000263d2       ?SaveData@CServicesScanner@@UAE_NPAVCAuditDataFile@@@Z 004273d2 f   ServicesScanner.obj
 0001:000265f2       ?ScanServices@CServicesScanner@@IAEXXZ 004275f2 f   ServicesScanner.obj
 0001:0002666f       ?ScanRegistry9X@CServicesScanner@@UAE_NXZ 0042766f f   ServicesScanner.obj
 0001:0002666f       ?ScanRegistryXP@CServicesScanner@@UAE_NXZ 0042766f f   ServicesScanner.obj
 0001:0002666f       ?ScanRegistryNT@CServicesScanner@@UAE_NXZ 0042766f f   ServicesScanner.obj
 0001:00026677       ?Scan@CSoftwareScanner@@QAE_NPAVCAuditScannerConfiguration@@@Z 00427677 f   SoftwareScanner.obj
 0001:000266b1       ?GetAt@CApplicationInstanceList@@QAEPAVCApplicationInstance@@H@Z 004276b1 f i SoftwareScanner.obj
 0001:000266ce       ?Save@CSoftwareScanner@@QAE_NAAVCAuditDataFile@@@Z 004276ce f   SoftwareScanner.obj
 0001:0002673a       ??0CApplicationInstanceList@@QAE@XZ 0042773a f i SoftwareScanner.obj
 0001:0002677e       ??1CApplicationInstanceList@@QAE@XZ 0042777e f i SoftwareScanner.obj
 0001:000267cd       ??1CSoftwareScanner@@UAE@XZ 004277cd f   SoftwareScanner.obj
 0001:000267db       ??0CSoftwareScanner@@QAE@XZ 004277db f   SoftwareScanner.obj
 0001:000267f0       ??_GCSoftwareScanner@@UAEPAXI@Z 004277f0 f i SoftwareScanner.obj
 0001:000267f0       ??_ECSoftwareScanner@@UAEPAXI@Z 004277f0 f i SoftwareScanner.obj
 0001:0002680c       ?ParseMultiSZ@CSystemBiosScanner@@IAEPBDPBD@Z 0042780c f i SystemBiosScanner.obj
 0001:00026846       ??1CSystemBiosScanner@@UAE@XZ 00427846 f   SystemBiosScanner.obj
 0001:000268d4       ??_ECSystemBiosScanner@@UAEPAXI@Z 004278d4 f i SystemBiosScanner.obj
 0001:000268d4       ??_GCSystemBiosScanner@@UAEPAXI@Z 004278d4 f i SystemBiosScanner.obj
 0001:000268f0       ?AssetTag@CSystemBiosScanner@@QAEXAAV?$CStringT@DV?$StrTraitMFC@DV?$ChTraitsCRT@D@ATL@@@@@ATL@@@Z 004278f0 f i SystemBiosScanner.obj
 0001:00026910       ?SystemManufacturer@CSystemBiosScanner@@QAEXAAV?$CStringT@DV?$StrTraitMFC@DV?$ChTraitsCRT@D@ATL@@@@@ATL@@@Z 00427910 f i SystemBiosScanner.obj
 0001:00026930       ?SystemModel@CSystemBiosScanner@@QAEXAAV?$CStringT@DV?$StrTraitMFC@DV?$ChTraitsCRT@D@ATL@@@@@ATL@@@Z 00427930 f i SystemBiosScanner.obj
 0001:00026950       ?SystemSerialNumber@CSystemBiosScanner@@QAEXAAV?$CStringT@DV?$StrTraitMFC@DV?$ChTraitsCRT@D@ATL@@@@@ATL@@@Z 00427950 f i SystemBiosScanner.obj
 0001:00026970       ?BiosManufacturer@CSystemBiosScanner@@QAEXAAV?$CStringT@DV?$StrTraitMFC@DV?$ChTraitsCRT@D@ATL@@@@@ATL@@@Z 00427970 f i SystemBiosScanner.obj
 0001:00026990       ?BiosVersion@CSystemBiosScanner@@QAEXAAV?$CStringT@DV?$StrTraitMFC@DV?$ChTraitsCRT@D@ATL@@@@@ATL@@@Z 00427990 f i SystemBiosScanner.obj
 0001:000269b0       ?BiosDate@CSystemBiosScanner@@QAEXAAV?$CStringT@DV?$StrTraitMFC@DV?$ChTraitsCRT@D@ATL@@@@@ATL@@@Z 004279b0 f i SystemBiosScanner.obj
 0001:000269d0       ?UUID@CSystemBiosScanner@@QAEXPBD@Z 004279d0 f i SystemBiosScanner.obj
 0001:000269f9       ?ChassisType@CSystemBiosScanner@@QAEXAAV?$CStringT@DV?$StrTraitMFC@DV?$ChTraitsCRT@D@ATL@@@@@ATL@@@Z 004279f9 f i SystemBiosScanner.obj
 0001:00026a19       ??0CSystemBiosScanner@@QAE@XZ 00427a19 f   SystemBiosScanner.obj
 0001:00026b1b       ?ScanWMI@CSystemBiosScanner@@UAE_NPAVCWMIScanner@@@Z 00427b1b f   SystemBiosScanner.obj
 0001:0002710b       ?ScanRegistryXP@CSystemBiosScanner@@UAE_NXZ 0042810b f   SystemBiosScanner.obj
 0001:00027465       ?SaveData@CSystemBiosScanner@@UAE_NPAVCAuditDataFile@@@Z 00428465 f   SystemBiosScanner.obj
 0001:0002765e       ??1CSystemProcessorScanner@@UAE@XZ 0042865e f   SystemProcessorScanner.obj
 0001:000276a6       ??_ECSystemProcessorScanner@@UAEPAXI@Z 004286a6 f i SystemProcessorScanner.obj
 0001:000276a6       ??_GCSystemProcessorScanner@@UAEPAXI@Z 004286a6 f i SystemProcessorScanner.obj
 0001:000276c2       ??0CSystemProcessorScanner@@QAE@XZ 004286c2 f   SystemProcessorScanner.obj
 0001:00027723       ?ScanWMI@CSystemProcessorScanner@@UAE_NPAVCWMIScanner@@@Z 00428723 f   SystemProcessorScanner.obj
 0001:000279e0       ?ScanRegistryForNameSpeed@CSystemProcessorScanner@@UAE_NXZ 004289e0 f   SystemProcessorScanner.obj
 0001:00027bf6       ?ScanRegistryXP@CSystemProcessorScanner@@UAE_NXZ 00428bf6 f   SystemProcessorScanner.obj
 0001:00027e6e       ?SaveData@CSystemProcessorScanner@@UAE_NPAVCAuditDataFile@@@Z 00428e6e f   SystemProcessorScanner.obj
 0001:000280b1       ??0CTcpClient@@QAE@XZ      004290b1 f   TcpClient.obj
 0001:000280d4       ??1CTcpClient@@UAE@XZ      004290d4 f   TcpClient.obj
 0001:0002813b       ??1CFileException@@UAE@XZ  0042913b f i TcpClient.obj
 0001:0002814c       ??_GCTcpClient@@UAEPAXI@Z  0042914c f i TcpClient.obj
 0001:0002814c       ??_ECTcpClient@@UAEPAXI@Z  0042914c f i TcpClient.obj
 0001:00028168       ??_GCFileException@@UAEPAXI@Z 00429168 f i TcpClient.obj
 0001:00028168       ??_ECFileException@@UAEPAXI@Z 00429168 f i TcpClient.obj
 0001:00028190       ??0CFileException@@QAE@HJPBD@Z 00429190 f i TcpClient.obj
 0001:000281da       ?ConnectThread@CTcpClient@@CAKPAX@Z 004291da f   TcpClient.obj
 0001:000284f5       ?SendFile@CTcpClient@@QAEHAAV?$CStringT@DV?$StrTraitMFC@DV?$ChTraitsCRT@D@ATL@@@@@ATL@@@Z 004294f5 f   TcpClient.obj
 0001:00028749       ?Connect@CTcpClient@@QAE_NV?$CStringT@DV?$StrTraitMFC@DV?$ChTraitsCRT@D@ATL@@@@@ATL@@GP6AX0J@ZJ@Z 00429749 f   TcpClient.obj
 0001:000287ca       ??$AtlMultiply@I@ATL@@YAJPAIII@Z 004297ca f i UpdateFile.obj
 0001:000287ea       ?FreeHeap@?$CTempBuffer@_W$0IA@VCCRTAllocator@ATL@@@ATL@@AAEXXZ 004297ea f i UpdateFile.obj
 0001:000287ea       ?FreeHeap@?$CTempBuffer@D$0IA@VCCRTAllocator@ATL@@@ATL@@AAEXXZ 004297ea f i UpdateFile.obj
 0001:000287f3       ?AllocateHeap@?$CTempBuffer@D$0IA@VCCRTAllocator@ATL@@@ATL@@AAEXI@Z 004297f3 f i UpdateFile.obj
 0001:000287f3       ?AllocateHeap@?$CTempBuffer@_W$0IA@VCCRTAllocator@ATL@@@ATL@@AAEXI@Z 004297f3 f i UpdateFile.obj
 0001:00028814       ??$AtlMultiplyThrow@I@ATL@@YAIII@Z 00429814 f i UpdateFile.obj
 0001:00028839       ??6CArchive@@QAEAAV0@K@Z   00429839 f i UpdateFile.obj
 0001:00028872       ??5CArchive@@QAEAAV0@AAK@Z 00429872 f i UpdateFile.obj
 0001:000288b4       ??1?$CTempBuffer@D$0IA@VCCRTAllocator@ATL@@@ATL@@QAE@XZ 004298b4 f i UpdateFile.obj
 0001:000288b4       ??1?$CTempBuffer@_W$0IA@VCCRTAllocator@ATL@@@ATL@@QAE@XZ 004298b4 f i UpdateFile.obj
 0001:000288c1       ?AllocateBytes@?$CTempBuffer@D$0IA@VCCRTAllocator@ATL@@@ATL@@QAEPADI@Z 004298c1 f i UpdateFile.obj
 0001:000288c1       ?AllocateBytes@?$CTempBuffer@_W$0IA@VCCRTAllocator@ATL@@@ATL@@QAEPA_WI@Z 004298c1 f i UpdateFile.obj
 0001:000288e4       ??$?6DV?$StrTraitMFC@DV?$ChTraitsCRT@D@ATL@@@@@CArchive@@QAEAAV0@ABV?$CStringT@DV?$StrTraitMFC@DV?$ChTraitsCRT@D@ATL@@@@@ATL@@@Z 004298e4 f i UpdateFile.obj
 0001:0002890d       ??0?$CStringT@DV?$StrTraitMFC@DV?$ChTraitsCRT@D@ATL@@@@@ATL@@QAE@PBDH@Z 0042990d f i UpdateFile.obj
 0001:0002892b       ?Allocate@?$CTempBuffer@D$0IA@VCCRTAllocator@ATL@@@ATL@@QAEPADI@Z 0042992b f i UpdateFile.obj
 0001:00028947       ?Allocate@?$CTempBuffer@_W$0IA@VCCRTAllocator@ATL@@@ATL@@QAEPA_WI@Z 00429947 f i UpdateFile.obj
 0001:00028963       ??0?$CStringT@DV?$StrTraitMFC@DV?$ChTraitsCRT@D@ATL@@@@@ATL@@QAE@PB_WH@Z 00429963 f i UpdateFile.obj
 0001:000289d3       ??$?5DV?$StrTraitMFC@DV?$ChTraitsCRT@D@ATL@@@@@CArchive@@QAEAAV0@AAV?$CStringT@DV?$StrTraitMFC@DV?$ChTraitsCRT@D@ATL@@@@@ATL@@@Z 004299d3 f i UpdateFile.obj
 0001:00028b0a       ??1?$CDynaList@VCUserDataField@@@@UAE@XZ 00429b0a f i UserDataCategory.obj
 0001:00028b15       ??_E?$CDynaList@VCUserDataField@@@@UAEPAXI@Z 00429b15 f i UserDataCategory.obj
 0001:00028b15       ??_G?$CDynaList@VCUserDataField@@@@UAEPAXI@Z 00429b15 f i UserDataCategory.obj
 0001:00028b37       ??1CUserDataCategory@@UAE@XZ 00429b37 f   UserDataCategory.obj
 0001:00028b5a       ??0CUserDataCategory@@QAE@XZ 00429b5a f   UserDataCategory.obj
 0001:00028ba8       ??0CUserDataField@@QAE@XZ  00429ba8 f   UserDataCategory.obj
 0001:00028c21       ?Empty@?$CDynaList@VCUserAccount@@@@QAEXXZ 00429c21 f i UsersScanner.obj
 0001:00028c21       ?Empty@?$CDynaList@VCPicklist@@@@QAEXXZ 00429c21 f i PageScanning.obj
 0001:00028c21       ?Empty@?$CDynaList@VCUserDataCategory@@@@QAEXXZ 00429c21 f i PageScanning.obj
 0001:00028c21       ?Empty@?$CDynaList@VCInternetHistoryEntry@@@@QAEXXZ 00429c21 f i AlertTriggerScanner.obj
 0001:00028c21       ?Empty@?$CDynaList@VCAuditLocation@@@@QAEXXZ 00429c21 f i PageScanning.obj
 0001:00028c21       ?Empty@?$CDynaList@VCInstalledPatch@@@@QAEXXZ 00429c21 f i PageScanning.obj
 0001:00028c55       ??1?$CDynaList@VCUserAccount@@@@UAE@XZ 00429c55 f i UsersScanner.obj
 0001:00028c60       ??_E?$CDynaList@VCUserAccount@@@@UAEPAXI@Z 00429c60 f i UsersScanner.obj
 0001:00028c60       ??_G?$CDynaList@VCUserAccount@@@@UAEPAXI@Z 00429c60 f i UsersScanner.obj
 0001:00028c82       ??1CUsersScanner@@UAE@XZ   00429c82 f   UsersScanner.obj
 0001:00028cbc       ??0CUserAccount@@QAE@XZ    00429cbc f i UsersScanner.obj
 0001:00028ce9       ??1CUserAccount@@UAE@XZ    00429ce9 f i UsersScanner.obj
 0001:00028d14       ??_ECUsersScanner@@UAEPAXI@Z 00429d14 f i UsersScanner.obj
 0001:00028d14       ??_GCUsersScanner@@UAEPAXI@Z 00429d14 f i UsersScanner.obj
 0001:00028d30       ??_ECUserAccount@@UAEPAXI@Z 00429d30 f i UsersScanner.obj
 0001:00028d79       ??0?$CStringT@DV?$StrTraitMFC@DV?$ChTraitsCRT@D@ATL@@@@@ATL@@QAE@PB_W@Z 00429d79 f i UsersScanner.obj
 0001:00028dbd       ??4CUserAccount@@QAEAAV0@ABV0@@Z 00429dbd f i UsersScanner.obj
 0001:00028e08       ?Expand@?$CDynaList@VCUserAccount@@@@IAEXK@Z 00429e08 f i UsersScanner.obj
 0001:00028ee8       ??0CUsersScanner@@QAE@XZ   00429ee8 f   UsersScanner.obj
 0001:00028f32       ?Add@?$CDynaList@VCUserAccount@@@@QAEKABVCUserAccount@@@Z 00429f32 f i UsersScanner.obj
 0001:00028f63       ??0CUserAccount@@QAE@PBD00HAAVCTime@ATL@@H@Z 00429f63 f i UsersScanner.obj
 0001:00028fc7       ?ScanUsers@CUsersScanner@@IAEXXZ 00429fc7 f   UsersScanner.obj
 0001:000291bd       ?ScanRegistryNT@CUsersScanner@@UAE_NXZ 0042a1bd f   UsersScanner.obj
 0001:000291bd       ?ScanRegistryXP@CUsersScanner@@UAE_NXZ 0042a1bd f   UsersScanner.obj
 0001:000291bd       ?ScanRegistry9X@CUsersScanner@@UAE_NXZ 0042a1bd f   UsersScanner.obj
 0001:000291ef       ?SaveData@CUsersScanner@@UAE_NPAVCAuditDataFile@@@Z 0042a1ef f   UsersScanner.obj
 0001:0002942f       ??1CWindowsSecurityScanner@@UAE@XZ 0042a42f f   WindowsSecurityScanner.obj
 0001:00029472       ?ScanWindowsSecurity@CWindowsSecurityScanner@@IAEXXZ 0042a472 f   WindowsSecurityScanner.obj
 0001:000294ed       ??_ECWindowsSecurityScanner@@UAEPAXI@Z 0042a4ed f i WindowsSecurityScanner.obj
 0001:000294ed       ??_GCWindowsSecurityScanner@@UAEPAXI@Z 0042a4ed f i WindowsSecurityScanner.obj
 0001:00029509       ?ScanRegistryXP@CWindowsSecurityScanner@@UAE_NXZ 0042a509 f   WindowsSecurityScanner.obj
 0001:00029509       ?ScanRegistry9X@CWindowsSecurityScanner@@UAE_NXZ 0042a509 f   WindowsSecurityScanner.obj
 0001:00029509       ?ScanRegistryNT@CWindowsSecurityScanner@@UAE_NXZ 0042a509 f   WindowsSecurityScanner.obj
 0001:0002953b       ??0CWindowsSecurityScanner@@QAE@XZ 0042a53b f   WindowsSecurityScanner.obj
 0001:00029588       ?SaveData@CWindowsSecurityScanner@@UAE_NPAVCAuditDataFile@@@Z 0042a588 f   WindowsSecurityScanner.obj
 0001:000298a9       ??1CWindowsUpdate@@UAE@XZ  0042a8a9 f   WindowsUpdate.obj
 0001:000298d4       ??_ECWindowsUpdate@@UAEPAXI@Z 0042a8d4 f i WindowsUpdate.obj
 0001:000298d4       ??_GCWindowsUpdate@@UAEPAXI@Z 0042a8d4 f i WindowsUpdate.obj
 0001:000298f0       ??0CWindowsUpdate@@QAE@XZ  0042a8f0 f   WindowsUpdate.obj
 0001:00029950       ?Detect@CWindowsUpdate@@QAEXXZ 0042a950 f   WindowsUpdate.obj
 0001:00029a67       ??0CWMIScanner@@QAE@XZ     0042aa67 f   WMIScanner.obj
 0001:00029a77       ?Disconnect@CWMIScanner@@QAEHXZ 0042aa77 f   WMIScanner.obj
 0001:00029a85       ?IsConnected@CWMIScanner@@QAEHXZ 0042aa85 f   WMIScanner.obj
 0001:00029a89       ??1CWMIScanner@@QAE@XZ     0042aa89 f   WMIScanner.obj
 0001:00029a93       ?Connect@CWMIScanner@@QAEHXZ 0042aa93 f   WMIScanner.obj
 0001:00029b52       _WNetCloseEnum@4           0042ab52 f   mpr:MPR.dll
 0001:00029b58       _WNetEnumResourceA@16      0042ab58 f   mpr:MPR.dll
 0001:00029b5e       _WNetOpenEnumA@20          0042ab5e f   mpr:MPR.dll
 0001:00029b64       _VerQueryValueA@16         0042ab64 f   version:VERSION.dll
 0001:00029b6a       _GetFileVersionInfoA@16    0042ab6a f   version:VERSION.dll
 0001:00029b70       _GetFileVersionInfoSizeA@8 0042ab70 f   version:VERSION.dll
 0001:00029b80       ?nextIdx@CkSFtp@@AAEKXZ    0042ab80 f   ChilkatRel:CkSFtp.obj
 0001:00029b80       ?nextIdx@CkCrypt2@@AAEKXZ  0042ab80 f   ChilkatRel:CkCrypt2.obj
 0001:00029bc0       ?lastErrorText@CkSFtp@@QAEPBDXZ 0042abc0 f   ChilkatRel:CkSFtp.obj
 0001:00029c40       ??_GCkSFtp@@UAEPAXI@Z      0042ac40 f i ChilkatRel:CkSFtp.obj
 0001:00029c40       ??_ECkSFtp@@UAEPAXI@Z      0042ac40 f i ChilkatRel:CkSFtp.obj
 0001:00029c70       ??1CkSFtp@@UAE@XZ          0042ac70 f   ChilkatRel:CkSFtp.obj
 0001:00029d20       ??0CkSFtp@@QAE@XZ          0042ad20 f   ChilkatRel:CkSFtp.obj
 0001:00029e00       ?LastErrorText@CkSFtp@@QAEXAAVCkString@@@Z 0042ae00 f   ChilkatRel:CkSFtp.obj
 0001:00029e40       ?UnlockComponent@CkSFtp@@QAE_NPBD@Z 0042ae40 f   ChilkatRel:CkSFtp.obj
 0001:00029ef0       ?put_ConnectTimeoutMs@CkSFtp@@QAEXH@Z 0042aef0 f   ChilkatRel:CkSFtp.obj
 0001:00029f20       ?put_IdleTimeoutMs@CkSFtp@@QAEXH@Z 0042af20 f   ChilkatRel:CkSFtp.obj
 0001:00029f50       ?Connect@CkSFtp@@QAE_NPBDH@Z 0042af50 f   ChilkatRel:CkSFtp.obj
 0001:0002a030       ??0CkSFtpCb@@QAE@PAVCkSFtpProgress@@@Z 0042b030 f i ChilkatRel:CkSFtp.obj
 0001:0002a060       ??1CkSFtpCb@@UAE@XZ        0042b060 f i ChilkatRel:CkSFtp.obj
 0001:0002a080       ?AbortCheck@CkSFtpCb@@UAEXAA_N@Z 0042b080 f i ChilkatRel:CkSFtp.obj
 0001:0002a0b0       ?Heartbeat@CkSFtpCb@@UAEXHAA_N@Z 0042b0b0 f i ChilkatRel:CkSFtp.obj
 0001:0002a0e0       ?UpdatePct@CkSFtpCb@@UAEXHAA_N@Z 0042b0e0 f i ChilkatRel:CkSFtp.obj
 0001:0002a120       ??_GCkSFtpCb@@UAEPAXI@Z    0042b120 f i ChilkatRel:CkSFtp.obj
 0001:0002a120       ??_ECkSFtpCb@@UAEPAXI@Z    0042b120 f i ChilkatRel:CkSFtp.obj
 0001:0002a150       ?AuthenticatePw@CkSFtp@@QAE_NPBD0@Z 0042b150 f   ChilkatRel:CkSFtp.obj
 0001:0002a270       ?InitializeSftp@CkSFtp@@QAE_NXZ 0042b270 f   ChilkatRel:CkSFtp.obj
 0001:0002a2f0       ?OpenDir@CkSFtp@@QAE_NPBDAAVCkString@@@Z 0042b2f0 f   ChilkatRel:CkSFtp.obj
 0001:0002a3e0       ?openDir@CkSFtp@@QAEPBDPBD@Z 0042b3e0 f   ChilkatRel:CkSFtp.obj
 0001:0002a470       ?CloseHandle@CkSFtp@@QAE_NPBD@Z 0042b470 f   ChilkatRel:CkSFtp.obj
 0001:0002a550       ?ReadDir@CkSFtp@@QAEPAVCkSFtpDir@@PBD@Z 0042b550 f   ChilkatRel:CkSFtp.obj
 0001:0002a6c0       ?UploadFileByName@CkSFtp@@QAE_NPBD0@Z 0042b6c0 f   ChilkatRel:CkSFtp.obj
 0001:0002a7e0       ?nextIdx@CkSFtpFile@@AAEKXZ 0042b7e0 f   ChilkatRel:CkSFtpFile.obj
 0001:0002a820       ??_ECkSFtpFile@@UAEPAXI@Z  0042b820 f i ChilkatRel:CkSFtpFile.obj
 0001:0002a820       ??_GCkSFtpFile@@UAEPAXI@Z  0042b820 f i ChilkatRel:CkSFtpFile.obj
 0001:0002a850       ??0CkSFtpFile@@QAE@PAX@Z   0042b850 f   ChilkatRel:CkSFtpFile.obj
 0001:0002a8d0       ??1CkSFtpFile@@UAE@XZ      0042b8d0 f   ChilkatRel:CkSFtpFile.obj
 0001:0002a980       ?get_Filename@CkSFtpFile@@QAEXAAVCkString@@@Z 0042b980 f   ChilkatRel:CkSFtpFile.obj
 0001:0002a9b0       ?filename@CkSFtpFile@@QAEPBDXZ 0042b9b0 f   ChilkatRel:CkSFtpFile.obj
 0001:0002aa30       ??_GCkSFtpDir@@UAEPAXI@Z   0042ba30 f i ChilkatRel:CkSFtpDir.obj
 0001:0002aa30       ??_ECkSFtpDir@@UAEPAXI@Z   0042ba30 f i ChilkatRel:CkSFtpDir.obj
 0001:0002aa60       ??0CkSFtpDir@@QAE@PAX@Z    0042ba60 f   ChilkatRel:CkSFtpDir.obj
 0001:0002aae0       ??1CkSFtpDir@@UAE@XZ       0042bae0 f   ChilkatRel:CkSFtpDir.obj
 0001:0002ab90       ?get_NumFilesAndDirs@CkSFtpDir@@QAEHXZ 0042bb90 f   ChilkatRel:CkSFtpDir.obj
 0001:0002abb0       ?GetFileObject@CkSFtpDir@@QAEPAVCkSFtpFile@@H@Z 0042bbb0 f   ChilkatRel:CkSFtpDir.obj
 0001:0002ac50       ?decryptStringENC@CkCrypt2@@QAEPBDPBD@Z 0042bc50 f   ChilkatRel:CkCrypt2.obj
 0001:0002ad80       ??_GCkCrypt2@@UAEPAXI@Z    0042bd80 f i ChilkatRel:CkCrypt2.obj
 0001:0002ad80       ??_ECkCrypt2@@UAEPAXI@Z    0042bd80 f i ChilkatRel:CkCrypt2.obj
 0001:0002adb0       ??1CkCrypt2@@UAE@XZ        0042bdb0 f   ChilkatRel:CkCrypt2.obj
 0001:0002ae60       ??0CkCrypt2@@QAE@XZ        0042be60 f   ChilkatRel:CkCrypt2.obj
 0001:0002af40       ?DecryptStringENC@CkCrypt2@@QAE_NPBDAAVCkString@@@Z 0042bf40 f   ChilkatRel:CkCrypt2.obj
 0001:0002b030       ?put_EncodingMode@CkCrypt2@@QAEXPBD@Z 0042c030 f   ChilkatRel:CkCrypt2.obj
 0001:0002b0d0       ?put_CryptAlgorithm@CkCrypt2@@QAEXPBD@Z 0042c0d0 f   ChilkatRel:CkCrypt2.obj
 0001:0002b100       ?SetEncodedKey@CkCrypt2@@QAEXPBD0@Z 0042c100 f   ChilkatRel:CkCrypt2.obj
 0001:0002b210       ?SetEncodedIV@CkCrypt2@@QAEXPBD0@Z 0042c210 f   ChilkatRel:CkCrypt2.obj
 0001:0002b320       ?put_CipherMode@CkCrypt2@@QAEXPBD@Z 0042c320 f   ChilkatRel:CkCrypt2.obj
 0001:0002b3c0       ?put_PaddingScheme@CkCrypt2@@QAEXJ@Z 0042c3c0 f   ChilkatRel:CkCrypt2.obj
 0001:0002b3f0       ?put_KeyLength@CkCrypt2@@QAEXJ@Z 0042c3f0 f   ChilkatRel:CkCrypt2.obj
 0001:0002b420       ?UnlockComponent@CkCrypt2@@QAE_NPBD@Z 0042c420 f   ChilkatRel:CkCrypt2.obj
 0001:0002b460       ??0CkString@@QAE@XZ        0042c460 f   ChilkatRel:CkString.obj
 0001:0002b540       ??_ECkString@@UAEPAXI@Z    0042c540 f i ChilkatRel:CkString.obj
 0001:0002b540       ??_GCkString@@UAEPAXI@Z    0042c540 f i ChilkatRel:CkString.obj
 0001:0002b570       ??1CkString@@UAE@XZ        0042c570 f   ChilkatRel:CkString.obj
 0001:0002b660       ??4CkString@@QAEAAV0@PBD@Z 0042c660 f   ChilkatRel:CkString.obj
 0001:0002b6a0       ??BCkString@@QAEPBDXZ      0042c6a0 f   ChilkatRel:CkString.obj
 0001:0002b6c0       ?getAnsi@CkString@@QBEPBDXZ 0042c6c0 f   ChilkatRel:CkString.obj
 0001:0002b6f0       ?getUtf8@CkString@@QBEPBDXZ 0042c6f0 f   ChilkatRel:CkString.obj
 0001:0002b710       ?clear@CkString@@QAEXXZ    0042c710 f   ChilkatRel:CkString.obj
 0001:0002b730       ?setStringUtf8@CkString@@QAEXPBD@Z 0042c730 f   ChilkatRel:CkString.obj
 0001:0002b760       ?getString@CkString@@QBEPBDXZ 0042c760 f   ChilkatRel:CkString.obj
 0001:0002b7a0       ??0CkObject@@QAE@XZ        0042c7a0 f   ChilkatRel:CkObject.obj
 0001:0002b7c0       ??_GCkObject@@UAEPAXI@Z    0042c7c0 f i ChilkatRel:CkObject.obj
 0001:0002b7c0       ??_ECkObject@@UAEPAXI@Z    0042c7c0 f i ChilkatRel:CkObject.obj
 0001:0002b7f0       ??1CkObject@@UAE@XZ        0042c7f0 f   ChilkatRel:CkObject.obj
 0001:0002b810       ?handleReadFailure@ClsSFtp@@AAEXAAUSocketReadFailInfo@@_NAAVLogBase@@@Z 0042c810 f   ChilkatRel:ClsSFtp.obj
 0001:0002ba80       ?checkInitialized@ClsSFtp@@AAE_NXZ 0042ca80 f   ChilkatRel:ClsSFtp.obj
 0001:0002bad0       ?checkConnected@ClsSFtp@@AAE_NXZ 0042cad0 f   ChilkatRel:ClsSFtp.obj
 0001:0002bb30       ?checkChannel@ClsSFtp@@AAE_NXZ 0042cb30 f   ChilkatRel:ClsSFtp.obj
 0001:0002bbc0       ?checkUnlocked@ClsSFtp@@AAE_NXZ 0042cbc0 f   ChilkatRel:ClsSFtp.obj
 0001:0002bcd0       ?UnlockComponent@ClsSFtp@@QAE_NAAVXString@@@Z 0042ccd0 f   ChilkatRel:ClsSFtp.obj
 0001:0002bdd0       ?put_IdleTimeoutMs@ClsSFtp@@QAEXJ@Z 0042cdd0 f   ChilkatRel:ClsSFtp.obj
 0001:0002be00       ?put_ConnectTimeoutMs@ClsSFtp@@QAEXJ@Z 0042ce00 f   ChilkatRel:ClsSFtp.obj
 0001:0002be30       ?findAttrInCache@ClsSFtp@@AAEPBVSFtpFileAttr@@_NABVStringBuffer@chilkat@@@Z 0042ce30 f   ChilkatRel:ClsSFtp.obj
 0001:0002bea0       ?findAttrIndexInCache@ClsSFtp@@AAEH_NABVStringBuffer@chilkat@@@Z 0042cea0 f   ChilkatRel:ClsSFtp.obj
 0001:0002bfb0       ?addToAttrCache2@ClsSFtp@@AAE_NPAVSFtpFileAttr@@@Z 0042cfb0 f   ChilkatRel:ClsSFtp.obj
 0001:0002c0a0       ??0SftpLastRead@@QAE@XZ    0042d0a0 f   ChilkatRel:ClsSFtp.obj
 0001:0002c150       ??_GSftpLastRead@@UAEPAXI@Z 0042d150 f i ChilkatRel:ClsSFtp.obj
 0001:0002c150       ??_ESftpLastRead@@UAEPAXI@Z 0042d150 f i ChilkatRel:ClsSFtp.obj
 0001:0002c180       ??1SftpLastRead@@UAE@XZ    0042d180 f   ChilkatRel:ClsSFtp.obj
 0001:0002c1e0       ??0ClsSFtp@@QAE@XZ         0042d1e0 f   ChilkatRel:ClsSFtp.obj
 0001:0002c450       ??_EClsSFtp@@UAEPAXI@Z     0042d450 f i ChilkatRel:ClsSFtp.obj
 0001:0002c450       ??_GClsSFtp@@UAEPAXI@Z     0042d450 f i ChilkatRel:ClsSFtp.obj
 0001:0002c480       ??0dsa_key@@QAE@XZ         0042d480 f i ChilkatRel:ClsSFtp.obj
 0001:0002c510       ??1dsa_key@@QAE@XZ         0042d510 f i ChilkatRel:ClsSFtp.obj
 0001:0002c5a0       ??1ClsSFtp@@UAE@XZ         0042d5a0 f   ChilkatRel:ClsSFtp.obj
 0001:0002c800       ?enterContext@ClsSFtp@@AAEXPBD@Z 0042d800 f   ChilkatRel:ClsSFtp.obj
 0001:0002c8c0       ?logStatusResponse@ClsSFtp@@AAEXPBDAAVDataBuffer@@AAVLogBase@@@Z 0042d8c0 f   ChilkatRel:ClsSFtp.obj
 0001:0002c9b0       ?packAttrs@ClsSFtp@@AAE_NAAVXString@@AAVDataBuffer@@AAVLogBase@@@Z 0042d9b0 f   ChilkatRel:ClsSFtp.obj
 0001:0002ce60       ?openFile@ClsSFtp@@AAE_NAAVXString@@000AAVLogBase@@PAVProgressMonitor@@0@Z 0042de60 f   ChilkatRel:ClsSFtp.obj
 0001:0002d790       ?OpenDir@ClsSFtp@@QAE_NAAVXString@@0PAVProgressEvent@@@Z 0042e790 f   ChilkatRel:ClsSFtp.obj
 0001:0002dd20       ?writeFile2@ClsSFtp@@AAE_NAAVXString@@_JPBEKPAVProgressMonitor@@AAVLogBase@@@Z 0042ed20 f   ChilkatRel:ClsSFtp.obj
 0001:0002e030       ?closeHandle@ClsSFtp@@QAE_NAAVXString@@PAVProgressMonitor@@AAVLogBase@@@Z 0042f030 f   ChilkatRel:ClsSFtp.obj
 0001:0002e210       ?CloseHandle@ClsSFtp@@QAE_NAAVXString@@PAVProgressEvent@@@Z 0042f210 f   ChilkatRel:ClsSFtp.obj
 0001:0002e340       ?fetchAttributes2@ClsSFtp@@AAEPAVSFtpFileAttr@@AAVXString@@_N11AA_NPAVProgressMonitor@@AAVLogBase@@@Z 0042f340 f   ChilkatRel:ClsSFtp.obj
 0001:0002e9c0       ?getFileSize@ClsSFtp@@AAE_JAAVXString@@_N1AAVLogBase@@PAVProgressMonitor@@@Z 0042f9c0 f   ChilkatRel:ClsSFtp.obj
 0001:0002ea90       ?ReadDir@ClsSFtp@@QAEPAVClsSFtpDir@@AAVXString@@PAVProgressEvent@@@Z 0042fa90 f   ChilkatRel:ClsSFtp.obj
 0001:0002f000       ?Connect@ClsSFtp@@QAE_NAAVXString@@HPAVProgressEvent@@@Z 00430000 f   ChilkatRel:ClsSFtp.obj
 0001:0002f0f0       ?connect2@ClsSFtp@@AAE_NAAVXString@@HPAVProgressEvent@@@Z 004300f0 f   ChilkatRel:ClsSFtp.obj
 0001:0002f550       ?AuthenticatePw@ClsSFtp@@QAE_NAAVXString@@0PAVProgressEvent@@@Z 00430550 f   ChilkatRel:ClsSFtp.obj
 0001:0002f770       ?msgName@ClsSFtp@@AAEPBDH@Z 00430770 f   ChilkatRel:ClsSFtp.obj
 0001:0002f940       ?sendPacket@ClsSFtp@@AAE_NEAAVDataBuffer@@AAKPAVProgressMonitor@@AAVLogBase@@@Z 00430940 f   ChilkatRel:ClsSFtp.obj
 0001:0002fb10       ?readPacket2@ClsSFtp@@AAE_NAAVDataBuffer@@AAEAAKPAVProgressMonitor@@AAVLogBase@@@Z 00430b10 f   ChilkatRel:ClsSFtp.obj
 0001:0002fcf0       ?readPacket@ClsSFtp@@AAE_NAAVDataBuffer@@PAVProgressMonitor@@AA_N22AAVLogBase@@@Z 00430cf0 f   ChilkatRel:ClsSFtp.obj
 0001:0002ff70       ?InitializeSftp@ClsSFtp@@QAE_NPAVProgressEvent@@@Z 00430f70 f   ChilkatRel:ClsSFtp.obj
 0001:00030a30       ?UploadFileByName@ClsSFtp@@QAE_NAAVXString@@0PAVProgressEvent@@@Z 00431a30 f   ChilkatRel:ClsSFtp.obj
 0001:00030cc0       ?uploadFile@ClsSFtp@@AAE_NAAVXString@@0_NPAVProgressMonitor@@@Z 00431cc0 f   ChilkatRel:ClsSFtp.obj
 0001:00031180       ??_EClsSFtp@@WHA@AEPAXI@Z  00432180 f i ChilkatRel:ClsSFtp.obj
 0001:00031190       ??_EClsSFtp@@WCBI@AEPAXI@Z 00432190 f i ChilkatRel:ClsSFtp.obj
 0001:000311a0       ??_EClsSFtp@@WEEI@AEPAXI@Z 004321a0 f i ChilkatRel:ClsSFtp.obj
 0001:000311b0       ?GetUnlockCodePrefix@ClsBase@@SAXHAAVStringBuffer@chilkat@@@Z 004321b0 f   ChilkatRel:ClsBase.obj
 0001:000314c0       ?SaveUnlockCode@ClsBase@@SAXHPBD@Z 004324c0 f   ChilkatRel:ClsBase.obj
 0001:000317f0       ?LogUnlockCodePrefix@ClsBase@@QAEXH@Z 004327f0 f   ChilkatRel:ClsBase.obj
 0001:00031810       ?LogUnlockCodePrefix2@ClsBase@@QAEXHAAVLogBase@@@Z 00432810 f   ChilkatRel:ClsBase.obj
 0001:000318c0       ??0ClsBase@@QAE@XZ         004328c0 f   ChilkatRel:ClsBase.obj
 0001:00031940       ??_EClsBase@@UAEPAXI@Z     00432940 f i ChilkatRel:ClsBase.obj
 0001:00031940       ??_GClsBase@@UAEPAXI@Z     00432940 f i ChilkatRel:ClsBase.obj
 0001:00031970       ??1ClsBase@@UAE@XZ         00432970 f   ChilkatRel:ClsBase.obj
 0001:000319e0       ?LogProgrammingLanguage@ClsBase@@QAEXH@Z 004329e0 f   ChilkatRel:ClsBase.obj
 0001:00031a00       ?LogProgrammingLanguage2@ClsBase@@QAEXHAAVLogBase@@@Z 00432a00 f   ChilkatRel:ClsBase.obj
 0001:00031b60       ?UnlockComponent@ClsBase@@UAE_NPBD@Z 00432b60 f   ChilkatRel:ClsBase.obj
 0001:00031b70       ?outputFailed@Output@@UAE_NXZ 00432b70 f   ChilkatRel:Output.obj
 0001:00031b70       ?LastAbortStatus@ProgressEvent@@UAE_NXZ 00432b70 f   ChilkatRel:ProgressEvent.obj
 0001:00031b70       ?IsUnlocked@ClsBase@@UBE_NXZ 00432b70 f   ChilkatRel:ClsBase.obj
 0001:00031b80       ?GetTextLog@ClsBase@@QAEXAAVStringBuffer@chilkat@@@Z 00432b80 f   ChilkatRel:ClsBase.obj
 0001:00031bb0       ?GetTextLogX@ClsBase@@QAEXAAVXString@@_N@Z 00432bb0 f   ChilkatRel:ClsBase.obj
 0001:00031c40       ?logSuccessFailure@ClsBase@@QAEX_N@Z 00432c40 f   ChilkatRel:ClsBase.obj
 0001:00031c90       ??0XString@@QAE@XZ         00432c90 f   ChilkatRel:XString.obj
 0001:00031d70       ??_EXString@@UAEPAXI@Z     00432d70 f i ChilkatRel:XString.obj
 0001:00031d70       ??_GXString@@UAEPAXI@Z     00432d70 f i ChilkatRel:XString.obj
 0001:00031da0       ??1XString@@UAE@XZ         00432da0 f   ChilkatRel:XString.obj
 0001:00031e20       ?getNumChars@XString@@QAEHXZ 00432e20 f   ChilkatRel:XString.obj
 0001:00031e90       ?clear@XString@@QAEXXZ     00432e90 f   ChilkatRel:XString.obj
 0001:00031f10       ?setFromDual@XString@@QAEXPBD_N@Z 00432f10 f   ChilkatRel:XString.obj
 0001:00031f40       ?setFromAnsi@XString@@QAEXPBD@Z 00432f40 f   ChilkatRel:XString.obj
 0001:00031fc0       ?setFromUtf8@XString@@QAEXPBD@Z 00432fc0 f   ChilkatRel:XString.obj
 0001:00032040       ?copyFromX@XString@@QAEXABV1@@Z 00433040 f   ChilkatRel:XString.obj
 0001:000320c0       ?setFromWideStr@XString@@QAEXPB_W@Z 004330c0 f   ChilkatRel:XString.obj
 0001:000320e0       ?setFromUnicode@XString@@QAEXPBG@Z 004330e0 f   ChilkatRel:XString.obj
 0001:00032180       ?setFromUnicode2@XString@@QAEXPBGH@Z 00433180 f   ChilkatRel:XString.obj
 0001:00032250       ?getWideStr@XString@@QAEPB_WXZ 00433250 f   ChilkatRel:XString.obj
 0001:00032270       ?getUnicode@XString@@QAEPBGXZ 00433270 f   ChilkatRel:XString.obj
 0001:000324a0       ?getConverted@XString@@QAE_NAAVCharset@@AAVDataBuffer@@@Z 004334a0 f   ChilkatRel:XString.obj
 0001:00032630       ?validAnsi@XString@@QAE_NXZ 00433630 f   ChilkatRel:XString.obj
 0001:00032900       ?getAnsi@XString@@QAEPBDXZ 00433900 f   ChilkatRel:XString.obj
 0001:00032bd0       ?beginsWithUtf8@XString@@QAE_NPBD@Z 00433bd0 f   ChilkatRel:XString.obj
 0001:00032c00       ?appendAnsi@XString@@QAEXPBD@Z 00433c00 f   ChilkatRel:XString.obj
 0001:00032c40       ?appendAnsiN@XString@@QAEXPBDH@Z 00433c40 f   ChilkatRel:XString.obj
 0001:00032c90       ?appendUnicode@XString@@QAEXPBG@Z 00433c90 f   ChilkatRel:XString.obj
 0001:00032cf0       ?appendUtf8@XString@@QAEXPBD@Z 00433cf0 f   ChilkatRel:XString.obj
 0001:00032d30       ?getUtf8Sb@XString@@QAEABVStringBuffer@chilkat@@XZ 00433d30 f   ChilkatRel:XString.obj
 0001:00032d50       ?getUtf8@XString@@QAEPBDXZ 00433d50 f   ChilkatRel:XString.obj
 0001:00032ff0       ?appendX@XString@@QAEXABV1@@Z 00433ff0 f   ChilkatRel:XString.obj
 0001:00033060       ?trim2@XString@@QAEXXZ     00434060 f   ChilkatRel:XString.obj
 0001:000330a0       ?containsSubstringNoCaseAnsi@XString@@QAE_NPBD@Z 004340a0 f   ChilkatRel:XString.obj
 0001:00033100       ?replaceChar@XString@@QAEXDD@Z 00434100 f   ChilkatRel:XString.obj
 0001:00033200       ??0ProgressEvent@@QAE@XZ   00434200 f   ChilkatRel:ProgressEvent.obj
 0001:00033220       ??_EProgressEvent@@UAEPAXI@Z 00434220 f i ChilkatRel:ProgressEvent.obj
 0001:00033220       ??_GProgressEvent@@UAEPAXI@Z 00434220 f i ChilkatRel:ProgressEvent.obj
 0001:00033250       ??1ProgressEvent@@UAE@XZ   00434250 f   ChilkatRel:ProgressEvent.obj
 0001:00033270       ?SendComplete@ProgressEvent@@UAEXHJ_N@Z 00434270 f   ChilkatRel:ProgressEvent.obj
 0001:00033270       ?CallbackStr2@ProgressEvent@@UAEXHPBD0@Z 00434270 f   ChilkatRel:ProgressEvent.obj
 0001:00033270       ?ReceiveStringComplete@ProgressEvent@@UAEXHAAVXString@@_N@Z 00434270 f   ChilkatRel:ProgressEvent.obj
 0001:00033270       ?ReceiveBytesComplete@ProgressEvent@@UAEXHAAVDataBuffer@@_N@Z 00434270 f   ChilkatRel:ProgressEvent.obj
 0001:00033280       ?peHttpBeginReceive@ProgressEvent@@UAEXXZ 00434280 f   ChilkatRel:ProgressEvent.obj
 0001:00033280       ?peHttpBeginSend@ProgressEvent@@UAEXXZ 00434280 f   ChilkatRel:ProgressEvent.obj
 0001:00033280       ?reset@Output@@UAEXXZ      00434280 f   ChilkatRel:Output.obj
 0001:00033280       ?peHttpChunked@ProgressEvent@@UAEXXZ 00434280 f   ChilkatRel:ProgressEvent.obj
 0001:00033290       ?NextTarFile@ProgressEvent@@UAEXPBD_J_NAA_N@Z 00434290 f   ChilkatRel:ProgressEvent.obj
 0001:000332a0       ?DnsComplete@ProgressEvent@@UAEXHPBD0_N@Z 004342a0 f   ChilkatRel:ProgressEvent.obj
 0001:000332a0       ?ConnectComplete@ProgressEvent@@UAEXHPBDJ_N@Z 004342a0 f   ChilkatRel:ProgressEvent.obj
 0001:000332a0       ?AcceptComplete@ProgressEvent@@UAEXHPBDJ_N@Z 004342a0 f   ChilkatRel:ProgressEvent.obj
 0001:000332a0       ?ReverseDnsComplete@ProgressEvent@@UAEXHPBD0_N@Z 004342a0 f   ChilkatRel:ProgressEvent.obj
 0001:000332b0       ?CallbackInt1@ProgressEvent@@UAEXHH@Z 004342b0 f   ChilkatRel:ProgressEvent.obj
 0001:000332b0       ?CallbackStr1@ProgressEvent@@UAEXHPBD@Z 004342b0 f   ChilkatRel:ProgressEvent.obj
 0001:000332b0       ?peDataRate@ProgressEvent@@UAEXKK@Z 004342b0 f   ChilkatRel:ProgressEvent.obj
 0001:000332b0       ?peReceiveRate@ProgressEvent@@UAEXKK@Z 004342b0 f   ChilkatRel:ProgressEvent.obj
 0001:000332b0       ?peSendRate@ProgressEvent@@UAEXKK@Z 004342b0 f   ChilkatRel:ProgressEvent.obj
 0001:000332b0       ?EndUploadFile@ProgressEvent@@UAEXPBDK@Z 004342b0 f   ChilkatRel:ProgressEvent.obj
 0001:000332b0       ?EndDownloadFile@ProgressEvent@@UAEXPBDK@Z 004342b0 f   ChilkatRel:ProgressEvent.obj
 0001:000332c0       ?BeginDownloadFile@ProgressEvent@@UAEXPBDAA_N@Z 004342c0 f   ChilkatRel:ProgressEvent.obj
 0001:000332c0       ?VerifyDeleteFile@ProgressEvent@@UAEXPBDAA_N@Z 004342c0 f   ChilkatRel:ProgressEvent.obj
 0001:000332c0       ?BeginUploadFile@ProgressEvent@@UAEXPBDAA_N@Z 004342c0 f   ChilkatRel:ProgressEvent.obj
 0001:000332c0       ?VerifyDownloadDir@ProgressEvent@@UAEXPBDAA_N@Z 004342c0 f   ChilkatRel:ProgressEvent.obj
 0001:000332c0       ?UpdatePct@ProgressEvent@@UAEXHAA_N@Z 004342c0 f   ChilkatRel:ProgressEvent.obj
 0001:000332c0       ?Heartbeat@ProgressEvent@@UAEXHAA_N@Z 004342c0 f   ChilkatRel:ProgressEvent.obj
 0001:000332c0       ?VerifyUploadDir@ProgressEvent@@UAEXPBDAA_N@Z 004342c0 f   ChilkatRel:ProgressEvent.obj
 0001:000332c0       ?VerifyDeleteDir@ProgressEvent@@UAEXPBDAA_N@Z 004342c0 f   ChilkatRel:ProgressEvent.obj
 0001:000332e0       ?peHttpRedirect@ProgressEvent@@UAEXPBD0AA_N@Z 004342e0 f   ChilkatRel:ProgressEvent.obj
 0001:00033300       ?peEmailReceived@ProgressEvent@@UAEXPBD00000H@Z 00434300 f   ChilkatRel:ProgressEvent.obj
 0001:00033310       ?DwordsToInt64@ck64@@SA_JKK@Z 00434310 f   ChilkatRel:ck64.obj
 0001:00033350       ?Int64ToDwords@ck64@@SAX_JAAK1@Z 00434350 f   ChilkatRel:ck64.obj
 0001:00033390       ?TooBigForUnsigned32@ck64@@SA_N_J@Z 00434390 f   ChilkatRel:ck64.obj
 0001:000333c0       ?Int64ToString@ck64@@SAX_JAAVStringBuffer@chilkat@@@Z 004343c0 f   ChilkatRel:ck64.obj
 0001:00033400       ?xtoa@ck64@@CAX_JPADI_N@Z  00434400 f   ChilkatRel:ck64.obj
 0001:00033530       ?itoa@ck64@@SAPAD_JPADH@Z  00434530 f   ChilkatRel:ck64.obj
 0001:00033590       ?toUnsignedLong@ck64@@SAK_J@Z 00434590 f   ChilkatRel:ck64.obj
 0001:000335c0       ?allocBuffer@StringBuffer@chilkat@@IAEPAEH@Z 004345c0 f   ChilkatRel:StringBuffer.obj
 0001:000335f0       ?releaseBuffer@StringBuffer@chilkat@@IAEXXZ 004345f0 f   ChilkatRel:StringBuffer.obj
 0001:00033640       ?trimTrailingCRLFs@StringBuffer@chilkat@@QAEXXZ 00434640 f   ChilkatRel:StringBuffer.obj
 0001:000336d0       ?trim2@StringBuffer@chilkat@@QAEXXZ 004346d0 f   ChilkatRel:StringBuffer.obj
 0001:00033810       ?chopAtFirstChar@StringBuffer@chilkat@@QAEXD@Z 00434810 f   ChilkatRel:StringBuffer.obj
 0001:00033890       ?replaceChar@StringBuffer@chilkat@@QAEXDD@Z 00434890 f   ChilkatRel:StringBuffer.obj
 0001:00033900       ?secureClear@StringBuffer@chilkat@@QAEXXZ 00434900 f   ChilkatRel:StringBuffer.obj
 0001:00033960       ?clear@StringBuffer@chilkat@@QAEXXZ 00434960 f   ChilkatRel:StringBuffer.obj
 0001:000339a0       ?appendCharN@StringBuffer@chilkat@@QAEXDH@Z 004349a0 f   ChilkatRel:StringBuffer.obj
 0001:00033a00       ?append3@StringBuffer@chilkat@@QAEXPBD00@Z 00434a00 f   ChilkatRel:StringBuffer.obj
 0001:00033a40       ?appendChar@StringBuffer@chilkat@@QAEXD@Z 00434a40 f   ChilkatRel:StringBuffer.obj
 0001:00033b60       ?prepend@StringBuffer@chilkat@@QAEXPBD@Z 00434b60 f   ChilkatRel:StringBuffer.obj
 0001:00033cf0       ?hexStringToBinary2@StringBuffer@chilkat@@SAXPBDKAAVDataBuffer@@@Z 00434cf0 f   ChilkatRel:StringBuffer.obj
 0001:00033ef0       ?hexStringToBinary@StringBuffer@chilkat@@QBEXAAVDataBuffer@@@Z 00434ef0 f   ChilkatRel:StringBuffer.obj
 0001:00033f30       ?appendHexData@StringBuffer@chilkat@@QAEXPBEH@Z 00434f30 f   ChilkatRel:StringBuffer.obj
 0001:00034060       ?appendHexDataNoWS@StringBuffer@chilkat@@QAEXPBEH@Z 00435060 f   ChilkatRel:StringBuffer.obj
 0001:00034140       ?intValue@StringBuffer@chilkat@@QAEHXZ 00435140 f   ChilkatRel:StringBuffer.obj
 0001:000341a0       ?append@StringBuffer@chilkat@@QAEXABVDataBuffer@@@Z 004351a0 f   ChilkatRel:StringBuffer.obj
 0001:000341e0       ?append@StringBuffer@chilkat@@QAEXH@Z 004351e0 f   ChilkatRel:StringBuffer.obj
 0001:00034240       ?getCP@StringBuffer@chilkat@@QBEHXZ 00435240 f   ChilkatRel:StringBuffer.obj
 0001:00034260       ?putCP@StringBuffer@chilkat@@QAEXH@Z 00435260 f   ChilkatRel:StringBuffer.obj
 0001:00034290       ?expectNumBytes@StringBuffer@chilkat@@QAE_NH@Z 00435290 f   ChilkatRel:StringBuffer.obj
 0001:00034340       ?containsChar@StringBuffer@chilkat@@QBE_ND@Z 00435340 f   ChilkatRel:StringBuffer.obj
 0001:00034390       ?append@StringBuffer@chilkat@@QAEXPBD@Z 00435390 f   ChilkatRel:StringBuffer.obj
 0001:000344f0       ?endsWith@StringBuffer@chilkat@@QBE_NPBD@Z 004354f0 f   ChilkatRel:StringBuffer.obj
 0001:00034560       ?beginsWith@StringBuffer@chilkat@@QBE_NPBD@Z 00435560 f   ChilkatRel:StringBuffer.obj
 0001:000345d0       ?beginsWithIgnoreCase@StringBuffer@chilkat@@QBE_NPBD@Z 004355d0 f   ChilkatRel:StringBuffer.obj
 0001:00034640       ?appendN@StringBuffer@chilkat@@QAEXPBDH@Z 00435640 f   ChilkatRel:StringBuffer.obj
 0001:00034790       ??_EStringBuffer@chilkat@@UAEPAXI@Z 00435790 f i ChilkatRel:StringBuffer.obj
 0001:00034790       ??_GStringBuffer@chilkat@@UAEPAXI@Z 00435790 f i ChilkatRel:StringBuffer.obj
 0001:000347c0       ?minimizeMemoryUsage@StringBuffer@chilkat@@QAEXXZ 004357c0 f   ChilkatRel:StringBuffer.obj
 0001:00034870       ??0StringBuffer@chilkat@@QAE@PBD@Z 00435870 f   ChilkatRel:StringBuffer.obj
 0001:00034a50       ??0StringBuffer@chilkat@@QAE@XZ 00435a50 f   ChilkatRel:StringBuffer.obj
 0001:00034b40       ??0StringBuffer@chilkat@@QAE@ABV01@@Z 00435b40 f   ChilkatRel:StringBuffer.obj
 0001:00034c30       ??0StringBuffer@chilkat@@QAE@H@Z 00435c30 f   ChilkatRel:StringBuffer.obj
 0001:00034d10       ??1StringBuffer@chilkat@@UAE@XZ 00435d10 f   ChilkatRel:StringBuffer.obj
 0001:00034dc0       ?extractString@StringBuffer@chilkat@@QAEPADPAH@Z 00435dc0 f   ChilkatRel:StringBuffer.obj
 0001:00034e70       ?split@StringBuffer@chilkat@@QBEXAAVExtPtrArray@@D_N1@Z 00435e70 f   ChilkatRel:StringBuffer.obj
 0001:00035200       ?splitUsingBoundary@StringBuffer@chilkat@@QBEXAAV12@AAVExtPtrArray@@H@Z 00436200 f   ChilkatRel:StringBuffer.obj
 0001:00035400       ?strstr@@YAPADPADPBD@Z     00436400 f i ChilkatRel:StringBuffer.obj
 0001:00035420       ?replaceFirstOccurance@StringBuffer@chilkat@@QAE_NPBD0@Z 00436420 f   ChilkatRel:StringBuffer.obj
 0001:00035580       ?isLatin1AlphaNumeric@StringBuffer@chilkat@@SA_ND@Z 00436580 f   ChilkatRel:StringBuffer.obj
 0001:00035610       ?isCidChar@StringBuffer@chilkat@@SA_ND@Z 00436610 f   ChilkatRel:StringBuffer.obj
 0001:00035740       ?findWordOnlyLatin1@StringBuffer@chilkat@@SAPBDPBD0_N1@Z 00436740 f   ChilkatRel:StringBuffer.obj
 0001:000358b0       ?replaceAllOccurances@StringBuffer@chilkat@@QAEHPBD0@Z 004368b0 f   ChilkatRel:StringBuffer.obj
 0001:00035a30       ?convertEncoding@StringBuffer@chilkat@@QAEXHH@Z 00436a30 f   ChilkatRel:StringBuffer.obj
 0001:00035b90       ?createFromFile@StringBuffer@chilkat@@SAPAV12@AAVXString@@PAVLogBase@@@Z 00436b90 f   ChilkatRel:StringBuffer.obj
 0001:00035e70       ?is7bit@StringBuffer@chilkat@@QBE_NK@Z 00436e70 f   ChilkatRel:StringBuffer.obj
 0001:00035f00       ?loadFromFile@StringBuffer@chilkat@@QAE_NAAVXString@@PAVLogBase@@@Z 00436f00 f   ChilkatRel:StringBuffer.obj
 0001:000364c0       ?replaceHTMLSpecial@StringBuffer@chilkat@@QAEXXZ 004374c0 f   ChilkatRel:StringBuffer.obj
 0001:00036530       ?toCRLF@StringBuffer@chilkat@@QAEXXZ 00437530 f   ChilkatRel:StringBuffer.obj
 0001:00036580       ?toLF@StringBuffer@chilkat@@QAEXXZ 00437580 f   ChilkatRel:StringBuffer.obj
 0001:000365a0       ?toLowerCase@StringBuffer@chilkat@@QAEXXZ 004375a0 f   ChilkatRel:StringBuffer.obj
 0001:00036680       ?toUpperCase@StringBuffer@chilkat@@QAEXXZ 00437680 f   ChilkatRel:StringBuffer.obj
 0001:00036750       ?append@StringBuffer@chilkat@@QAEXABV12@@Z 00437750 f   ChilkatRel:StringBuffer.obj
 0001:00036790       ?takeFromDb@StringBuffer@chilkat@@QAEXAAVDataBuffer@@@Z 00437790 f   ChilkatRel:StringBuffer.obj
 0001:00036820       ?setString@StringBuffer@chilkat@@QAEXPBD@Z 00437820 f   ChilkatRel:StringBuffer.obj
 0001:000368c0       ?setString@StringBuffer@chilkat@@QAEXABV12@@Z 004378c0 f   ChilkatRel:StringBuffer.obj
 0001:00036910       ?lastChar@StringBuffer@chilkat@@QBEDXZ 00437910 f   ChilkatRel:StringBuffer.obj
 0001:00036960       ?removeCharOccurances@StringBuffer@chilkat@@QAEXD@Z 00437960 f   ChilkatRel:StringBuffer.obj
 0001:00036a10       ?shorten@StringBuffer@chilkat@@QAEXH@Z 00437a10 f   ChilkatRel:StringBuffer.obj
 0001:00036a70       ?containsSubstring@StringBuffer@chilkat@@QBE_NPBD@Z 00437a70 f   ChilkatRel:StringBuffer.obj
 0001:00036ac0       ?containsSubstringNoCase@StringBuffer@chilkat@@QBE_NPBD@Z 00437ac0 f   ChilkatRel:StringBuffer.obj
 0001:00036b10       ?removeChunk@StringBuffer@chilkat@@QAEXHH@Z 00437b10 f   ChilkatRel:StringBuffer.obj
 0001:00036bb0       ?appendLastWindowsError@StringBuffer@chilkat@@QAEXXZ 00437bb0 f   ChilkatRel:StringBuffer.obj
 0001:00036bf0       ?appendLastWindowsError@StringBuffer@chilkat@@QAEXK@Z 00437bf0 f   ChilkatRel:StringBuffer.obj
 0001:00036c70       ?equals@StringBuffer@chilkat@@QBE_NPBD@Z 00437c70 f   ChilkatRel:StringBuffer.obj
 0001:00036cf0       ?equals@StringBuffer@chilkat@@QBE_NABV12@@Z 00437cf0 f   ChilkatRel:StringBuffer.obj
 0001:00036d70       ?equalsIgnoreCase@StringBuffer@chilkat@@QBE_NPBD@Z 00437d70 f   ChilkatRel:StringBuffer.obj
 0001:00036dd0       ?numString@StringBuffer@chilkat@@SAPBDH@Z 00437dd0 f   ChilkatRel:StringBuffer.obj
 0001:00036df0       ?countCharOccurances@StringBuffer@chilkat@@QBEHD@Z 00437df0 f   ChilkatRel:StringBuffer.obj
 0001:00036e50       ??0ClsSocksClient@@QAE@XZ  00437e50 f   ChilkatRel:ClsSocksClient.obj
 0001:00036ee0       ??_EClsSocksClient@@UAEPAXI@Z 00437ee0 f i ChilkatRel:ClsSocksClient.obj
 0001:00036ee0       ??_GClsSocksClient@@UAEPAXI@Z 00437ee0 f i ChilkatRel:ClsSocksClient.obj
 0001:00036f10       ??1ClsSocksClient@@UAE@XZ  00437f10 f   ChilkatRel:ClsSocksClient.obj
 0001:00036f90       ?getSocksHostnameAnsi@ClsSocksClient@@QAEXAAVStringBuffer@chilkat@@@Z 00437f90 f   ChilkatRel:ClsSocksClient.obj
 0001:00036fc0       ?getSocksUsernameAnsi@ClsSocksClient@@QAEXAAVStringBuffer@chilkat@@@Z 00437fc0 f   ChilkatRel:ClsSocksClient.obj
 0001:00036ff0       ?getSocksPasswordAnsi@ClsSocksClient@@QAEXAAVStringBuffer@chilkat@@@Z 00437ff0 f   ChilkatRel:ClsSocksClient.obj
 0001:00037020       ??0ClsHttpProxyClient@@QAE@XZ 00438020 f   ChilkatRel:ClsHttpProxyClient.obj
 0001:000370c0       ??_GClsHttpProxyClient@@UAEPAXI@Z 004380c0 f i ChilkatRel:ClsHttpProxyClient.obj
 0001:000370c0       ??_EClsHttpProxyClient@@UAEPAXI@Z 004380c0 f i ChilkatRel:ClsHttpProxyClient.obj
 0001:000370f0       ??1ClsHttpProxyClient@@UAE@XZ 004380f0 f   ChilkatRel:ClsHttpProxyClient.obj
 0001:00037180       ?hasProxy@ClsHttpProxyClient@@QAE_NXZ 00438180 f   ChilkatRel:ClsHttpProxyClient.obj
 0001:000371b0       ?get_HttpProxyHostname@ClsHttpProxyClient@@QAEXAAVXString@@@Z 004381b0 f   ChilkatRel:ClsHttpProxyClient.obj
 0001:000371d0       ?get_HttpProxyPort@ClsHttpProxyClient@@QAEHXZ 004381d0 f   ChilkatRel:ClsHttpProxyClient.obj
 0001:000371f0       ??0ClsSFtpFile@@QAE@PBD0PAVSFtpFileAttr@@@Z 004381f0 f   ChilkatRel:ClsSFtpFile.obj
 0001:000372f0       ??_EClsSFtpFile@@UAEPAXI@Z 004382f0 f i ChilkatRel:ClsSFtpFile.obj
 0001:000372f0       ??_GClsSFtpFile@@UAEPAXI@Z 004382f0 f i ChilkatRel:ClsSFtpFile.obj
 0001:00037320       ?clear@ClsSFtpFile@@AAEXXZ 00438320 f   ChilkatRel:ClsSFtpFile.obj
 0001:000373a0       ?serialize@ClsSFtpFile@@QAEXAAVXString@@AAVLogBase@@_N@Z 004383a0 f   ChilkatRel:ClsSFtpFile.obj
 0001:00037520       ?unserialize@ClsSFtpFile@@QAE_NAAVXString@@AAVLogBase@@_N@Z 00438520 f   ChilkatRel:ClsSFtpFile.obj
 0001:00037820       ??0ClsSFtpFile@@QAE@XZ     00438820 f   ChilkatRel:ClsSFtpFile.obj
 0001:000378b0       ??1ClsSFtpFile@@UAE@XZ     004388b0 f   ChilkatRel:ClsSFtpFile.obj
 0001:000379a0       ?get_Filename@ClsSFtpFile@@QAEXAAVXString@@@Z 004389a0 f   ChilkatRel:ClsSFtpFile.obj
 0001:000379d0       ??_EClsSFtpFile@@WHA@AEPAXI@Z 004389d0 f i ChilkatRel:ClsSFtpFile.obj
 0001:000379e0       ?get_NumFilesAndDirs@ClsSFtpDir@@QAEHXZ 004389e0 f   ChilkatRel:ClsSFtpDir.obj
 0001:00037a00       ?GetFileObject@ClsSFtpDir@@QAEPAVClsSFtpFile@@H@Z 00438a00 f   ChilkatRel:ClsSFtpDir.obj
 0001:00037b90       ??0ClsSFtpDir@@QAE@XZ      00438b90 f   ChilkatRel:ClsSFtpDir.obj
 0001:00037c20       ??_EClsSFtpDir@@UAEPAXI@Z  00438c20 f i ChilkatRel:ClsSFtpDir.obj
 0001:00037c20       ??_GClsSFtpDir@@UAEPAXI@Z  00438c20 f i ChilkatRel:ClsSFtpDir.obj
 0001:00037c50       ??1ClsSFtpDir@@UAE@XZ      00438c50 f   ChilkatRel:ClsSFtpDir.obj
 0001:00037d10       ?enterContext@ClsSFtpDir@@AAEXPBD@Z 00438d10 f   ChilkatRel:ClsSFtpDir.obj
 0001:00037d70       ?loadSshFxpName@ClsSFtpDir@@QAE_NHAAVStringBuffer@chilkat@@_NAAVDataBuffer@@AAVLogBase@@@Z 00438d70 f   ChilkatRel:ClsSFtpDir.obj
 0001:00038210       ??_EClsSFtpDir@@WHA@AEPAXI@Z 00439210 f i ChilkatRel:ClsSFtpDir.obj
 0001:00038220       ?updateAlgorithmDescription@ClsCrypt@@AAEXXZ 00439220 f   ChilkatRel:ClsCrypt.obj
 0001:00038340       ?get_SecretKey@ClsCrypt@@QAEXAAVDataBuffer@@@Z 00439340 f   ChilkatRel:ClsCrypt.obj
 0001:000383a0       ?put_SecretKey@ClsCrypt@@QAEXABVDataBuffer@@@Z 004393a0 f   ChilkatRel:ClsCrypt.obj
 0001:00038400       ?put_CipherMode@ClsCrypt@@QAEXH@Z 00439400 f   ChilkatRel:ClsCrypt.obj
 0001:00038420       ?put_PaddingScheme@ClsCrypt@@QAEXJ@Z 00439420 f   ChilkatRel:ClsCrypt.obj
 0001:00038440       ?get_PaddingScheme@ClsCrypt@@QBEJXZ 00439440 f   ChilkatRel:ClsCrypt.obj
 0001:00038460       ?get_BlockSize@ClsCrypt@@QAEHXZ 00439460 f   ChilkatRel:ClsCrypt.obj
 0001:00038510       ?put_FirstChunk@ClsCrypt@@QAEX_N@Z 00439510 f   ChilkatRel:ClsCrypt.obj
 0001:00038530       ?put_LastChunk@ClsCrypt@@QAEX_N@Z 00439530 f   ChilkatRel:ClsCrypt.obj
 0001:00038550       ?enterContext@ClsCrypt@@AAEXPBD@Z 00439550 f   ChilkatRel:ClsCrypt.obj
 0001:000385e0       ?SetHmacKeyBytes@ClsCrypt@@QAEXAAVDataBuffer@@@Z 004395e0 f   ChilkatRel:ClsCrypt.obj
 0001:00038630       ?HmacBytes@ClsCrypt@@QAE_NAAVDataBuffer@@0@Z 00439630 f   ChilkatRel:ClsCrypt.obj
 0001:000386e0       ??0ClsCrypt@@QAE@XZ        004396e0 f   ChilkatRel:ClsCrypt.obj
 0001:00038ac0       ??_GClsCrypt@@UAEPAXI@Z    00439ac0 f i ChilkatRel:ClsCrypt.obj
 0001:00038ac0       ??_EClsCrypt@@UAEPAXI@Z    00439ac0 f i ChilkatRel:ClsCrypt.obj
 0001:00038af0       ?get_Charset@ClsCrypt@@QAEXAAVXString@@@Z 00439af0 f   ChilkatRel:ClsCrypt.obj
 0001:00038b30       ??1ClsCrypt@@UAE@XZ        00439b30 f   ChilkatRel:ClsCrypt.obj
 0001:00039180       ?IsUnlocked@ClsCrypt@@UBE_NXZ 0043a180 f   ChilkatRel:ClsCrypt.obj
 0001:000391c0       ?ForceUnlock@ClsCrypt@@QAEXXZ 0043a1c0 f   ChilkatRel:ClsCrypt.obj
 0001:000391e0       ?UnlockComponent@ClsCrypt@@UAE_NPBD@Z 0043a1e0 f   ChilkatRel:ClsCrypt.obj
 0001:00039360       ?encryptFirstChunk@ClsCrypt@@AAEPAVDataBuffer@@AAVCryptoPtr@@AAV2@1AAVLogBase@@@Z 0043a360 f   ChilkatRel:ClsCrypt.obj
 0001:0003a0b0       ?encryptMiddleChunk@ClsCrypt@@AAEPAVDataBuffer@@AAVCryptoPtr@@AAV2@1AAVLogBase@@@Z 0043b0b0 f   ChilkatRel:ClsCrypt.obj
 0001:0003a660       ?encryptLastChunk@ClsCrypt@@AAEPAVDataBuffer@@AAVCryptoPtr@@AAV2@1AAVLogBase@@@Z 0043b660 f   ChilkatRel:ClsCrypt.obj
 0001:0003abc0       ?decryptFirstChunk@ClsCrypt@@AAEPAVDataBuffer@@AAVCryptoPtr@@AAV2@PAEAAVLogBase@@@Z 0043bbc0 f   ChilkatRel:ClsCrypt.obj
 0001:0003b510       ?decryptMiddleChunk@ClsCrypt@@AAEPAVDataBuffer@@AAVCryptoPtr@@AAV2@PAEAAVLogBase@@@Z 0043c510 f   ChilkatRel:ClsCrypt.obj
 0001:0003bc30       ?decryptLastChunk@ClsCrypt@@AAEPAVDataBuffer@@AAVCryptoPtr@@AAV2@PAEAAVLogBase@@@Z 0043cc30 f   ChilkatRel:ClsCrypt.obj
 0001:0003c350       ?encryptData2@ClsCrypt@@AAEPAVDataBuffer@@AAV2@AAVLogBase@@@Z 0043d350 f   ChilkatRel:ClsCrypt.obj
 0001:0003d450       ?encryptData@ClsCrypt@@AAEPAVDataBuffer@@AAV2@AAVLogBase@@_N@Z 0043e450 f   ChilkatRel:ClsCrypt.obj
 0001:0003db20       ?decryptData2@ClsCrypt@@AAEPAVDataBuffer@@AAV2@AAVLogBase@@@Z 0043eb20 f   ChilkatRel:ClsCrypt.obj
 0001:0003f080       ?decryptData@ClsCrypt@@AAEPAVDataBuffer@@AAV2@AAVLogBase@@@Z 00440080 f   ChilkatRel:ClsCrypt.obj
 0001:0003f810       ?logEncryptParams@ClsCrypt@@AAEXAAVDataBuffer@@AAVLogBase@@@Z 00440810 f   ChilkatRel:ClsCrypt.obj
 0001:0003fac0       ?encrypt@ClsCrypt@@QAE_NAAVDataBuffer@@0AAVLogBase@@_N@Z 00440ac0 f   ChilkatRel:ClsCrypt.obj
 0001:0003fb40       ?checkUnlocked@ClsCrypt@@AAE_NXZ 00440b40 f   ChilkatRel:ClsCrypt.obj
 0001:0003fd70       ?decrypt@ClsCrypt@@QAE_NAAVDataBuffer@@0AAVLogBase@@@Z 00440d70 f   ChilkatRel:ClsCrypt.obj
 0001:0003fdf0       ?Decrypt@ClsCrypt@@QAE_NAAVDataBuffer@@0@Z 00440df0 f   ChilkatRel:ClsCrypt.obj
 0001:0003ff40       ?get_CryptAlgorithm@ClsCrypt@@QAEXAAVXString@@@Z 00440f40 f   ChilkatRel:ClsCrypt.obj
 0001:00040090       ?put_CryptAlgorithm@ClsCrypt@@QAEXPBD@Z 00441090 f   ChilkatRel:ClsCrypt.obj
 0001:00040350       ?DecryptStringENC@ClsCrypt@@QAE_NAAVXString@@0@Z 00441350 f   ChilkatRel:ClsCrypt.obj
 0001:00040690       ?get_CipherModeX@ClsCrypt@@QBEXAAVXString@@@Z 00441690 f   ChilkatRel:ClsCrypt.obj
 0001:000406e0       ?put_CipherModeX@ClsCrypt@@QAEXAAVXString@@@Z 004416e0 f   ChilkatRel:ClsCrypt.obj
 0001:000407e0       ?get_HashAlgorithm@ClsCrypt@@QAEXAAVXString@@@Z 004417e0 f   ChilkatRel:ClsCrypt.obj
 0001:00040970       ?put_HashAlgorithm@ClsCrypt@@QAEXPBD@Z 00441970 f   ChilkatRel:ClsCrypt.obj
 0001:00040be0       ?get_KeyLength@ClsCrypt@@QAEJXZ 00441be0 f   ChilkatRel:ClsCrypt.obj
 0001:00040c00       ?put_Rc2EffectiveKeyLength@ClsCrypt@@QAEXJ@Z 00441c00 f   ChilkatRel:ClsCrypt.obj
 0001:00040c20       ?put_KeyLength@ClsCrypt@@QAEXJ@Z 00441c20 f   ChilkatRel:ClsCrypt.obj
 0001:00040c40       ?get_IV@ClsCrypt@@QAEXAAVDataBuffer@@@Z 00441c40 f   ChilkatRel:ClsCrypt.obj
 0001:00040cd0       ?put_IV@ClsCrypt@@QAEXAAVDataBuffer@@@Z 00441cd0 f   ChilkatRel:ClsCrypt.obj
 0001:00040d60       ??_EClsCrypt@@WOA@AEPAXI@Z 00441d60 f i ChilkatRel:ClsCrypt.obj
 0001:00040d70       ??_EClsCrypt@@WMA@AEPAXI@Z 00441d70 f i ChilkatRel:ClsCrypt.obj
 0001:00040d80       ?clear@DataBuffer@@QAEXXZ  00441d80 f   ChilkatRel:DataBuffer.obj
 0001:00040da0       ?getSize@StringBuffer@chilkat@@QBEHXZ 00441da0 f   ChilkatRel:StringBuffer.obj
 0001:00040da0       ?get_uc@AsnItem@@QBEPBEXZ  00441da0 f   ChilkatRel:Der.obj
 0001:00040da0       ?getBufSize@DataBuffer@@QBEKXZ 00441da0 f   ChilkatRel:DataBuffer.obj
 0001:00040dc0       ?getString@StringBuffer@chilkat@@QBEPBDXZ 00441dc0 f   ChilkatRel:StringBuffer.obj
 0001:00040dc0       ?getData2@DataBuffer@@QBEPBEXZ 00441dc0 f   ChilkatRel:DataBuffer.obj
 0001:00040dc0       ?getNumBits@CryptoAlg@@QBEKXZ 00441dc0 f   ChilkatRel:CryptoAlg.obj
 0001:00040de0       ?getDataAt2@DataBuffer@@QBEPBEH@Z 00441de0 f   ChilkatRel:DataBuffer.obj
 0001:00040e20       ?lastByte@DataBuffer@@QBEEXZ 00441e20 f   ChilkatRel:DataBuffer.obj
 0001:00040e60       ?append@DataBuffer@@QAE_NABVStringBuffer@chilkat@@@Z 00441e60 f   ChilkatRel:DataBuffer.obj
 0001:00040ea0       ?append@DataBuffer@@QAE_NABV1@@Z 00441ea0 f   ChilkatRel:DataBuffer.obj
 0001:00040ee0       ?appendRange@DataBuffer@@QAEXABV1@KK@Z 00441ee0 f   ChilkatRel:DataBuffer.obj
 0001:00040f40       ?appendEncoded@DataBuffer@@QAE_NPBD0@Z 00441f40 f   ChilkatRel:DataBuffer.obj
 0001:00041140       ?encode@DataBuffer@@QAEXPBDAAVStringBuffer@chilkat@@@Z 00442140 f   ChilkatRel:DataBuffer.obj
 0001:00041170       ?encode2@DataBuffer@@AAEXPBDPBEKAAVStringBuffer@chilkat@@@Z 00442170 f   ChilkatRel:DataBuffer.obj
 0001:00041330       ?shorten@DataBuffer@@QAEXK@Z 00442330 f   ChilkatRel:DataBuffer.obj
 0001:00041370       ?setData@DataBuffer@@QAEXPADK@Z 00442370 f   ChilkatRel:DataBuffer.obj
 0001:00041370       ?setData@DataBuffer@@QAEXPAEK@Z 00442370 f   ChilkatRel:DataBuffer.obj
 0001:00041370       ?takeData@DataBuffer@@QAEXPAXK@Z 00442370 f   ChilkatRel:DataBuffer.obj
 0001:00041390       ?takeDataPtr@DataBuffer@@QAEXPAV1@@Z 00442390 f   ChilkatRel:DataBuffer.obj
 0001:000413c0       ?dropData@DataBuffer@@QAEXXZ 004423c0 f   ChilkatRel:DataBuffer.obj
 0001:000413f0       ?setDataSize_CAUTION@DataBuffer@@QAEXK@Z 004423f0 f   ChilkatRel:DataBuffer.obj
 0001:00041420       ??_EDataBuffer@@UAEPAXI@Z  00442420 f i ChilkatRel:DataBuffer.obj
 0001:00041420       ??_GDataBuffer@@UAEPAXI@Z  00442420 f i ChilkatRel:DataBuffer.obj
 0001:00041450       ?removeData@DataBuffer@@QAEPAEXZ 00442450 f   ChilkatRel:DataBuffer.obj
 0001:000414b0       ??0DataBuffer@@QAE@XZ      004424b0 f   ChilkatRel:DataBuffer.obj
 0001:00041500       ??0DataBuffer@@QAE@PAEH@Z  00442500 f   ChilkatRel:DataBuffer.obj
 0001:00041550       ??0DataBuffer@@QAE@K@Z     00442550 f   ChilkatRel:DataBuffer.obj
 0001:00041610       ?replaceCharW@DataBuffer@@QAEXGG@Z 00442610 f   ChilkatRel:DataBuffer.obj
 0001:000416a0       ??1DataBuffer@@UAE@XZ      004426a0 f   ChilkatRel:DataBuffer.obj
 0001:00041750       ?ensureBuffer@DataBuffer@@QAE_NK@Z 00442750 f   ChilkatRel:DataBuffer.obj
 0001:000417a0       ?minimizeMemoryUsage@DataBuffer@@QAEXXZ 004427a0 f   ChilkatRel:DataBuffer.obj
 0001:000417d0       ?reallocate@DataBuffer@@AAE_NK@Z 004427d0 f   ChilkatRel:DataBuffer.obj
 0001:000418a0       ?borrowData@DataBuffer@@QAEXPAEK@Z 004428a0 f   ChilkatRel:DataBuffer.obj
 0001:00041940       ?takeData@DataBuffer@@QAEXPAEK@Z 00442940 f   ChilkatRel:DataBuffer.obj
 0001:000419e0       ?takeData@DataBuffer@@QAEXAAV1@@Z 004429e0 f   ChilkatRel:DataBuffer.obj
 0001:00041a90       ?appendNullTerminatedUnicode@DataBuffer@@QAEXPBG@Z 00442a90 f   ChilkatRel:DataBuffer.obj
 0001:00041b20       ?appendChar@DataBuffer@@QAE_NE@Z 00442b20 f   ChilkatRel:DataBuffer.obj
 0001:00041bb0       ?appendCharN@DataBuffer@@QAE_NEK@Z 00442bb0 f   ChilkatRel:DataBuffer.obj
 0001:00041c70       ?prepend@DataBuffer@@QAEXPBEK@Z 00442c70 f   ChilkatRel:DataBuffer.obj
 0001:00041d30       ?append@DataBuffer@@QAE_NPBXK@Z 00442d30 f   ChilkatRel:DataBuffer.obj
 0001:00041e00       ?byteSwap4321@DataBuffer@@QAEXXZ 00442e00 f   ChilkatRel:DataBuffer.obj
 0001:00041f30       ?appendLowOverhead@DataBuffer@@QAE_NPBEK@Z 00442f30 f   ChilkatRel:DataBuffer.obj
 0001:00041fd0       ?padForEncryption@DataBuffer@@QAEXHH@Z 00442fd0 f   ChilkatRel:DataBuffer.obj
 0001:00042380       ?unpadAfterDecryption@DataBuffer@@QAE_NHHAAVLogBase@@@Z 00443380 f   ChilkatRel:DataBuffer.obj
 0001:00042420       ?toHexString@DataBuffer@@QBEXAAVStringBuffer@chilkat@@@Z 00443420 f   ChilkatRel:DataBuffer.obj
 0001:00042470       ?toHexString2@DataBuffer@@SAXPBEKAAVStringBuffer@chilkat@@@Z 00443470 f   ChilkatRel:DataBuffer.obj
 0001:00042620       ??0ClsEncode@@QAE@XZ       00443620 f   ChilkatRel:ClsEncode.obj
 0001:000426c0       ??_EClsEncode@@UAEPAXI@Z   004436c0 f i ChilkatRel:ClsEncode.obj
 0001:000426c0       ??_GClsEncode@@UAEPAXI@Z   004436c0 f i ChilkatRel:ClsEncode.obj
 0001:000426f0       ??1ClsEncode@@UAE@XZ       004436f0 f   ChilkatRel:ClsEncode.obj
 0001:00042760       ?get_EncodingMode@ClsEncode@@QBEXAAVXString@@@Z 00443760 f   ChilkatRel:ClsEncode.obj
 0001:00042850       ?logEncodingMode@ClsEncode@@QAEXAAVLogBase@@@Z 00443850 f   ChilkatRel:ClsEncode.obj
 0001:000428f0       ?put_EncodingMode@ClsEncode@@QAEXAAVXString@@@Z 004438f0 f   ChilkatRel:ClsEncode.obj
 0001:00042ac0       ?decodeBinary@ClsEncode@@QAEXAAVXString@@AAVDataBuffer@@_N@Z 00443ac0 f   ChilkatRel:ClsEncode.obj
 0001:00042e40       ?Decode@ClsEncode@@QAEXAAVXString@@0AAVDataBuffer@@_N@Z 00443e40 f   ChilkatRel:ClsEncode.obj
 0001:00042ed0       ??0Charset@@QAE@XZ         00443ed0 f   ChilkatRel:Charset.obj
 0001:00042f40       ??_GCharset@@UAEPAXI@Z     00443f40 f i ChilkatRel:Charset.obj
 0001:00042f40       ??_ECharset@@UAEPAXI@Z     00443f40 f i ChilkatRel:Charset.obj
 0001:00042f70       ??1Charset@@UAE@XZ         00443f70 f   ChilkatRel:Charset.obj
 0001:00042f90       ?getName@Charset@@QBEPBDXZ 00443f90 f   ChilkatRel:Charset.obj
 0001:00042fb0       ?getCodePage@Charset@@QBEHXZ 00443fb0 f   ChilkatRel:Charset.obj
 0001:00042fd0       ?clear@Charset@@QAEXXZ     00443fd0 f   ChilkatRel:Charset.obj
 0001:00042ff0       ?setByCodePage@Charset@@QAEXH@Z 00443ff0 f   ChilkatRel:Charset.obj
 0001:000430b0       ?setByName@Charset@@QAEXPBD@Z 004440b0 f   ChilkatRel:Charset.obj
 0001:000431d0       ??0EncodingConvert@@QAE@XZ 004441d0 f   ChilkatRel:EncodingConvert.obj
 0001:00043240       ??_EEncodingConvert@@UAEPAXI@Z 00444240 f i ChilkatRel:EncodingConvert.obj
 0001:00043240       ??_GEncodingConvert@@UAEPAXI@Z 00444240 f i ChilkatRel:EncodingConvert.obj
 0001:00043270       ??1EncodingConvert@@UAE@XZ 00444270 f   ChilkatRel:EncodingConvert.obj
 0001:000432a0       ?convertToUnicodeByLookup@EncodingConvert@@AAE_NAAVUnicodeLookup@@PBEKAAVDataBuffer@@@Z 004442a0 f   ChilkatRel:EncodingConvert.obj
 0001:00043370       ?convertToUnicodeHC@EncodingConvert@@AAE_NHPBEKAAVDataBuffer@@@Z 00444370 f   ChilkatRel:EncodingConvert.obj
 0001:00044600       ?appendHexData@EncodingConvert@@AAEXPBEHAAVDataBuffer@@@Z 00445600 f   ChilkatRel:EncodingConvert.obj
 0001:000446c0       ?handleErrorFromUnicode@EncodingConvert@@AAEXPBEAAVDataBuffer@@@Z 004456c0 f   ChilkatRel:EncodingConvert.obj
 0001:00044890       ?handleErrorFromUtf8@EncodingConvert@@AAEHPBEHAAVDataBuffer@@@Z 00445890 f   ChilkatRel:EncodingConvert.obj
 0001:00044ad0       ?handleErrorFromUnknown@EncodingConvert@@AAEHPBEAAVDataBuffer@@@Z 00445ad0 f   ChilkatRel:EncodingConvert.obj
 0001:00044d20       ?handleErrorFromSingleByte@EncodingConvert@@AAEXPBEAAVDataBuffer@@@Z 00445d20 f   ChilkatRel:EncodingConvert.obj
 0001:00044f30       ?convertFromUnicodeHC2@EncodingConvert@@AAE_NPAVHashConvert@@PBEKAAVDataBuffer@@@Z 00445f30 f   ChilkatRel:EncodingConvert.obj
 0001:00045350       ?convertToUnicodeHCVar@EncodingConvert@@AAE_NPAVHashConvert@@PBEKAAVDataBuffer@@@Z 00446350 f   ChilkatRel:EncodingConvert.obj
 0001:00045840       ?convertFromUnicodeHC@EncodingConvert@@AAE_NHPBEKAAVDataBuffer@@@Z 00446840 f   ChilkatRel:EncodingConvert.obj
 0001:00046cf0       ?convert2@EncodingConvert@@AAE_NPBEKAAVDataBuffer@@@Z 00447cf0 f   ChilkatRel:EncodingConvert.obj
 0001:00046e20       ?convertFromUnicode@EncodingConvert@@AAE_NPBEKAAVDataBuffer@@@Z 00447e20 f   ChilkatRel:EncodingConvert.obj
 0001:00047000       ?convertToUnicode@EncodingConvert@@AAE_NPBEKAAVDataBuffer@@@Z 00448000 f   ChilkatRel:EncodingConvert.obj
 0001:00047140       ?EncConvert@EncodingConvert@@QAE_NHHPBEKAAVDataBuffer@@@Z 00448140 f   ChilkatRel:EncodingConvert.obj
 0001:00047cb0       ?convert_a@EncodingConvert@@AAE_NHHPBEKAAVDataBuffer@@@Z 00448cb0 f   ChilkatRel:EncodingConvert.obj
 0001:000487a0       ?buildFromComplete@EncodingConvert@@AAEXPBEAAVHashConvert@@_N@Z 004497a0 f   ChilkatRel:EncodingConvert.obj
 0001:00048950       ?buildFromDiffs@EncodingConvert@@AAEXPBEAAVHashConvert@@@Z 00449950 f   ChilkatRel:EncodingConvert.obj
 0001:00048a40       ?buildHash@EncodingConvert@@AAEXPBDAAVHashConvert@@_N@Z 00449a40 f   ChilkatRel:EncodingConvert.obj
 0001:00048c70       ?ensureHashFromUnicode@EncodingConvert@@AAEXH@Z 00449c70 f   ChilkatRel:EncodingConvert.obj
 0001:0004ef00       ?buildSingleByteLookup@EncodingConvert@@AAEXAAVHashConvert@@AAVUnicodeLookup@@@Z 0044ff00 f   ChilkatRel:EncodingConvert.obj
 0001:0004efd0       ?ensureHashToUnicode@EncodingConvert@@AAEXH@Z 0044ffd0 f   ChilkatRel:EncodingConvert.obj
 0001:000583c0       ?generateCurrentDateRFC822@DateParser@@QAEXAAVStringBuffer@chilkat@@@Z 004593c0 f   ChilkatRel:DateParser.obj
 0001:000584d0       ??0DateParser@@QAE@XZ      004594d0 f   ChilkatRel:DateParser.obj
 0001:000584f0       ??_EDateParser@@UAEPAXI@Z  004594f0 f i ChilkatRel:DateParser.obj
 0001:000584f0       ??_GDateParser@@UAEPAXI@Z  004594f0 f i ChilkatRel:DateParser.obj
 0001:00058520       ??1DateParser@@UAE@XZ      00459520 f   ChilkatRel:DateParser.obj
 0001:00058540       ?FileTimeToUnixTime@DateParser@@QAEJAAU_FILETIME@@PAJ@Z 00459540 f   ChilkatRel:DateParser.obj
 0001:000585d0       ?strFtime@DateParser@@SAIPADIPBDPBUtm@@@Z 004595d0 f   ChilkatRel:DateParser.obj
 0001:00059200       ?GetFullPathname@FileSys@@SAXAAVXString@@0@Z 0045a200 f   ChilkatRel:FileSys.obj
 0001:00059350       ?GetCurrentDir@FileSys@@SAXAAVXString@@@Z 0045a350 f   ChilkatRel:FileSys.obj
 0001:00059440       ?buildLongPath@FileSys@@SAXAAVXString@@0@Z 0045a440 f   ChilkatRel:FileSys.obj
 0001:00059550       ?DeleteFile2@FileSys@@SA_NAAVXString@@PAVLogBase@@@Z 0045a550 f   ChilkatRel:FileSys.obj
 0001:00059820       ?OpenForWrite@FileSys@@SAPAXHAAVXString@@AAHPAVLogBase@@@Z 0045a820 f   ChilkatRel:FileSys.obj
 0001:00059c20       ?GetAttributes@FileSys@@SA_NAAVXString@@AAK1PAVLogBase@@@Z 0045ac20 f   ChilkatRel:FileSys.obj
 0001:00059e10       ?OpenForRead@FileSys@@SAPAXAAVXString@@AAHPAVLogBase@@@Z 0045ae10 f   ChilkatRel:FileSys.obj
 0001:0005a0a0       ?OpenDirForRead@FileSys@@SAPAXAAVXString@@AAHPAVLogBase@@@Z 0045b0a0 f   ChilkatRel:FileSys.obj
 0001:0005a310       ?OpenForReadWrite@FileSys@@SAPAXAAVXString@@AAHPAVLogBase@@@Z 0045b310 f   ChilkatRel:FileSys.obj
 0001:0005a590       ?SetFileAttr@FileSys@@SA_NAAVXString@@K@Z 0045b590 f   ChilkatRel:FileSys.obj
 0001:0005a710       ?fileSize64@FileSys@@SA_JPAXPAVLogBase@@@Z 0045b710 f   ChilkatRel:FileSys.obj
 0001:0005a7e0       ?fileSizeUnicode_64@FileSys@@SA_JPB_WPAVLogBase@@AA_N@Z 0045b7e0 f   ChilkatRel:FileSys.obj
 0001:0005a930       ?fileSizeAnsi_64@FileSys@@SA_JPBDPAVLogBase@@AA_N@Z 0045b930 f   ChilkatRel:FileSys.obj
 0001:0005aa80       ?fileExistsUtf8@FileSys@@SA_NPBDAAK@Z 0045ba80 f   ChilkatRel:FileSys.obj
 0001:0005abc0       ?fileExistsAnsi@FileSys@@SA_NPBDAAK@Z 0045bbc0 f   ChilkatRel:FileSys.obj
 0001:0005ad10       ?deleteFileUtf8@FileSys@@SA_NPBDPAVLogBase@@@Z 0045bd10 f   ChilkatRel:FileSys.obj
 0001:0005adb0       ?writeFileAnsi@FileSys@@SA_NPBD0KPAVLogBase@@@Z 0045bdb0 f   ChilkatRel:FileSys.obj
 0001:0005afb0       ?fileSizeUtf8_64@FileSys@@SA_JPBDPAVLogBase@@AA_N@Z 0045bfb0 f   ChilkatRel:FileSys.obj
 0001:0005b140       ?checkInitialize@ExtPtrArray@@AAEXXZ 0045c140 f   ChilkatRel:extPtrArray.obj
 0001:0005b1c0       ??_GExtPtrArray@@UAEPAXI@Z 0045c1c0 f i ChilkatRel:extPtrArray.obj
 0001:0005b1c0       ??_EExtPtrArray@@UAEPAXI@Z 0045c1c0 f i ChilkatRel:extPtrArray.obj
 0001:0005b1f0       ??0ExtPtrArray@@QAE@XZ     0045c1f0 f   ChilkatRel:extPtrArray.obj
 0001:0005b230       ??1ExtPtrArray@@UAE@XZ     0045c230 f   ChilkatRel:extPtrArray.obj
 0001:0005b290       ?get_SocksVersion@ClsSocksClient@@QAEHXZ 0045c290 f   ChilkatRel:ClsSocksClient.obj
 0001:0005b290       ?getHeadItem@CK_List@@QBEPAVCK_ListItem@@XZ 0045c290 f   ChilkatRel:ck_list.obj
 0001:0005b290       ?get_PendingOut@ZeeDeflateState@@QBEPBEXZ 0045c290 f   ChilkatRel:ZeeDeflateState.obj
 0001:0005b290       ?getPrev@CK_ListItem@@QBEPAV1@XZ 0045c290 f   ChilkatRel:ck_list.obj
 0001:0005b290       ?getSize@ExtPtrArray@@QBEHXZ 0045c290 f   ChilkatRel:extPtrArray.obj
 0001:0005b2b0       ?elementAt@ExtPtrArray@@QBEPAXH@Z 0045c2b0 f   ChilkatRel:extPtrArray.obj
 0001:0005b2b0       ?sbAt@ExtPtrArray@@QBEPAVStringBuffer@chilkat@@H@Z 0045c2b0 f   ChilkatRel:extPtrArray.obj
 0001:0005b2f0       ?lastElement@ExtPtrArray@@QBEPAXXZ 0045c2f0 f   ChilkatRel:extPtrArray.obj
 0001:0005b320       ?incrementSize@ExtPtrArray@@AAE_NXZ 0045c320 f   ChilkatRel:extPtrArray.obj
 0001:0005b460       ?insertAt@ExtPtrArray@@QAEXHPAX@Z 0045c460 f   ChilkatRel:extPtrArray.obj
 0001:0005b510       ?removeAll@ExtPtrArray@@QAEXXZ 0045c510 f   ChilkatRel:extPtrArray.obj
 0001:0005b530       ?removeAt@ExtPtrArray@@QAEPAXH@Z 0045c530 f   ChilkatRel:extPtrArray.obj
 0001:0005b610       ?append@ExtPtrArray@@QAEXPAX@Z 0045c610 f   ChilkatRel:extPtrArray.obj
 0001:0005b650       ?setAt@ExtPtrArray@@QAEXHPAX@Z 0045c650 f   ChilkatRel:extPtrArray.obj
 0001:0005b6c0       ?pop@ExtPtrArray@@QAEPAXXZ 0045c6c0 f   ChilkatRel:extPtrArray.obj
 0001:0005b720       ?logStrings@ExtPtrArray@@QAEXAAVLogBase@@PBD@Z 0045c720 f   ChilkatRel:extPtrArray.obj
 0001:0005b790       ?removeAllObjects@ExtPtrArray@@QAEXXZ 0045c790 f   ChilkatRel:extPtrArray.obj
 0001:0005b840       ?AppendUtf8@ClsStringArray@@QAEXPBD@Z 0045c840 f   ChilkatRel:ClsStringArray.obj
 0001:0005b9e0       ??1ClsStringArray@@UAE@XZ  0045c9e0 f   ChilkatRel:ClsStringArray.obj
 0001:0005bab0       ??_GClsStringArray@@UAEPAXI@Z 0045cab0 f i ChilkatRel:ClsStringArray.obj
 0001:0005bab0       ??_EClsStringArray@@UAEPAXI@Z 0045cab0 f i ChilkatRel:ClsStringArray.obj
 0001:0005bae0       ?SplitAndAppend@ClsStringArray@@QAEXAAVXString@@0@Z 0045cae0 f   ChilkatRel:ClsStringArray.obj
 0001:0005bc20       ?ToDelimitedString@ClsStringArray@@QAEXPBDAAVXString@@@Z 0045cc20 f   ChilkatRel:ClsStringArray.obj
 0001:0005bcd0       ?prepareString@ClsStringArray@@AAEXAAVStringBuffer@chilkat@@@Z 0045ccd0 f   ChilkatRel:ClsStringArray.obj
 0001:0005bd10       ??0ClsStringArray@@QAE@XZ  0045cd10 f   ChilkatRel:ClsStringArray.obj
 0001:0005bdf0       ?ensureHash@ClsStringArray@@AAEXXZ 0045cdf0 f   ChilkatRel:ClsStringArray.obj
 0001:0005be80       ?Contains@ClsStringArray@@QAE_NAAVXString@@@Z 0045ce80 f   ChilkatRel:ClsStringArray.obj
 0001:0005bec0       ??_EClsStringArray@@W7AEPAXI@Z 0045cec0 f i ChilkatRel:ClsStringArray.obj
 0001:0005bed0       ??0ChilkatCritSec@@QAE@XZ  0045ced0 f   ChilkatRel:ChilkatCritSec.obj
 0001:0005bf00       ??_GChilkatCritSec@@UAEPAXI@Z 0045cf00 f i ChilkatRel:ChilkatCritSec.obj
 0001:0005bf00       ??_EChilkatCritSec@@UAEPAXI@Z 0045cf00 f i ChilkatRel:ChilkatCritSec.obj
 0001:0005bf30       ??1ChilkatCritSec@@UAE@XZ  0045cf30 f   ChilkatRel:ChilkatCritSec.obj
 0001:0005bf70       ?enterCriticalSection@ChilkatCritSec@@QAEXXZ 0045cf70 f   ChilkatRel:ChilkatCritSec.obj
 0001:0005bf90       ?leaveCriticalSection@ChilkatCritSec@@QAEXXZ 0045cf90 f   ChilkatRel:ChilkatCritSec.obj
 0001:0005bfb0       ?isUnlocked@ClsSsh@@SA_NXZ 0045cfb0 f   ChilkatRel:ClsSsh.obj
 0001:0005bfc0       ?isTrialKey@ClsSsh@@SA_NXZ 0045cfc0 f   ChilkatRel:ClsSsh.obj
 0001:0005bfd0       ?unlockComponent@ClsSsh@@SA_NAAVXString@@AAVLogBase@@@Z 0045cfd0 f   ChilkatRel:ClsSsh.obj
 0001:0005c080       ??0SshChannel@@QAE@XZ      0045d080 f   ChilkatRel:ClsSsh.obj
 0001:0005c210       ??_ESshChannel@@UAEPAXI@Z  0045d210 f i ChilkatRel:ClsSsh.obj
 0001:0005c210       ??_GSshChannel@@UAEPAXI@Z  0045d210 f i ChilkatRel:ClsSsh.obj
 0001:0005c240       ??1SshChannel@@UAE@XZ      0045d240 f i ChilkatRel:ClsSsh.obj
 0001:0005c300       ?extensionValid@ThirtyDayTrial@@AAE_NPAVLogBase@@@Z 0045d300 f   ChilkatRel:ThirtyDayTrial.obj
 0001:0005c4c0       ?validateInRegistry@ThirtyDayTrial@@QAE_NAAHPAVLogBase@@@Z 0045d4c0 f   ChilkatRel:ThirtyDayTrial.obj
 0001:0005c790       ?validateSecret@ThirtyDayTrial@@QAE_NAAVLogBase@@@Z 0045d790 f   ChilkatRel:ThirtyDayTrial.obj
 0001:0005c7f0       ?validateFromSecretTempFile@ThirtyDayTrial@@AAE_NPAVLogBase@@@Z 0045d7f0 f   ChilkatRel:ThirtyDayTrial.obj
 0001:0005c960       ?validateFromSecretRegistryKey@ThirtyDayTrial@@AAE_NPAVLogBase@@@Z 0045d960 f   ChilkatRel:ThirtyDayTrial.obj
 0001:0005cad0       ??0ThirtyDayTrial@@QAE@XZ  0045dad0 f   ChilkatRel:ThirtyDayTrial.obj
 0001:0005cb70       ??_EThirtyDayTrial@@UAEPAXI@Z 0045db70 f i ChilkatRel:ThirtyDayTrial.obj
 0001:0005cb70       ??_GThirtyDayTrial@@UAEPAXI@Z 0045db70 f i ChilkatRel:ThirtyDayTrial.obj
 0001:0005cba0       ??1ThirtyDayTrial@@UAE@XZ  0045dba0 f   ChilkatRel:ThirtyDayTrial.obj
 0001:0005cc10       ?getSecretTempFilename@ThirtyDayTrial@@AAEXAAVStringBuffer@chilkat@@@Z 0045dc10 f   ChilkatRel:ThirtyDayTrial.obj
 0001:0005cd30       ?getSecretKeyFromTempFile@ThirtyDayTrial@@AAEXAAVStringBuffer@chilkat@@@Z 0045dd30 f   ChilkatRel:ThirtyDayTrial.obj
 0001:0005ce90       ?createSecretKeyFromTempFile@ThirtyDayTrial@@AAE_NPAVLogBase@@@Z 0045de90 f   ChilkatRel:ThirtyDayTrial.obj
 0001:0005cfc0       ?setProductName@ThirtyDayTrial@@QAEXPBD@Z 0045dfc0 f   ChilkatRel:ThirtyDayTrial.obj
 0001:0005cfe0       ?openSoftwareHiveReadOnly@ThirtyDayTrial@@AAEPAUHKEY__@@XZ 0045dfe0 f   ChilkatRel:ThirtyDayTrial.obj
 0001:0005d050       ?openSoftwareHiveWrite@ThirtyDayTrial@@AAEPAUHKEY__@@XZ 0045e050 f   ChilkatRel:ThirtyDayTrial.obj
 0001:0005d0c0       ?openSecretHiveReadOnly@ThirtyDayTrial@@AAEPAUHKEY__@@XZ 0045e0c0 f   ChilkatRel:ThirtyDayTrial.obj
 0001:0005d1a0       ?openSecretHiveWrite@ThirtyDayTrial@@AAEPAUHKEY__@@XZ 0045e1a0 f   ChilkatRel:ThirtyDayTrial.obj
 0001:0005d2b0       ?getKeyFromRegistry@ThirtyDayTrial@@AAEXAAVStringBuffer@chilkat@@@Z 0045e2b0 f   ChilkatRel:ThirtyDayTrial.obj
 0001:0005d3e0       ?createTrialKeyInRegistry@ThirtyDayTrial@@AAE_NPAVLogBase@@@Z 0045e3e0 f   ChilkatRel:ThirtyDayTrial.obj
 0001:0005d630       ?getSecretKeyFromRegistry@ThirtyDayTrial@@AAEXAAVStringBuffer@chilkat@@PAVLogBase@@@Z 0045e630 f   ChilkatRel:ThirtyDayTrial.obj
 0001:0005d7c0       ?createSecretTrialKeyInRegistry@ThirtyDayTrial@@AAE_NPAVLogBase@@@Z 0045e7c0 f   ChilkatRel:ThirtyDayTrial.obj
 0001:0005da40       ??0ChilkatObject@@QAE@XZ   0045ea40 f   ChilkatRel:ChilkatObject.obj
 0001:0005da90       ??_GChilkatObject@@UAEPAXI@Z 0045ea90 f i ChilkatRel:ChilkatObject.obj
 0001:0005da90       ??_EChilkatObject@@UAEPAXI@Z 0045ea90 f i ChilkatRel:ChilkatObject.obj
 0001:0005dac0       ??1ChilkatObject@@UAE@XZ   0045eac0 f   ChilkatRel:ChilkatObject.obj
 0001:0005dae0       ??0ChilkatInt@@QAE@H@Z     0045eae0 f   ChilkatRel:ChilkatObject.obj
 0001:0005db10       ??_GChilkatInt@@UAEPAXI@Z  0045eb10 f i ChilkatRel:ChilkatObject.obj
 0001:0005db10       ??_EChilkatInt@@UAEPAXI@Z  0045eb10 f i ChilkatRel:ChilkatObject.obj
 0001:0005db40       ??1ChilkatInt@@UAE@XZ      0045eb40 f   ChilkatRel:ChilkatObject.obj
 0001:0005db60       ?hashFunc@HashMap@@QBEIABVStringBuffer@chilkat@@@Z 0045eb60 f   ChilkatRel:HashMap.obj
 0001:0005dc30       ??_ECK_List@@UAEPAXI@Z     0045ec30 f i ChilkatRel:HashMap.obj
 0001:0005dca0       ??0HashMap@@QAE@H@Z        0045eca0 f   ChilkatRel:HashMap.obj
 0001:0005dd90       ??_EHashMap@@UAEPAXI@Z     0045ed90 f i ChilkatRel:HashMap.obj
 0001:0005dd90       ??_GHashMap@@UAEPAXI@Z     0045ed90 f i ChilkatRel:HashMap.obj
 0001:0005ddc0       ??1HashMap@@UAE@XZ         0045edc0 f   ChilkatRel:HashMap.obj
 0001:0005ded0       ?hashLookup2@HashMap@@QBEPAVChilkatObject@@PBD@Z 0045eed0 f   ChilkatRel:HashMap.obj
 0001:0005df50       ?hashLookupString@HashMap@@QBE_NPBDAAVStringBuffer@chilkat@@@Z 0045ef50 f   ChilkatRel:HashMap.obj
 0001:0005e000       ?hashLookup@HashMap@@QBEPAVChilkatObject@@ABVStringBuffer@chilkat@@@Z 0045f000 f   ChilkatRel:HashMap.obj
 0001:0005e080       ?internalLookup@HashMap@@ABEPAVNamedObject@@ABVStringBuffer@chilkat@@@Z 0045f080 f   ChilkatRel:HashMap.obj
 0001:0005e100       ?hashInsert2@HashMap@@QAEXPBDPAVChilkatObject@@@Z 0045f100 f   ChilkatRel:HashMap.obj
 0001:0005e180       ?hashInsertString@HashMap@@QAEXPBD0@Z 0045f180 f   ChilkatRel:HashMap.obj
 0001:0005e210       ?hashInsert@HashMap@@QAEXABVStringBuffer@chilkat@@PAVChilkatObject@@@Z 0045f210 f   ChilkatRel:HashMap.obj
 0001:0005e300       ?hashDelete2@HashMap@@QAEXPBD@Z 0045f300 f   ChilkatRel:HashMap.obj
 0001:0005e370       ?hashDelete@HashMap@@QAEXABVStringBuffer@chilkat@@@Z 0045f370 f   ChilkatRel:HashMap.obj
 0001:0005e3f0       ??0mp_int@@QAE@ABV0@@Z     0045f3f0 f   ChilkatRel:ChilkatMp.obj
 0001:0005e4e0       ??_Emp_int@@UAEPAXI@Z      0045f4e0 f i ChilkatRel:ChilkatMp.obj
 0001:0005e4e0       ??_Gmp_int@@UAEPAXI@Z      0045f4e0 f i ChilkatRel:ChilkatMp.obj
 0001:0005e510       ??4mp_int@@QAEAAV0@ABV0@@Z 0045f510 f   ChilkatRel:ChilkatMp.obj
 0001:0005e640       ??0mp_int@@QAE@XZ          0045f640 f   ChilkatRel:ChilkatMp.obj
 0001:0005e6b0       ??0mp_int@@QAE@H@Z         0045f6b0 f   ChilkatRel:ChilkatMp.obj
 0001:0005e750       ?grow@mp_int@@QAEXH@Z      0045f750 f   ChilkatRel:ChilkatMp.obj
 0001:0005e820       ??1mp_int@@UAE@XZ          0045f820 f   ChilkatRel:ChilkatMp.obj
 0001:0005e880       ?bn_reverse@ChilkatMp@@SAXPAEH@Z 0045f880 f   ChilkatRel:ChilkatMp.obj
 0001:0005e8e0       ?mp_zero@ChilkatMp@@SAXAAVmp_int@@@Z 0045f8e0 f   ChilkatRel:ChilkatMp.obj
 0001:0005e940       ?mp_set@ChilkatMp@@SAXAAVmp_int@@K@Z 0045f940 f   ChilkatRel:ChilkatMp.obj
 0001:0005e980       ?mp_copy@ChilkatMp@@SAHABVmp_int@@AAV2@@Z 0045f980 f   ChilkatRel:ChilkatMp.obj
 0001:0005ea50       ?mp_clamp@ChilkatMp@@SAXAAVmp_int@@@Z 0045fa50 f   ChilkatRel:ChilkatMp.obj
 0001:0005eaa0       ?mp_exch@ChilkatMp@@SAXAAVmp_int@@0@Z 0045faa0 f   ChilkatRel:ChilkatMp.obj
 0001:0005eb20       ?mp_exptmod@ChilkatMp@@SAHAAVmp_int@@000@Z 0045fb20 f   ChilkatRel:ChilkatMp.obj
 0001:0005ed20       ?mp_exptmod_fast@ChilkatMp@@SAHAAVmp_int@@000H@Z 0045fd20 f   ChilkatRel:ChilkatMp.obj
 0001:0005f4b0       ?mp_div@ChilkatMp@@SAHABVmp_int@@0PAV2@1@Z 004604b0 f   ChilkatRel:ChilkatMp.obj
 0001:0005ff10       ?mp_div_2@ChilkatMp@@SAHAAVmp_int@@0@Z 00460f10 f   ChilkatRel:ChilkatMp.obj
 0001:00060030       ?mp_div_2d@ChilkatMp@@SAHAAVmp_int@@H0PAV2@@Z 00461030 f   ChilkatRel:ChilkatMp.obj
 0001:00060230       ?mp_div_3@ChilkatMp@@SAHAAVmp_int@@PAV2@PAK@Z 00461230 f   ChilkatRel:ChilkatMp.obj
 0001:000603e0       ?mp_info@ChilkatMp@@SAXABVmp_int@@AAHAAVStringBuffer@chilkat@@@Z 004613e0 f   ChilkatRel:ChilkatMp.obj
 0001:00060440       ?mp_count_bits_1@ChilkatMp@@SAHABVmp_int@@@Z 00461440 f   ChilkatRel:ChilkatMp.obj
 0001:000604a0       ?mp_abs@ChilkatMp@@SAHAAVmp_int@@0@Z 004614a0 f   ChilkatRel:ChilkatMp.obj
 0001:000604e0       ?mp_add@ChilkatMp@@SAHABVmp_int@@0AAV2@@Z 004614e0 f   ChilkatRel:ChilkatMp.obj
 0001:00060580       ?mp_cmp@ChilkatMp@@SAHABVmp_int@@0@Z 00461580 f   ChilkatRel:ChilkatMp.obj
 0001:000605e0       ?mp_cmp_d@ChilkatMp@@SAHABVmp_int@@K@Z 004615e0 f   ChilkatRel:ChilkatMp.obj
 0001:00060630       ?mp_cmp_mag@ChilkatMp@@SAHABVmp_int@@0@Z 00461630 f   ChilkatRel:ChilkatMp.obj
 0001:000606f0       ?mp_2expt@ChilkatMp@@SAHAAVmp_int@@H@Z 004616f0 f   ChilkatRel:ChilkatMp.obj
 0001:00060760       ?mp_dr_is_modulus@ChilkatMp@@SAHAAVmp_int@@@Z 00461760 f   ChilkatRel:ChilkatMp.obj
 0001:000607b0       ?mp_dr_reduce@ChilkatMp@@SAHAAVmp_int@@0K@Z 004617b0 f   ChilkatRel:ChilkatMp.obj
 0001:00060900       ?mp_dr_setup@ChilkatMp@@SAXAAVmp_int@@AAK@Z 00461900 f   ChilkatRel:ChilkatMp.obj
 0001:00060930       ?mp_invmod@ChilkatMp@@SAHABVmp_int@@AAV2@1@Z 00461930 f   ChilkatRel:ChilkatMp.obj
 0001:000609c0       ?mp_invmod_slow@ChilkatMp@@SAHABVmp_int@@AAV2@1@Z 004619c0 f   ChilkatRel:ChilkatMp.obj
 0001:000610f0       ?mp_karatsuba_mul@ChilkatMp@@SAHABVmp_int@@0AAV2@@Z 004620f0 f   ChilkatRel:ChilkatMp.obj
 0001:00061a30       ?mp_karatsuba_sqr@ChilkatMp@@SAHAAVmp_int@@0@Z 00462a30 f   ChilkatRel:ChilkatMp.obj
 0001:00062120       ?mp_lshd@ChilkatMp@@SAHAAVmp_int@@H@Z 00463120 f   ChilkatRel:ChilkatMp.obj
 0001:00062220       ?mp_mod@ChilkatMp@@SAHABVmp_int@@0AAV2@@Z 00463220 f   ChilkatRel:ChilkatMp.obj
 0001:000622f0       ?mp_mod_2d@ChilkatMp@@SAHABVmp_int@@HAAV2@@Z 004632f0 f   ChilkatRel:ChilkatMp.obj
 0001:00062400       ?mp_montgomery_calc_normalization@ChilkatMp@@SAHAAVmp_int@@0@Z 00463400 f   ChilkatRel:ChilkatMp.obj
 0001:000624f0       ?mp_montgomery_reduce@ChilkatMp@@SAHAAVmp_int@@0K@Z 004634f0 f   ChilkatRel:ChilkatMp.obj
 0001:000626c0       ?mp_montgomery_setup@ChilkatMp@@SAHAAVmp_int@@PAK@Z 004636c0 f   ChilkatRel:ChilkatMp.obj
 0001:00062760       ?mp_mul@ChilkatMp@@SAHABVmp_int@@0AAV2@@Z 00463760 f   ChilkatRel:ChilkatMp.obj
 0001:000628c0       ?mp_mul_2@ChilkatMp@@SAHAAVmp_int@@0@Z 004638c0 f   ChilkatRel:ChilkatMp.obj
 0001:000629f0       ?mp_mul_2d@ChilkatMp@@SAHAAVmp_int@@H0@Z 004639f0 f   ChilkatRel:ChilkatMp.obj
 0001:00062b60       ?mp_mul_d@ChilkatMp@@SAHAAVmp_int@@K0@Z 00463b60 f   ChilkatRel:ChilkatMp.obj
 0001:00062c90       ?mp_mulmod@ChilkatMp@@SAHABVmp_int@@00AAV2@@Z 00463c90 f   ChilkatRel:ChilkatMp.obj
 0001:00062d40       ?read_unsigned_bin@ChilkatMp@@SA_NAAVmp_int@@PBEH@Z 00463d40 f   ChilkatRel:ChilkatMp.obj
 0001:00062de0       ?mp_reduce@ChilkatMp@@SAHAAVmp_int@@00@Z 00463de0 f   ChilkatRel:ChilkatMp.obj
 0001:00062fe0       ?mp_reduce_2k@ChilkatMp@@SAHAAVmp_int@@0K@Z 00463fe0 f   ChilkatRel:ChilkatMp.obj
 0001:000630e0       ?mp_reduce_2k_l@ChilkatMp@@SAHAAVmp_int@@00@Z 004640e0 f   ChilkatRel:ChilkatMp.obj
 0001:000631e0       ?mp_reduce_2k_setup@ChilkatMp@@SAHAAVmp_int@@PAK@Z 004641e0 f   ChilkatRel:ChilkatMp.obj
 0001:000632c0       ?mp_reduce_2k_setup_l@ChilkatMp@@SAHAAVmp_int@@0@Z 004642c0 f   ChilkatRel:ChilkatMp.obj
 0001:00063360       ?mp_reduce_is_2k@ChilkatMp@@SAHAAVmp_int@@@Z 00464360 f   ChilkatRel:ChilkatMp.obj
 0001:00063410       ?mp_reduce_is_2k_l@ChilkatMp@@SAHAAVmp_int@@@Z 00464410 f   ChilkatRel:ChilkatMp.obj
 0001:000634a0       ?mp_reduce_setup@ChilkatMp@@SAHAAVmp_int@@0@Z 004644a0 f   ChilkatRel:ChilkatMp.obj
 0001:000634f0       ?mp_rshd@ChilkatMp@@SAXAAVmp_int@@H@Z 004644f0 f   ChilkatRel:ChilkatMp.obj
 0001:000635c0       ?mp_sqr@ChilkatMp@@SAHAAVmp_int@@0@Z 004645c0 f   ChilkatRel:ChilkatMp.obj
 0001:00063670       ?mp_sub@ChilkatMp@@SAHAAVmp_int@@00@Z 00464670 f   ChilkatRel:ChilkatMp.obj
 0001:00063720       ?append_to_db@ChilkatMp@@SA_NABVmp_int@@AAVDataBuffer@@@Z 00464720 f   ChilkatRel:ChilkatMp.obj
 0001:000638c0       ?mp_toom_mul@ChilkatMp@@SAHABVmp_int@@0AAV2@@Z 004648c0 f   ChilkatRel:ChilkatMp.obj
 0001:00067170       ?mp_toom_sqr@ChilkatMp@@SAHAAVmp_int@@0@Z 00468170 f   ChilkatRel:ChilkatMp.obj
 0001:00069210       ?to_base64@ChilkatMp@@SA_NABVmp_int@@HAAVStringBuffer@chilkat@@_NAAVLogBase@@@Z 0046a210 f   ChilkatRel:ChilkatMp.obj
 0001:00069380       ?mp_unsigned_bin_size@ChilkatMp@@SAHABVmp_int@@@Z 0046a380 f   ChilkatRel:ChilkatMp.obj
 0001:000693c0       ?fast_mp_invmod@ChilkatMp@@SAHABVmp_int@@AAV2@1@Z 0046a3c0 f   ChilkatRel:ChilkatMp.obj
 0001:00069e80       ?fast_mp_montgomery_reduce@ChilkatMp@@SAHAAVmp_int@@0K@Z 0046ae80 f   ChilkatRel:ChilkatMp.obj
 0001:0006a270       ?fast_s_mp_mul_digs@ChilkatMp@@SAHABVmp_int@@0AAV2@H@Z 0046b270 f   ChilkatRel:ChilkatMp.obj
 0001:0006a550       ?fast_s_mp_mul_high_digs@ChilkatMp@@SAHAAVmp_int@@00H@Z 0046b550 f   ChilkatRel:ChilkatMp.obj
 0001:0006a820       ?fast_s_mp_sqr@ChilkatMp@@SAHAAVmp_int@@0@Z 0046b820 f   ChilkatRel:ChilkatMp.obj
 0001:0006abc0       ?s_mp_add@ChilkatMp@@SAHABVmp_int@@0AAV2@@Z 0046bbc0 f   ChilkatRel:ChilkatMp.obj
 0001:0006ad70       ?s_mp_exptmod@ChilkatMp@@SAHAAVmp_int@@000H@Z 0046bd70 f   ChilkatRel:ChilkatMp.obj
 0001:0006b420       ?s_mp_mul_digs@ChilkatMp@@SAHABVmp_int@@0AAV2@H@Z 0046c420 f   ChilkatRel:ChilkatMp.obj
 0001:0006b610       ?s_mp_mul_high_digs@ChilkatMp@@SAHAAVmp_int@@00H@Z 0046c610 f   ChilkatRel:ChilkatMp.obj
 0001:0006b800       ?s_mp_sqr@ChilkatMp@@SAHAAVmp_int@@0@Z 0046c800 f   ChilkatRel:ChilkatMp.obj
 0001:0006ba10       ?s_mp_sub@ChilkatMp@@SAHABVmp_int@@0AAV2@@Z 0046ca10 f   ChilkatRel:ChilkatMp.obj
 0001:0006bb70       ?rsaVerifySig@SshTransport@@SA_NAAVrsa_key@@PBEK1KAAVLogBase@@@Z 0046cb70 f   ChilkatRel:SshTransport.obj
 0001:0006c0e0       ?dssVerifySig@SshTransport@@SA_NAAUdsa_key@@PBEK1KAAVLogBase@@_N@Z 0046d0e0 f   ChilkatRel:SshTransport.obj
 0001:0006c4d0       ?parseDssKey@SshTransport@@SA_NAAVDataBuffer@@AAUdsa_key@@AAVLogBase@@_N@Z 0046d4d0 f   ChilkatRel:SshTransport.obj
 0001:0006c7c0       ?parseRsaKey@SshTransport@@SA_NAAVDataBuffer@@AAVrsa_key@@AAVLogBase@@@Z 0046d7c0 f   ChilkatRel:SshTransport.obj
 0001:0006c960       ??0SshTransport@@QAE@XZ    0046d960 f   ChilkatRel:SshTransport.obj
 0001:0006cd10       ??_ESshTransport@@UAEPAXI@Z 0046dd10 f i ChilkatRel:SshTransport.obj
 0001:0006cd10       ??_GSshTransport@@UAEPAXI@Z 0046dd10 f i ChilkatRel:SshTransport.obj
 0001:0006cd40       ??1SshTransport@@UAE@XZ    0046dd40 f   ChilkatRel:SshTransport.obj
 0001:0006cfc0       ?parseUtf8@SshTransport@@SA_NAAVDataBuffer@@AAKAAVXString@@@Z 0046dfc0 f   ChilkatRel:SshTransport.obj
 0001:0006d060       ?parseString@SshTransport@@SA_NAAVDataBuffer@@AAKAAVStringBuffer@chilkat@@@Z 0046e060 f   ChilkatRel:SshTransport.obj
 0001:0006d150       ?parseBinaryString@SshTransport@@SA_NAAVDataBuffer@@AAK0AAVLogBase@@@Z 0046e150 f   ChilkatRel:SshTransport.obj
 0001:0006d2e0       ?pack_bool@SshTransport@@SAX_NAAVDataBuffer@@@Z 0046e2e0 f   ChilkatRel:SshTransport.obj
 0001:0006d310       ?pack_int64@SshTransport@@SAX_JAAVDataBuffer@@@Z 0046e310 f   ChilkatRel:SshTransport.obj
 0001:0006d390       ?pack_bignum@SshTransport@@SAXPAKAAVDataBuffer@@@Z 0046e390 f   ChilkatRel:SshTransport.obj
 0001:0006d440       ?pack_string@SshTransport@@SAXPBDAAVDataBuffer@@@Z 0046e440 f   ChilkatRel:SshTransport.obj
 0001:0006d490       ?pack_filename@SshTransport@@SAXAAVXString@@AAVStringBuffer@chilkat@@AAVDataBuffer@@@Z 0046e490 f   ChilkatRel:SshTransport.obj
 0001:0006d5d0       ?pack_sb@SshTransport@@SAXABVStringBuffer@chilkat@@AAVDataBuffer@@@Z 0046e5d0 f   ChilkatRel:SshTransport.obj
 0001:0006d610       ?pack_db@SshTransport@@SAXABVDataBuffer@@AAV2@@Z 0046e610 f   ChilkatRel:SshTransport.obj
 0001:0006d650       ?pack_binString@SshTransport@@SAXPBEKAAVDataBuffer@@@Z 0046e650 f   ChilkatRel:SshTransport.obj
 0001:0006d680       ?build_kexInit@SshTransport@@AAEXAAVDataBuffer@@@Z 0046e680 f   ChilkatRel:SshTransport.obj
 0001:0006d7d0       ?parseNameList3@SshTransport@@SA_NAAVDataBuffer@@AAKAAVExtPtrArray@@AAVStringBuffer@chilkat@@@Z 0046e7d0 f   ChilkatRel:SshTransport.obj
 0001:0006d820       ?parseNameList2@SshTransport@@SA_NAAVDataBuffer@@AAKAAVClsStringArray@@@Z 0046e820 f   ChilkatRel:SshTransport.obj
 0001:0006d920       ?parseInt64@SshTransport@@SA_NAAVDataBuffer@@AAKAA_J@Z 0046e920 f   ChilkatRel:SshTransport.obj
 0001:0006da00       ?parseUint32@SshTransport@@SA_NAAVDataBuffer@@AAK1@Z 0046ea00 f   ChilkatRel:SshTransport.obj
 0001:0006da90       ?parseBytes@SshTransport@@SA_NAAVDataBuffer@@AAKH0@Z 0046ea90 f   ChilkatRel:SshTransport.obj
 0001:0006db00       ?parseByte@SshTransport@@SA_NAAVDataBuffer@@AAKAAE@Z 0046eb00 f   ChilkatRel:SshTransport.obj
 0001:0006db60       ?parseBool@SshTransport@@SA_NAAVDataBuffer@@AAKAA_N@Z 0046eb60 f   ChilkatRel:SshTransport.obj
 0001:0006dbd0       ?parseBignum@SshTransport@@SAPAKAAVDataBuffer@@AAKAAVLogBase@@@Z 0046ebd0 f   ChilkatRel:SshTransport.obj
 0001:0006dc80       ?readRawPacket@SshTransport@@AAE_NAAVDataBuffer@@KPAVProgressMonitor@@AAVLogBase@@_N@Z 0046ec80 f   ChilkatRel:SshTransport.obj
 0001:0006e870       ?sendMessage@SshTransport@@AAE_NPBDAAVDataBuffer@@PAVProgressMonitor@@AAVLogBase@@_N@Z 0046f870 f   ChilkatRel:SshTransport.obj
 0001:0006ee40       ?msgType@SshTransport@@CAKAAVDataBuffer@@@Z 0046fe40 f   ChilkatRel:SshTransport.obj
 0001:0006ee70       ?isSupportedByServer@SshTransport@@AAE_NPBDAAVExtPtrArray@@@Z 0046fe70 f   ChilkatRel:SshTransport.obj
 0001:0006eed0       ?choose_crypt_algorithm@SshTransport@@AAE_NAAHAAVExtPtrArray@@AAVLogBase@@@Z 0046fed0 f   ChilkatRel:SshTransport.obj
 0001:0006f0b0       ?choose_mac_algorithm@SshTransport@@AAE_NAAHAAVExtPtrArray@@AAVLogBase@@@Z 004700b0 f   ChilkatRel:SshTransport.obj
 0001:0006f170       ?choose_compression@SshTransport@@AAE_NAAHAAVExtPtrArray@@AAVLogBase@@@Z 00470170 f   ChilkatRel:SshTransport.obj
 0001:0006f200       ?choose_hostkey_algorithm@SshTransport@@AAE_NAAVExtPtrArray@@AAVLogBase@@@Z 00470200 f   ChilkatRel:SshTransport.obj
 0001:0006f290       ?choose_kex_algorithm@SshTransport@@AAE_NAAVExtPtrArray@@AAVLogBase@@@Z 00470290 f   ChilkatRel:SshTransport.obj
 0001:0006f390       ?getKeySizes@SshTransport@@AAEXAAH00000@Z 00470390 f   ChilkatRel:SshTransport.obj
 0001:0006f5c0       ?calculateKey@SshTransport@@AAE_NHEAAVDataBuffer@@AAVLogBase@@@Z 004705c0 f   ChilkatRel:SshTransport.obj
 0001:0006f680       ?calculateKey2@SshTransport@@SA_N_NHAAVDataBuffer@@1E11AAVLogBase@@@Z 00470680 f   ChilkatRel:SshTransport.obj
 0001:0006fa70       ?calculateKeys@SshTransport@@AAE_NAAVLogBase@@@Z 00470a70 f   ChilkatRel:SshTransport.obj
 0001:0006fb50       ?readServerVersion@SshTransport@@AAE_NPAVProgressMonitor@@AAVLogBase@@@Z 00470b50 f   ChilkatRel:SshTransport.obj
 0001:0006fd30       ?toSessionLog@SshTransport@@QAEXPBD00@Z 00470d30 f   ChilkatRel:SshTransport.obj
 0001:0006ff00       ?toSessionLog@SshTransport@@QAEXPBDH0@Z 00470f00 f   ChilkatRel:SshTransport.obj
 0001:0006ff80       ?sendKexInit@SshTransport@@AAE_NPAVProgressMonitor@@AAVLogBase@@_N@Z 00470f80 f   ChilkatRel:SshTransport.obj
 0001:00070050       ?parseKexInit@SshTransport@@AAE_NAAVDataBuffer@@AAVLogBase@@@Z 00471050 f   ChilkatRel:SshTransport.obj
 0001:00070ba0       ?calcKeyExchangeNumBits@SshTransport@@AAEXAAK0@Z 00471ba0 f   ChilkatRel:SshTransport.obj
 0001:00070c70       ?computeExchangeHash@SshTransport@@AAEXKKAAVLogBase@@_N@Z 00471c70 f   ChilkatRel:SshTransport.obj
 0001:00070f00       ?sshConnect@SshTransport@@QAE_NAAVClsSocksClient@@PAVClsHttpProxyClient@@PAVProgressMonitor@@AAVLogBase@@AAUSocketReadFailInfo@@_N@Z 00471f00 f   ChilkatRel:SshTransport.obj
 0001:00072720       ??1rsa_key@@QAE@XZ         00473720 f i ChilkatRel:SshTransport.obj
 0001:000727e0       ?installNewKeys@SshTransport@@AAEXAAVLogBase@@@Z 004737e0 f   ChilkatRel:SshTransport.obj
 0001:00072eb0       ?sendIgnoreMsg@SshTransport@@QAE_NAAVDataBuffer@@PAVProgressMonitor@@AAVLogBase@@_N@Z 00473eb0 f   ChilkatRel:SshTransport.obj
 0001:00072f90       ?sendChannelFailure@SshTransport@@AAE_NAAUSshChannel@@PAVProgressMonitor@@AAVLogBase@@_N@Z 00473f90 f   ChilkatRel:SshTransport.obj
 0001:00073050       ?sendServiceRequest@SshTransport@@QAE_NPBDPAVProgressMonitor@@AAVLogBase@@_N@Z 00474050 f   ChilkatRel:SshTransport.obj
 0001:00073140       ?msgTypeName@SshTransport@@CAPBDH@Z 00474140 f   ChilkatRel:SshTransport.obj
 0001:00073390       ?generalizedRead@SshTransport@@AAE_NHKKPAUSshChannel@@AA_N1AAVDataBuffer@@AAK1PAVProgressMonitor@@AAVLogBase@@AAUSocketReadFailInfo@@1_N@Z 00474390 f   ChilkatRel:SshTransport.obj
 0001:00074e70       ?readServiceAccept@SshTransport@@AAE_NAAVDataBuffer@@PAVProgressMonitor@@AAVLogBase@@AAUSocketReadFailInfo@@_N@Z 00475e70 f   ChilkatRel:SshTransport.obj
 0001:00074f00       ?sshKeyboardInteractive@SshTransport@@AAE_NAAVExtPtrArray@@PAVProgressMonitor@@AAVLogBase@@AAUSocketReadFailInfo@@AAKAA_N_N@Z 00475f00 f   ChilkatRel:SshTransport.obj
 0001:00075380       ?sshAuthenticatePw@SshTransport@@QAE_NAAVXString@@0PAVProgressMonitor@@AAVLogBase@@AAUSocketReadFailInfo@@_N@Z 00476380 f   ChilkatRel:SshTransport.obj
 0001:000767f0       ?setTimeouts@SshTransport@@QAEXKK@Z 004777f0 f   ChilkatRel:SshTransport.obj
 0001:00076830       ?parseBannerMsg@SshTransport@@CA_NAAVDataBuffer@@AAVXString@@1AAVLogBase@@@Z 00477830 f   ChilkatRel:SshTransport.obj
 0001:000768f0       ?parseGlobalRequest@SshTransport@@CA_NAAVDataBuffer@@AAVXString@@AA_NAAVLogBase@@@Z 004778f0 f   ChilkatRel:SshTransport.obj
 0001:000769c0       ?parseUserAuthInfoRequest@SshTransport@@CA_NAAVDataBuffer@@AAKAAVLogBase@@@Z 004779c0 f   ChilkatRel:SshTransport.obj
 0001:00076ee0       ?parseUserAuthFailMsg@SshTransport@@CA_NAAVDataBuffer@@AAVClsStringArray@@AA_NAAVLogBase@@@Z 00477ee0 f   ChilkatRel:SshTransport.obj
 0001:00076fa0       ?parseChannelNum@SshTransport@@CAHAAVDataBuffer@@@Z 00477fa0 f   ChilkatRel:SshTransport.obj
 0001:00077030       ?parseExtendedData@SshTransport@@CA_NAAVDataBuffer@@AAK10AAVLogBase@@@Z 00478030 f   ChilkatRel:SshTransport.obj
 0001:000770e0       ?parseData@SshTransport@@CA_NAAVDataBuffer@@AAK0AAVLogBase@@@Z 004780e0 f   ChilkatRel:SshTransport.obj
 0001:00077180       ?parseChannelRequest2@SshTransport@@SA_NAAVDataBuffer@@AAKAAVStringBuffer@chilkat@@@Z 00478180 f   ChilkatRel:SshTransport.obj
 0001:00077200       ?parseExitStatus2@SshTransport@@SA_NAAVDataBuffer@@AAKAAVStringBuffer@chilkat@@1@Z 00478200 f   ChilkatRel:SshTransport.obj
 0001:000772d0       ?queuePayload@SshTransport@@AAEXAAVDataBuffer@@AAVLogBase@@_NH@Z 004782d0 f   ChilkatRel:SshTransport.obj
 0001:000773d0       ?readChannelResponse@SshTransport@@AAE_NAAUSshChannel@@AAVDataBuffer@@PAVProgressMonitor@@AAVLogBase@@AA_NAAUSocketReadFailInfo@@_N@Z 004783d0 f   ChilkatRel:SshTransport.obj
 0001:00077470       ?checkQueuedChannelData@SshTransport@@AAE_NAAUSshChannel@@_NAAVDataBuffer@@AA_N3PAVProgressMonitor@@AAVLogBase@@31@Z 00478470 f   ChilkatRel:SshTransport.obj
 0001:000777e0       ?checkQueuedWindowAdjust@SshTransport@@AAE_NAAUSshChannel@@AA_N1PAVProgressMonitor@@AAVLogBase@@1_N@Z 004787e0 f   ChilkatRel:SshTransport.obj
 0001:00077b20       ?readWindowAdjust@SshTransport@@QAE_NAAUSshChannel@@_NAA_N2PAVProgressMonitor@@AAVLogBase@@2AAUSocketReadFailInfo@@1@Z 00478b20 f   ChilkatRel:SshTransport.obj
 0001:00077c80       ?readChannelData@SshTransport@@QAE_NAAUSshChannel@@K_N11KAAVDataBuffer@@AA_N3PAVProgressMonitor@@AAVLogBase@@3AAUSocketReadFailInfo@@1H1@Z 00478c80 f   ChilkatRel:SshTransport.obj
 0001:00078180       ?parseDisconnect@SshTransport@@CA_NAAVDataBuffer@@AAKAAVStringBuffer@chilkat@@AAVLogBase@@@Z 00479180 f   ChilkatRel:SshTransport.obj
 0001:00078250       ?parseChannelOpenFailure@SshTransport@@CA_NAAVDataBuffer@@AAKAAVStringBuffer@chilkat@@AAVLogBase@@@Z 00479250 f   ChilkatRel:SshTransport.obj
 0001:00078360       ?parseChannelOpenSuccess@SshTransport@@CA_NAAVDataBuffer@@AAUSshChannel@@AAVLogBase@@@Z 00479360 f   ChilkatRel:SshTransport.obj
 0001:00078510       ?sendReqWindowAdjust@SshTransport@@QAE_NAAUSshChannel@@PAVProgressMonitor@@AAVLogBase@@_N@Z 00479510 f   ChilkatRel:SshTransport.obj
 0001:00078600       ?sendReqSubsystem@SshTransport@@QAE_NAAUSshChannel@@AAVXString@@PAVProgressMonitor@@AAVLogBase@@AA_NAAUSocketReadFailInfo@@_N@Z 00479600 f   ChilkatRel:SshTransport.obj
 0001:00078810       ?isBitvise@SshTransport@@QAE_NXZ 00479810 f   ChilkatRel:SshTransport.obj
 0001:000788a0       ?isWeOnlyDo@SshTransport@@QAE_NXZ 004798a0 f   ChilkatRel:SshTransport.obj
 0001:00078950       ?channelSendData@SshTransport@@QAE_NAAUSshChannel@@ABVDataBuffer@@KPAVProgressMonitor@@AAVLogBase@@_N@Z 00479950 f   ChilkatRel:SshTransport.obj
 0001:00078b70       ?channelSendClose@SshTransport@@QAE_NAAUSshChannel@@PAVProgressMonitor@@AAVLogBase@@_N@Z 00479b70 f   ChilkatRel:SshTransport.obj
 0001:00078cb0       ?openChannel@SshTransport@@QAE_NAAUSshChannel@@AAHAAKAAVStringBuffer@chilkat@@PAVProgressMonitor@@AAVLogBase@@AA_NAAUSocketReadFailInfo@@_N@Z 00479cb0 f   ChilkatRel:SshTransport.obj
 0001:00079100       ?unpackFileAttr@SFtpFileAttr@@QAE_NKAAKAAVDataBuffer@@AAVLogBase@@AAH_N@Z 0047a100 f   ChilkatRel:SFtpFileAttr.obj
 0001:000791c0       ??0SFtpFileAttr@@QAE@XZ    0047a1c0 f   ChilkatRel:SFtpFileAttr.obj
 0001:00079400       ??_GSFtpFileAttr@@UAEPAXI@Z 0047a400 f i ChilkatRel:SFtpFileAttr.obj
 0001:00079400       ??_ESFtpFileAttr@@UAEPAXI@Z 0047a400 f i ChilkatRel:SFtpFileAttr.obj
 0001:00079430       ??1SFtpFileAttr@@UAE@XZ    0047a430 f   ChilkatRel:SFtpFileAttr.obj
 0001:00079530       ?clear@SFtpFileAttr@@QAEXXZ 0047a530 f   ChilkatRel:SFtpFileAttr.obj
 0001:000796c0       ?serialize@SFtpFileAttr@@QAEXAAVStringBuffer@chilkat@@AAVLogBase@@@Z 0047a6c0 f   ChilkatRel:SFtpFileAttr.obj
 0001:00079740       ?fromFileTime@SFtpFileAttr@@SAXAAU_FILETIME@@AA_JAAK@Z 0047a740 f   ChilkatRel:SFtpFileAttr.obj
 0001:000797c0       ?unserialize@SFtpFileAttr@@QAE_NAAVStringBuffer@chilkat@@AAVLogBase@@AAH_N@Z 0047a7c0 f   ChilkatRel:SFtpFileAttr.obj
 0001:00079880       ?packFileAttr_v6@SFtpFileAttr@@QAEXAAVDataBuffer@@AAVLogBase@@@Z 0047a880 f   ChilkatRel:SFtpFileAttr.obj
 0001:00079c20       ?unpackFileAttr_v5@SFtpFileAttr@@QAE_NAAKAAVDataBuffer@@AAVLogBase@@AAH_N@Z 0047ac20 f   ChilkatRel:SFtpFileAttr.obj
 0001:0007a0a0       ?unpackFileAttr_v6@SFtpFileAttr@@QAE_NAAKAAVDataBuffer@@AAVLogBase@@AAH_N@Z 0047b0a0 f   ChilkatRel:SFtpFileAttr.obj
 0001:0007a880       ?unpackFileAttr_v4@SFtpFileAttr@@QAE_NAAKAAVDataBuffer@@AAVLogBase@@AAH_N@Z 0047b880 f   ChilkatRel:SFtpFileAttr.obj
 0001:0007acb0       ?unpackFileAttr_v3@SFtpFileAttr@@QAE_NAAKAAVDataBuffer@@AAVLogBase@@AAH_N@Z 0047bcb0 f   ChilkatRel:SFtpFileAttr.obj
 0001:0007b120       ?unpackFileAttr_all@SFtpFileAttr@@QAE_NAAKAAVDataBuffer@@AAVLogBase@@AAH_N@Z 0047c120 f   ChilkatRel:SFtpFileAttr.obj
 0001:0007b320       ?packFileAttr_all@SFtpFileAttr@@QAEXAAVDataBuffer@@AAVLogBase@@@Z 0047c320 f   ChilkatRel:SFtpFileAttr.obj
 0001:0007b3c0       ??0FileInfo@@QAE@XZ        0047c3c0 f   ChilkatRel:FileInfo.obj
 0001:0007b4b0       ??_EFileInfo@@UAEPAXI@Z    0047c4b0 f i ChilkatRel:FileInfo.obj
 0001:0007b4b0       ??_GFileInfo@@UAEPAXI@Z    0047c4b0 f i ChilkatRel:FileInfo.obj
 0001:0007b4e0       ??1FileInfo@@UAE@XZ        0047c4e0 f   ChilkatRel:FileInfo.obj
 0001:0007b540       ?loadFileInfoUtf8@FileInfo@@QAE_NPBDPAVLogBase@@@Z 0047c540 f   ChilkatRel:FileInfo.obj
 0001:0007b670       ?loadFileInfoAnsi@FileInfo@@QAE_NPBDPAVLogBase@@@Z 0047c670 f   ChilkatRel:FileInfo.obj
 0001:0007bad0       ?loadFileInfoUnicode@FileInfo@@QAE_NAAVXString@@PAVLogBase@@@Z 0047cad0 f   ChilkatRel:FileInfo.obj
 0001:0007bd40       ?getPm@ProgressMonitorPtr@@QAEPAVProgressMonitor@@XZ 0047cd40 f   ChilkatRel:ProgressMonitor.obj
 0001:0007bd50       ??0ProgressMonitorPtr@@QAE@PAVProgressEvent@@K@Z 0047cd50 f   ChilkatRel:ProgressMonitor.obj
 0001:0007bde0       ??1ProgressMonitorPtr@@QAE@XZ 0047cde0 f   ChilkatRel:ProgressMonitor.obj
 0001:0007be20       ??0ProgressMonitor@@QAE@XZ 0047ce20 f   ChilkatRel:ProgressMonitor.obj
 0001:0007bec0       ??_EProgressMonitor@@UAEPAXI@Z 0047cec0 f i ChilkatRel:ProgressMonitor.obj
 0001:0007bec0       ??_GProgressMonitor@@UAEPAXI@Z 0047cec0 f i ChilkatRel:ProgressMonitor.obj
 0001:0007bef0       ??0ProgressMonitor@@QAE@PAVProgressEvent@@K@Z 0047cef0 f   ChilkatRel:ProgressMonitor.obj
 0001:0007bfa0       ??1ProgressMonitor@@UAE@XZ 0047cfa0 f   ChilkatRel:ProgressMonitor.obj
 0001:0007bfc0       ?getProgEvent_CAREFUL@ProgressMonitor@@QAEPAVProgressEvent@@XZ 0047cfc0 f   ChilkatRel:ProgressMonitor.obj
 0001:0007bfe0       ?get_Aborted@ProgressMonitor@@QBE_NXZ 0047cfe0 f   ChilkatRel:ProgressMonitor.obj
 0001:0007c000       ?percentConsumed64@ProgressMonitor@@AAEK_J0@Z 0047d000 f   ChilkatRel:ProgressMonitor.obj
 0001:0007c0a0       ?heartbeat@ProgressMonitor@@AAEXHH@Z 0047d0a0 f   ChilkatRel:ProgressMonitor.obj
 0001:0007c100       ?heartbeatCheck2@ProgressMonitor@@QAE_NXZ 0047d100 f   ChilkatRel:ProgressMonitor.obj
 0001:0007c130       ?heartbeatCheck@ProgressMonitor@@QAE_NKH@Z 0047d130 f   ChilkatRel:ProgressMonitor.obj
 0001:0007c1d0       ?abortCheck@ProgressMonitor@@QAEXKH@Z 0047d1d0 f   ChilkatRel:ProgressMonitor.obj
 0001:0007c270       ?consume2_64@ProgressMonitor@@QAEX_JAA_N@Z 0047d270 f   ChilkatRel:ProgressMonitor.obj
 0001:0007c420       ?consume2_32@ProgressMonitor@@QAEXKAA_N@Z 0047d420 f   ChilkatRel:ProgressMonitor.obj
 0001:0007c460       ?progressReset_64@ProgressMonitor@@QAEX_J@Z 0047d460 f   ChilkatRel:ProgressMonitor.obj
 0001:0007c4a0       ?fseekAbsolute64@OutputFile@@UAE_N_J@Z 0047d4a0 f   ChilkatRel:OutputFile.obj
 0001:0007c540       ?getOutputType@OutputFile@@UAEXAAVStringBuffer@chilkat@@@Z 0047d540 f   ChilkatRel:OutputFile.obj
 0001:0007c590       ?ftell64@OutputFile@@UAE_JXZ 0047d590 f   ChilkatRel:OutputFile.obj
 0001:0007c5f0       ?_fwrite64@OutputFile@@MAEKPAX_JKPAVProgressMonitor@@AAVLogBase@@@Z 0047d5f0 f   ChilkatRel:OutputFile.obj
 0001:0007c7b0       ?CreateOutput@OutputFile@@SAPAV1@PBDPAVLogBase@@@Z 0047d7b0 f   ChilkatRel:OutputFile.obj
 0001:0007c860       ?CreateFileUtf8@OutputFile@@SAPAXPBDAA_NPAVLogBase@@@Z 0047d860 f   ChilkatRel:OutputFile.obj
 0001:0007c920       ??_EOutputFile@@UAEPAXI@Z  0047d920 f i ChilkatRel:OutputFile.obj
 0001:0007c920       ??_GOutputFile@@UAEPAXI@Z  0047d920 f i ChilkatRel:OutputFile.obj
 0001:0007c950       ??0OutputFile@@QAE@PAXHPBD@Z 0047d950 f   ChilkatRel:OutputFile.obj
 0001:0007ca10       ??1OutputFile@@UAE@XZ      0047da10 f   ChilkatRel:OutputFile.obj
 0001:0007cad0       ?seekToEnd@OutputFile@@UAE_NXZ 0047dad0 f   ChilkatRel:OutputFile.obj
 0001:0007cb60       ?reset@OutputFile@@UAEXXZ  0047db60 f   ChilkatRel:OutputFile.obj
 0001:0007cb80       ?verifyOutputDerived@OutputFile@@UAEXXZ 0047db80 f   ChilkatRel:OutputFile.obj
 0001:0007cba0       ?_fwrite32@OutputFile@@MAEKPAXKKPAVProgressMonitor@@AAVLogBase@@@Z 0047dba0 f   ChilkatRel:OutputFile.obj
 0001:0007cdd0       ??0LogBase@@QAE@XZ         0047ddd0 f   ChilkatRel:LogBase.obj
 0001:0007cdf0       ??_ELogBase@@UAEPAXI@Z     0047ddf0 f i ChilkatRel:LogBase.obj
 0001:0007cdf0       ??_GLogBase@@UAEPAXI@Z     0047ddf0 f i ChilkatRel:LogBase.obj
 0001:0007ce20       ??1LogBase@@UAE@XZ         0047de20 f   ChilkatRel:LogBase.obj
 0001:0007ce40       ?LogDataHex@LogBase@@QAEXPBDPBEK@Z 0047de40 f   ChilkatRel:LogBase.obj
 0001:0007ced0       ?LogDataQP@LogBase@@QAEXPBD0@Z 0047ded0 f   ChilkatRel:LogBase.obj
 0001:0007cfa0       ?LogBinary@LogBase@@QAEXPBDPBEH@Z 0047dfa0 f   ChilkatRel:LogBase.obj
 0001:0007d050       ?LogDataAnsi@LogBase@@QAEXPBD0@Z 0047e050 f   ChilkatRel:LogBase.obj
 0001:0007d0f0       ?LogDataInt64@LogBase@@UAE_NPBD_J@Z 0047e0f0 f   ChilkatRel:LogBase.obj
 0001:0007d100       ?LogWindowsError@LogBase@@UAEXK@Z 0047e100 f   ChilkatRel:LogBase.obj
 0001:0007d190       ??0Output@@QAE@XZ          0047e190 f   ChilkatRel:Output.obj
 0001:0007d1c0       ??_GOutput@@UAEPAXI@Z      0047e1c0 f i ChilkatRel:Output.obj
 0001:0007d1c0       ??_EOutput@@UAEPAXI@Z      0047e1c0 f i ChilkatRel:Output.obj
 0001:0007d1f0       ??1Output@@UAE@XZ          0047e1f0 f   ChilkatRel:Output.obj
 0001:0007d210       ?getOutputType@Output@@UAEXAAVStringBuffer@chilkat@@@Z 0047e210 f   ChilkatRel:Output.obj
 0001:0007d230       ?getHtml@LogBase@@UAEXAAVStringBuffer@chilkat@@@Z 0047e230 f   ChilkatRel:LogBase.obj
 0001:0007d230       ?getText@LogNull@@UAEXAAVStringBuffer@chilkat@@@Z 0047e230 f   ChilkatRel:LogNull.obj
 0001:0007d230       ?getXml@LogBase@@UAEXAAVStringBuffer@chilkat@@@Z 0047e230 f   ChilkatRel:LogBase.obj
 0001:0007d230       ?peHttpEndReceive@ProgressEvent@@UAEX_N@Z 0047e230 f   ChilkatRel:ProgressEvent.obj
 0001:0007d230       ?getXml@LogNull@@UAEXAAVStringBuffer@chilkat@@@Z 0047e230 f   ChilkatRel:LogNull.obj
 0001:0007d230       ?getDataAlreadyWritten@Output@@UAEXAAVDataBuffer@@@Z 0047e230 f   ChilkatRel:Output.obj
 0001:0007d230       ?getText@LogBase@@UAEXAAVStringBuffer@chilkat@@@Z 0047e230 f   ChilkatRel:LogBase.obj
 0001:0007d230       ?LogTickCount@LogBase@@UAEXPBD@Z 0047e230 f   ChilkatRel:LogBase.obj
 0001:0007d230       ?getHtml@LogNull@@UAEXAAVStringBuffer@chilkat@@@Z 0047e230 f   ChilkatRel:LogNull.obj
 0001:0007d230       ?peHttpEndSend@ProgressEvent@@UAEX_N@Z 0047e230 f   ChilkatRel:ProgressEvent.obj
 0001:0007d230       ?consume@StringConsumer@@UAEXPBD@Z 0047e230 f   ChilkatRel:StringConsumer.obj
 0001:0007d230       ?AbortCheck@ProgressEvent@@UAEXAA_N@Z 0047e230 f   ChilkatRel:ProgressEvent.obj
 0001:0007d230       ?LogTickCount@LogNull@@UAEXPBD@Z 0047e230 f   ChilkatRel:LogNull.obj
 0001:0007d240       ?fwrite64_pm@Output@@QAEKPAX_JKPAVProgressMonitor@@AAVLogBase@@@Z 0047e240 f   ChilkatRel:Output.obj
 0001:0007d290       ?_fwrite32@Output@@MAEKPAXKKPAVProgressMonitor@@AAVLogBase@@@Z 0047e290 f   ChilkatRel:Output.obj
 0001:0007d2b0       ?verifyOutputDerived@Output@@UAEXXZ 0047e2b0 f   ChilkatRel:Output.obj
 0001:0007d2d0       ?ftell64@Output@@UAE_JXZ   0047e2d0 f   ChilkatRel:Output.obj
 0001:0007d2e0       ?_fwrite64@Output@@MAEKPAX_JKPAVProgressMonitor@@AAVLogBase@@@Z 0047e2e0 f   ChilkatRel:Output.obj
 0001:0007d2f0       ?getBuffer_BECAREFUL@Output@@UAEPAVDataBuffer@@XZ 0047e2f0 f   ChilkatRel:Output.obj
 0001:0007d300       ?fwrite2@Output@@QAEKPAXKKAAVLogBase@@@Z 0047e300 f   ChilkatRel:Output.obj
 0001:0007d350       ?fseekRelative64@DataSource@@UAE_N_JPAVLogBase@@@Z 0047e350 f   ChilkatRel:DataSource.obj
 0001:0007d350       ?fseekAbsolute64@DataSource@@UAE_N_JPAVLogBase@@@Z 0047e350 f   ChilkatRel:DataSource.obj
 0001:0007d360       ?ClearLog@LogBase@@UAE_NXZ 0047e360 f   ChilkatRel:LogBase.obj
 0001:0007d360       ?IsUnlocked@ClsCert@@UBE_NXZ 0047e360 f   ChilkatRel:ClsCert.obj
 0001:0007d360       ?seekToEnd@Output@@UAE_NXZ 0047e360 f   ChilkatRel:Output.obj
 0001:0007d360       ?ClearLog@LogNull@@UAE_NXZ 0047e360 f   ChilkatRel:LogNull.obj
 0001:0007d360       ?endOfStream@DataSource@@UAE_NXZ 0047e360 f   ChilkatRel:DataSource.obj
 0001:0007d360       ?LeaveContext@LogBase@@UAE_NXZ 0047e360 f   ChilkatRel:LogBase.obj
 0001:0007d360       ?LeaveContext@LogNull@@UAE_NXZ 0047e360 f   ChilkatRel:LogNull.obj
 0001:0007d370       ?peekNextChunk@DataSource@@UAE_NPADKPAKPAVLogBase@@@Z 0047e370 f   ChilkatRel:DataSource.obj
 0001:0007d370       ?getNextChunk@DataSource@@UAE_NPADKPAKPAVLogBase@@@Z 0047e370 f   ChilkatRel:DataSource.obj
 0001:0007d390       ??0DataSource@@QAE@XZ      0047e390 f   ChilkatRel:DataSource.obj
 0001:0007d410       ??_GDataSource@@UAEPAXI@Z  0047e410 f i ChilkatRel:DataSource.obj
 0001:0007d410       ??_EDataSource@@UAEPAXI@Z  0047e410 f i ChilkatRel:DataSource.obj
 0001:0007d440       ?scanForLong@DataSource@@UAE_NKAA_JPAVLogBase@@@Z 0047e440 f   ChilkatRel:DataSource.obj
 0001:0007d460       ??1DataSource@@UAE@XZ      0047e460 f   ChilkatRel:DataSource.obj
 0001:0007d490       ?getByteCount64@DataSource@@QBE_JXZ 0047e490 f   ChilkatRel:DataSource.obj
 0001:0007d4b0       ?setProgressMonitor@DataSource@@QAEXPAVProgressMonitor@@@Z 0047e4b0 f   ChilkatRel:DataSource.obj
 0001:0007d4b0       ?put_LastFlush@ZeeDeflateState@@QAEXH@Z 0047e4b0 f   ChilkatRel:ZeeDeflateState.obj
 0001:0007d4d0       ?setOwnedSource@FileDataSource@@QAEXPAX@Z 0047e4d0 f   ChilkatRel:FileDataSource.obj
 0001:0007d520       ?OpenSourceFileUtf8@FileDataSource@@SAPAV1@PBDPAVLogBase@@@Z 0047e520 f   ChilkatRel:FileDataSource.obj
 0001:0007d680       ?getFileSize64@FileDataSource@@QAE_JPAVLogBase@@@Z 0047e680 f   ChilkatRel:FileDataSource.obj
 0001:0007d6c0       ?fseekAbsolute64@FileDataSource@@UAE_N_JPAVLogBase@@@Z 0047e6c0 f   ChilkatRel:FileDataSource.obj
 0001:0007d720       ?fseekRelative64@FileDataSource@@UAE_N_JPAVLogBase@@@Z 0047e720 f   ChilkatRel:FileDataSource.obj
 0001:0007d940       ??0FileDataSource@@QAE@XZ  0047e940 f   ChilkatRel:FileDataSource.obj
 0001:0007d9c0       ??_EFileDataSource@@UAEPAXI@Z 0047e9c0 f i ChilkatRel:FileDataSource.obj
 0001:0007d9c0       ??_GFileDataSource@@UAEPAXI@Z 0047e9c0 f i ChilkatRel:FileDataSource.obj
 0001:0007d9f0       ??1FileDataSource@@UAE@XZ  0047e9f0 f   ChilkatRel:FileDataSource.obj
 0001:0007da80       ?endOfStream@FileDataSource@@UAE_NXZ 0047ea80 f   ChilkatRel:FileDataSource.obj
 0001:0007daa0       ?getNextChunk@FileDataSource@@UAE_NPADKPAKPAVLogBase@@@Z 0047eaa0 f   ChilkatRel:FileDataSource.obj
 0001:0007dc80       ?peekNextChunk@FileDataSource@@UAE_NPADKPAKPAVLogBase@@@Z 0047ec80 f   ChilkatRel:FileDataSource.obj
 0001:0007dd60       ?scanForLong@FileDataSource@@UAE_NKAA_JPAVLogBase@@@Z 0047ed60 f   ChilkatRel:FileDataSource.obj
 0001:0007e030       ?getFilePointer64@FileDataSource@@AAE_JXZ 0047f030 f   ChilkatRel:FileDataSource.obj
 0001:0007e090       ?setFilePointer64@FileDataSource@@AAE_N_J@Z 0047f090 f   ChilkatRel:FileDataSource.obj
 0001:0007e100       ??0Logger@@QAE@XZ          0047f100 f   ChilkatRel:Logger.obj
 0001:0007e170       ??_GLogger@@UAEPAXI@Z      0047f170 f i ChilkatRel:Logger.obj
 0001:0007e170       ??_ELogger@@UAEPAXI@Z      0047f170 f i ChilkatRel:Logger.obj
 0001:0007e1a0       ??1Logger@@UAE@XZ          0047f1a0 f   ChilkatRel:Logger.obj
 0001:0007e210       ?SaveXML@Logger@@UAE_N_NPBD@Z 0047f210 f   ChilkatRel:Logger.obj
 0001:0007e2c0       ?getXml@Logger@@UAEXAAVStringBuffer@chilkat@@@Z 0047f2c0 f   ChilkatRel:Logger.obj
 0001:0007e300       ?getHtml@Logger@@UAEXAAVStringBuffer@chilkat@@@Z 0047f300 f   ChilkatRel:Logger.obj
 0001:0007e340       ?getText@Logger@@UAEXAAVStringBuffer@chilkat@@@Z 0047f340 f   ChilkatRel:Logger.obj
 0001:0007e380       ?LogError@Logger@@UAE_NPBD@Z 0047f380 f   ChilkatRel:Logger.obj
 0001:0007e3c0       ?LogInfo@Logger@@UAE_NPBD@Z 0047f3c0 f   ChilkatRel:Logger.obj
 0001:0007e400       ?ClearLog@Logger@@UAE_NXZ  0047f400 f   ChilkatRel:Logger.obj
 0001:0007e440       ?EnterContext@Logger@@UAE_NPBD_N@Z 0047f440 f   ChilkatRel:Logger.obj
 0001:0007e480       ?LeaveContext@Logger@@UAE_NXZ 0047f480 f   ChilkatRel:Logger.obj
 0001:0007e4c0       ?LogTickCount@Logger@@UAEXPBD@Z 0047f4c0 f   ChilkatRel:Logger.obj
 0001:0007e5c0       ?LogData@Logger@@UAE_NPBD0@Z 0047f5c0 f   ChilkatRel:Logger.obj
 0001:0007e6b0       ?LogXml@Logger@@UAE_NPBD@Z 0047f6b0 f   ChilkatRel:Logger.obj
 0001:0007e6f0       ?LogDataLong@Logger@@UAE_NPBDJ@Z 0047f6f0 f   ChilkatRel:Logger.obj
 0001:0007e7d0       ?LogDataInt64@Logger@@UAE_NPBD_J@Z 0047f7d0 f   ChilkatRel:Logger.obj
 0001:0007e8e0       ?LogHex@Logger@@UAE_NPBDJ@Z 0047f8e0 f   ChilkatRel:Logger.obj
 0001:0007e9e0       ?regOpenKeyEx@Psdk@@SAJPAUHKEY__@@PBDKKPAPAU2@@Z 0047f9e0 f   ChilkatRel:Psdk.obj
 0001:0007ea00       ?regCreateKeyEx@Psdk@@SAJPAUHKEY__@@PBDKPADKKPAU_SECURITY_ATTRIBUTES@@PAPAU2@PAK@Z 0047fa00 f   ChilkatRel:Psdk.obj
 0001:0007ea30       ?deleteFile@Psdk@@SAHPBD@Z 0047fa30 f   ChilkatRel:Psdk.obj
 0001:0007ea40       ?writeFile@Psdk@@SAHPAXPBXKPAK@Z 0047fa40 f   ChilkatRel:Psdk.obj
 0001:0007eae0       ?getFileAttributes@Psdk@@SAKPBD@Z 0047fae0 f   ChilkatRel:Psdk.obj
 0001:0007eaf0       ?formatMessage@Psdk@@SAKKPBXKKPADKPAPAD@Z 0047faf0 f   ChilkatRel:Psdk.obj
 0001:0007eb20       ?getTempPath@Psdk@@SAKKPAD@Z 0047fb20 f   ChilkatRel:Psdk.obj
 0001:0007eb40       ?setFileAttributes@Psdk@@SAHPBDK@Z 0047fb40 f   ChilkatRel:Psdk.obj
 0001:0007eb60       ?cryptAcquireContext@Psdk@@SAHPAKPBD1KK@Z 0047fb60 f   ChilkatRel:Psdk.obj
 0001:0007eb80       ?createFile@Psdk@@SAPAXPBDKKPAU_SECURITY_ATTRIBUTES@@KKPAX@Z 0047fb80 f   ChilkatRel:Psdk.obj
 0001:0007ebb0       ?getUsername@Psdk@@SAXAAVStringBuffer@chilkat@@@Z 0047fbb0 f   ChilkatRel:Psdk.obj
 0001:0007ec10       ?getComputerName@Psdk@@SAXAAVStringBuffer@chilkat@@@Z 0047fc10 f   ChilkatRel:Psdk.obj
 0001:0007ec70       ?acquireContext@Psdk@@SAKXZ 0047fc70 f   ChilkatRel:Psdk.obj
 0001:0007ed00       ?urlEncode2@UrlEncode@@SAXPBEKAAVStringBuffer@chilkat@@@Z 0047fd00 f   ChilkatRel:UrlEncode.obj
 0001:0007ee00       ?urlDecode@UrlEncode@@SAXABVStringBuffer@chilkat@@AAVDataBuffer@@@Z 0047fe00 f   ChilkatRel:UrlEncode.obj
 0001:0007ef20       ?appendBase64@ContentCoding@@QAEXAAVStringBuffer@chilkat@@PBD@Z 0047ff20 f   ChilkatRel:ContentCoding.obj
 0001:0007ef80       ??0ContentCoding@@QAE@XZ   0047ff80 f   ChilkatRel:ContentCoding.obj
 0001:0007efb0       ??_EContentCoding@@UAEPAXI@Z 0047ffb0 f i ChilkatRel:ContentCoding.obj
 0001:0007efb0       ??_GContentCoding@@UAEPAXI@Z 0047ffb0 f i ChilkatRel:ContentCoding.obj
 0001:0007efe0       ??1ContentCoding@@UAE@XZ   0047ffe0 f   ChilkatRel:ContentCoding.obj
 0001:0007f000       ?computeBase64Size@ContentCoding@@CAHHH@Z 00480000 f   ChilkatRel:ContentCoding.obj
 0001:0007f040       ?encodeBase64@ContentCoding@@QBEXPBXHAAVStringBuffer@chilkat@@@Z 00480040 f   ChilkatRel:ContentCoding.obj
 0001:0007f470       ?decodeBase32@ContentCoding@@SAXPBEKAAVDataBuffer@@@Z 00480470 f   ChilkatRel:ContentCoding.obj
 0001:0007f720       ?encodeBase64_noCrLf@ContentCoding@@SAXPBXHAAVStringBuffer@chilkat@@@Z 00480720 f   ChilkatRel:ContentCoding.obj
 0001:0007faa0       ?decodeBase64ToDb@ContentCoding@@QBE_NPBDHAAVDataBuffer@@@Z 00480aa0 f   ChilkatRel:ContentCoding.obj
 0001:0007fb10       ?decodeBase64_2@ContentCoding@@QBEPADPBDHPAHAA_N@Z 00480b10 f   ChilkatRel:ContentCoding.obj
 0001:0007fd30       ?decodeBase64@ContentCoding@@QBEPADPBDHPAH@Z 00480d30 f   ChilkatRel:ContentCoding.obj
 0001:0007ff40       ?decodeQuotedPrintableToDb@ContentCoding@@QBE_NPBDHAAVDataBuffer@@@Z 00480f40 f   ChilkatRel:ContentCoding.obj
 0001:0007ff90       ?decodeQuotedPrintable@ContentCoding@@QBEPADPBDHPAH@Z 00480f90 f   ChilkatRel:ContentCoding.obj
 0001:000807d0       ?encodeQuotedPrintable@ContentCoding@@QBEXPBXHAAVStringBuffer@chilkat@@@Z 004817d0 f   ChilkatRel:ContentCoding.obj
 0001:00081100       ?ck_toupper@@YADD@Z        00482100 f   ChilkatRel:globalFunctions.obj
 0001:00081130       ?stristr@@YAPBDPBD0@Z      00482130 f   ChilkatRel:globalFunctions.obj
 0001:00081240       ?cfCloseHandle@CF@@SAXPAXPAVLogBase@@@Z 00482240 f   ChilkatRel:CF.obj
 0001:00081260       ?cfCreateFileAnsi@CF@@SAPAXHPBDKKPAU_SECURITY_ATTRIBUTES@@KKPAXAAKPAVLogBase@@@Z 00482260 f   ChilkatRel:CF.obj
 0001:00081430       ?cfCreateFileUnicode@CF@@SAPAXHPBGKKPAU_SECURITY_ATTRIBUTES@@KKPAXAAKPAVLogBase@@@Z 00482430 f   ChilkatRel:CF.obj
 0001:00081620       ?initialize@Md5@@QAEXXZ    00482620 f   ChilkatRel:Md5.obj
 0001:00081670       ??0Md5@@QAE@XZ             00482670 f   ChilkatRel:Md5.obj
 0001:00081690       ??_GMd5@@UAEPAXI@Z         00482690 f i ChilkatRel:Md5.obj
 0001:00081690       ??_EMd5@@UAEPAXI@Z         00482690 f i ChilkatRel:Md5.obj
 0001:000816c0       ??1Md5@@UAE@XZ             004826c0 f   ChilkatRel:Md5.obj
 0001:000816e0       ?update@Md5@@QAEXPBEI@Z    004826e0 f   ChilkatRel:Md5.obj
 0001:00082740       ?final@Md5@@QAEXPAE@Z      00483740 f   ChilkatRel:Md5.obj
 0001:00082880       ?digestString@Md5@@QAEXABVStringBuffer@chilkat@@PAE@Z 00483880 f   ChilkatRel:Md5.obj
 0001:000828c0       ?digestBytes@Md5@@QAEXPBEKPAE@Z 004838c0 f   ChilkatRel:Md5.obj
 0001:00082900       ?digestData@Md5@@QAEXABVDataBuffer@@PAE@Z 00483900 f   ChilkatRel:Md5.obj
 0001:00082940       ??_GStringPair@@UAEPAXI@Z  00483940 f i ChilkatRel:StringPair.obj
 0001:00082940       ??_EStringPair@@UAEPAXI@Z  00483940 f i ChilkatRel:StringPair.obj
 0001:00082970       ??0StringPair@@QAE@PBD0@Z  00483970 f   ChilkatRel:StringPair.obj
 0001:00082a90       ??1StringPair@@UAE@XZ      00483a90 f   ChilkatRel:StringPair.obj
 0001:00082b70       ??0LogNull@@QAE@XZ         00483b70 f   ChilkatRel:LogNull.obj
 0001:00082b90       ??_ELogNull@@UAEPAXI@Z     00483b90 f i ChilkatRel:LogNull.obj
 0001:00082b90       ??_GLogNull@@UAEPAXI@Z     00483b90 f i ChilkatRel:LogNull.obj
 0001:00082bc0       ??1LogNull@@UAE@XZ         00483bc0 f   ChilkatRel:LogNull.obj
 0001:00082be0       ?LogXml@LogNull@@UAE_NPBD@Z 00483be0 f   ChilkatRel:LogNull.obj
 0001:00082be0       ?ensureBuffer@Output@@UAE_NK@Z 00483be0 f   ChilkatRel:Output.obj
 0001:00082be0       ?LogInfo@LogBase@@UAE_NPBD@Z 00483be0 f   ChilkatRel:LogBase.obj
 0001:00082be0       ?LogError@LogNull@@UAE_NPBD@Z 00483be0 f   ChilkatRel:LogNull.obj
 0001:00082be0       ?LogInfo@LogNull@@UAE_NPBD@Z 00483be0 f   ChilkatRel:LogNull.obj
 0001:00082be0       ?LogError@LogBase@@UAE_NPBD@Z 00483be0 f   ChilkatRel:LogBase.obj
 0001:00082be0       ?UnlockComponent@ClsCert@@UAE_NPBD@Z 00483be0 f   ChilkatRel:ClsCert.obj
 0001:00082be0       ?LogXml@LogBase@@UAE_NPBD@Z 00483be0 f   ChilkatRel:LogBase.obj
 0001:00082bf0       ?SaveXML@LogNull@@UAE_N_NPBD@Z 00483bf0 f   ChilkatRel:LogNull.obj
 0001:00082bf0       ?EnterContext@LogNull@@UAE_NPBD_N@Z 00483bf0 f   ChilkatRel:LogNull.obj
 0001:00082bf0       ?LogDataLong@LogNull@@UAE_NPBDJ@Z 00483bf0 f   ChilkatRel:LogNull.obj
 0001:00082bf0       ?SaveXML@LogBase@@UAE_N_NPBD@Z 00483bf0 f   ChilkatRel:LogBase.obj
 0001:00082bf0       ?EnterContext@LogBase@@UAE_NPBD_N@Z 00483bf0 f   ChilkatRel:LogBase.obj
 0001:00082bf0       ?LogData@LogNull@@UAE_NPBD0@Z 00483bf0 f   ChilkatRel:LogNull.obj
 0001:00082bf0       ?LogHex@LogBase@@UAE_NPBDJ@Z 00483bf0 f   ChilkatRel:LogBase.obj
 0001:00082bf0       ?LogData@LogBase@@UAE_NPBD0@Z 00483bf0 f   ChilkatRel:LogBase.obj
 0001:00082bf0       ?fseekAbsolute64@Output@@UAE_N_J@Z 00483bf0 f   ChilkatRel:Output.obj
 0001:00082bf0       ?LogDataLong@LogBase@@UAE_NPBDJ@Z 00483bf0 f   ChilkatRel:LogBase.obj
 0001:00082c00       ?randomSeed@ChilkatRand@@CAXXZ 00483c00 f   ChilkatRel:ChilkatRand.obj
 0001:00082cf0       ??0ChilkatRand@@QAE@XZ     00483cf0 f   ChilkatRel:ChilkatRand.obj
 0001:00082d30       ??_EChilkatRand@@UAEPAXI@Z 00483d30 f i ChilkatRel:ChilkatRand.obj
 0001:00082d30       ??_GChilkatRand@@UAEPAXI@Z 00483d30 f i ChilkatRel:ChilkatRand.obj
 0001:00082d60       ??1ChilkatRand@@UAE@XZ     00483d60 f   ChilkatRel:ChilkatRand.obj
 0001:00082d80       ?randomBytes@ChilkatRand@@SAXHAAVDataBuffer@@@Z 00483d80 f   ChilkatRel:ChilkatRand.obj
 0001:00082e60       ?randomNonZeroBytes@ChilkatRand@@SAXHAAVDataBuffer@@@Z 00483e60 f   ChilkatRel:ChilkatRand.obj
 0001:00082f70       ?str2Key@PassPhrase@@SAXPBDAAVDataBuffer@@@Z 00483f70 f   ChilkatRel:PassPhrase.obj
 0001:00082ff0       ?db2Key@PassPhrase@@SAXABVDataBuffer@@AAV2@@Z 00483ff0 f   ChilkatRel:PassPhrase.obj
 0001:000830f0       ?GetRijndael@CryptoPtr@@QAEPAVRijndael2@@XZ 004840f0 f   ChilkatRel:CryptoPtr.obj
 0001:00083190       ?GetBlowfish@CryptoPtr@@QAEPAVBlowFish@@XZ 00484190 f   ChilkatRel:CryptoPtr.obj
 0001:00083230       ?GetBlowfish2@CryptoPtr@@QAEPAVBlowFish2@@XZ 00484230 f   ChilkatRel:CryptoPtr.obj
 0001:000832d0       ?GetTwofish@CryptoPtr@@QAEPAVTwoFish@@XZ 004842d0 f   ChilkatRel:CryptoPtr.obj
 0001:00083370       ?GetRc2@CryptoPtr@@QAEPAVChilkatRc2@@XZ 00484370 f   ChilkatRel:CryptoPtr.obj
 0001:00083410       ?GetArc4@CryptoPtr@@QAEPAVChilkatArc4@@XZ 00484410 f   ChilkatRel:CryptoPtr.obj
 0001:000834b0       ?GetDes@CryptoPtr@@QAEPAVChilkatDes@@XZ 004844b0 f   ChilkatRel:CryptoPtr.obj
 0001:00083550       ??_GCryptoPtr@@UAEPAXI@Z   00484550 f i ChilkatRel:CryptoPtr.obj
 0001:00083550       ??_ECryptoPtr@@UAEPAXI@Z   00484550 f i ChilkatRel:CryptoPtr.obj
 0001:00083580       ??0CryptoPtr@@QAE@XZ       00484580 f   ChilkatRel:CryptoPtr.obj
 0001:000835e0       ?clearCryptoPtr@CryptoPtr@@QAEXXZ 004845e0 f   ChilkatRel:CryptoPtr.obj
 0001:000837b0       ??_GBlowFish@@QAEPAXI@Z    004847b0 f i ChilkatRel:CryptoPtr.obj
 0001:000837e0       ??_GBlowFish2@@QAEPAXI@Z   004847e0 f i ChilkatRel:CryptoPtr.obj
 0001:00083810       ??_GRijndael2@@QAEPAXI@Z   00484810 f i ChilkatRel:CryptoPtr.obj
 0001:00083840       ??1CryptoPtr@@UAE@XZ       00484840 f   ChilkatRel:CryptoPtr.obj
 0001:00083860       ?doHMAC@Hmac@@SAXPBEH0HHAAVDataBuffer@@@Z 00484860 f   ChilkatRel:HmacCpp.obj
 0001:00083af0       ??1CryptoSettings2@@UAE@XZ 00484af0 f   ChilkatRel:CryptoAlg.obj
 0001:00083b80       ??_GCryptoSettings2@@UAEPAXI@Z 00484b80 f i ChilkatRel:CryptoAlg.obj
 0001:00083b80       ??_ECryptoSettings2@@UAEPAXI@Z 00484b80 f i ChilkatRel:CryptoAlg.obj
 0001:00083bb0       ??0CryptoSettings2@@QAE@XZ 00484bb0 f   ChilkatRel:CryptoAlg.obj
 0001:00083c80       ?getAlgorithmName@CryptoAlg@@QBEPBDXZ 00484c80 f   ChilkatRel:CryptoAlg.obj
 0001:00083ca0       ??0CryptoAlg@@QAE@IKPBD@Z  00484ca0 f   ChilkatRel:CryptoAlg.obj
 0001:00083d30       ??_GCryptoAlg@@UAEPAXI@Z   00484d30 f i ChilkatRel:CryptoAlg.obj
 0001:00083d30       ??_ECryptoAlg@@UAEPAXI@Z   00484d30 f i ChilkatRel:CryptoAlg.obj
 0001:00083d60       ??1CryptoAlg@@UAE@XZ       00484d60 f   ChilkatRel:CryptoAlg.obj
 0001:00083dc0       ?getOid@CryptoAlg@@QAE_NAAVStringBuffer@chilkat@@@Z 00484dc0 f   ChilkatRel:CryptoAlg.obj
 0001:00084150       ?isAnyEncrypt@CryptoAlg@@QBE_NXZ 00485150 f   ChilkatRel:CryptoAlg.obj
 0001:00084190       ?isDataEncrypt@CryptoAlg@@QBE_NXZ 00485190 f   ChilkatRel:CryptoAlg.obj
 0001:000841c0       ?isMsgEncrypt@CryptoAlg@@QBE_NXZ 004851c0 f   ChilkatRel:CryptoAlg.obj
 0001:000841f0       ?isHash@CryptoAlg@@QBE_NXZ 004851f0 f   ChilkatRel:CryptoAlg.obj
 0001:00084220       ?isKeyExchange@CryptoAlg@@QBE_NXZ 00485220 f   ChilkatRel:CryptoAlg.obj
 0001:00084250       ?isSignature@CryptoAlg@@QBE_NXZ 00485250 f   ChilkatRel:CryptoAlg.obj
 0001:00084280       ?stringToMDY@RegKey@@QAE_NPBDAAH11PAVLogBase@@@Z 00485280 f   ChilkatRel:RegKey.obj
 0001:000843b0       ?mdyToString@RegKey@@QAEXHHHAAVStringBuffer@chilkat@@PAVLogBase@@@Z 004853b0 f   ChilkatRel:RegKey.obj
 0001:00084480       ?currentMDYToString@RegKey@@QAEXAAVStringBuffer@chilkat@@PAVLogBase@@@Z 00485480 f   ChilkatRel:RegKey.obj
 0001:000844c0       ??0RegKey@@QAE@XZ          004854c0 f   ChilkatRel:RegKey.obj
 0001:000844e0       ??_GRegKey@@UAEPAXI@Z      004854e0 f i ChilkatRel:RegKey.obj
 0001:000844e0       ??_ERegKey@@UAEPAXI@Z      004854e0 f i ChilkatRel:RegKey.obj
 0001:00084510       ??1RegKey@@UAE@XZ          00485510 f   ChilkatRel:RegKey.obj
 0001:00084530       ?validateKey2@RegKey@@QAE_NPBD@Z 00485530 f   ChilkatRel:RegKey.obj
 0001:00084620       ?_genKey2_helper@RegKey@@AAEPADPBDPAD@Z 00485620 f   ChilkatRel:RegKey.obj
 0001:00084a60       ?validate30DayKey@RegKey@@QAE_NHHHAAH00PAVLogBase@@@Z 00485a60 f   ChilkatRel:RegKey.obj
 0001:00084cf0       ?UnlockComponent2@RegKey@@QAE_NPBD00AA_NAAVLogBase@@_N@Z 00485cf0 f   ChilkatRel:RegKey.obj
 0001:00086780       ??0TwoFish@@QAE@XZ         00487780 f   ChilkatRel:TwoFish.obj
 0001:00086860       ??_GTwoFish@@UAEPAXI@Z     00487860 f i ChilkatRel:TwoFish.obj
 0001:00086860       ??_ETwoFish@@UAEPAXI@Z     00487860 f i ChilkatRel:TwoFish.obj
 0001:00086890       ??1TwoFish@@UAE@XZ         00487890 f   ChilkatRel:TwoFish.obj
 0001:000868c0       ?setIV@TwoFish@@QAEXPBE@Z  004878c0 f   ChilkatRel:TwoFish.obj
 0001:000868f0       ?setKeyLength@TwoFish@@QAEHH@Z 004878f0 f   ChilkatRel:TwoFish.obj
 0001:00086950       ?encryptFirstChunk@TwoFish@@QAEPAVDataBuffer@@AAV2@0AAVLogBase@@@Z 00487950 f   ChilkatRel:TwoFish.obj
 0001:00086af0       ?encryptMiddleChunk@TwoFish@@QAEPAVDataBuffer@@AAV2@0AAVLogBase@@@Z 00487af0 f   ChilkatRel:TwoFish.obj
 0001:00086cb0       ?encryptLastChunk@TwoFish@@QAEPAVDataBuffer@@AAV2@0AAVLogBase@@@Z 00487cb0 f   ChilkatRel:TwoFish.obj
 0001:00086e90       ?decryptFirstChunk@TwoFish@@QAEPAVDataBuffer@@AAV2@PAEAAVLogBase@@@Z 00487e90 f   ChilkatRel:TwoFish.obj
 0001:00087040       ?decryptMiddleChunk@TwoFish@@QAEPAVDataBuffer@@AAV2@PAEAAVLogBase@@@Z 00488040 f   ChilkatRel:TwoFish.obj
 0001:00087200       ?decryptLastChunk@TwoFish@@QAEPAVDataBuffer@@AAV2@PAEAAVLogBase@@@Z 00488200 f   ChilkatRel:TwoFish.obj
 0001:000873c0       ?setPadding@TwoFish@@QAEXH@Z 004883c0 f   ChilkatRel:TwoFish.obj
 0001:000873e0       ?PrepareKey@TwoFish@@QAEXH@Z 004883e0 f   ChilkatRel:TwoFish.obj
 0001:00087510       ?encrypt2@TwoFish@@QAEPAVDataBuffer@@AAV2@AAVLogBase@@@Z 00488510 f   ChilkatRel:TwoFish.obj
 0001:000876c0       ?setSecretKey@TwoFish@@QAEXABVDataBuffer@@@Z 004886c0 f   ChilkatRel:TwoFish.obj
 0001:000876f0       ?setByteSwap@TwoFish@@QAEX_N@Z 004886f0 f   ChilkatRel:TwoFish.obj
 0001:00087710       ?decrypt2@TwoFish@@QAEPAVDataBuffer@@AAV2@AAVLogBase@@@Z 00488710 f   ChilkatRel:TwoFish.obj
 0001:000878c0       ?setModeECB@TwoFish@@QAE_NXZ 004888c0 f   ChilkatRel:TwoFish.obj
 0001:000878e0       ?setModeCBC@TwoFish@@QAE_NXZ 004888e0 f   ChilkatRel:TwoFish.obj
 0001:00087900       ??0ChilkatArc4@@QAE@XZ     00488900 f   ChilkatRel:ChilkatArc4.obj
 0001:00087960       ??_GChilkatArc4@@UAEPAXI@Z 00488960 f i ChilkatRel:ChilkatArc4.obj
 0001:00087960       ??_EChilkatArc4@@UAEPAXI@Z 00488960 f i ChilkatRel:ChilkatArc4.obj
 0001:00087990       ??1ChilkatArc4@@UAE@XZ     00488990 f   ChilkatRel:ChilkatArc4.obj
 0001:000879b0       ?stir1536@ChilkatArc4@@QAEXXZ 004889b0 f   ChilkatRel:ChilkatArc4.obj
 0001:00087a40       ?PrepareKey@ChilkatArc4@@QAEXAAVDataBuffer@@K@Z 00488a40 f   ChilkatRel:ChilkatArc4.obj
 0001:00087aa0       ?keySchedule@ChilkatArc4@@AAEXPBEH@Z 00488aa0 f   ChilkatRel:ChilkatArc4.obj
 0001:00087b80       ?cipher2@ChilkatArc4@@AAEXPBEPAEH@Z 00488b80 f   ChilkatRel:ChilkatArc4.obj
 0001:00087c50       ?encryptOrDecrypt@ChilkatArc4@@QAEPAVDataBuffer@@AAV2@@Z 00488c50 f   ChilkatRel:ChilkatArc4.obj
 0001:00087d60       ??0ChilkatRc2@@QAE@XZ      00488d60 f   ChilkatRel:ChilkatRc2.obj
 0001:00087dd0       ??_EChilkatRc2@@UAEPAXI@Z  00488dd0 f i ChilkatRel:ChilkatRc2.obj
 0001:00087dd0       ??_GChilkatRc2@@UAEPAXI@Z  00488dd0 f i ChilkatRel:ChilkatRc2.obj
 0001:00087e00       ??1ChilkatRc2@@UAE@XZ      00488e00 f   ChilkatRel:ChilkatRc2.obj
 0001:00087e20       ?setPadding@ChilkatRc2@@QAEXH@Z 00488e20 f   ChilkatRel:ChilkatRc2.obj
 0001:00087e40       ?setIV@ChilkatRc2@@QAEXABVDataBuffer@@@Z 00488e40 f   ChilkatRel:ChilkatRc2.obj
 0001:00087e80       ?setMode@ChilkatRc2@@QAEXH@Z 00488e80 f   ChilkatRel:ChilkatRc2.obj
 0001:00087ea0       ?PrepareKey@ChilkatRc2@@QAEXAAVDataBuffer@@KK@Z 00488ea0 f   ChilkatRel:ChilkatRc2.obj
 0001:00087f30       ?keySchedule@ChilkatRc2@@AAE_NPBEKK@Z 00488f30 f   ChilkatRel:ChilkatRc2.obj
 0001:000880b0       ?encryptOneBlock@ChilkatRc2@@AAEXPBEPAE@Z 004890b0 f   ChilkatRel:ChilkatRc2.obj
 0001:000882d0       ?ecbEncrypt@ChilkatRc2@@AAEXPBEPAEK@Z 004892d0 f   ChilkatRel:ChilkatRc2.obj
 0001:00088310       ?ecbDecrypt@ChilkatRc2@@AAEXPBEPAEK@Z 00489310 f   ChilkatRel:ChilkatRc2.obj
 0001:00088350       ?cbcEncrypt@ChilkatRc2@@AAEXPAEPBE0K@Z 00489350 f   ChilkatRel:ChilkatRc2.obj
 0001:000883e0       ?cbcDecrypt@ChilkatRc2@@AAEXPAEPBE0K@Z 004893e0 f   ChilkatRel:ChilkatRc2.obj
 0001:000884a0       ?decryptOneBlock@ChilkatRc2@@AAEXPBEPAE@Z 004894a0 f   ChilkatRel:ChilkatRc2.obj
 0001:000886f0       ?encrypt@ChilkatRc2@@QAEPAVDataBuffer@@AAV2@AAVLogBase@@@Z 004896f0 f   ChilkatRel:ChilkatRc2.obj
 0001:00088880       ?encryptMiddleChunk@ChilkatRc2@@QAEPAVDataBuffer@@AAV2@0AAVLogBase@@@Z 00489880 f   ChilkatRel:ChilkatRc2.obj
 0001:000889e0       ?encryptLastChunk@ChilkatRc2@@QAEPAVDataBuffer@@AAV2@0AAVLogBase@@@Z 004899e0 f   ChilkatRel:ChilkatRc2.obj
 0001:00088b80       ?decrypt@ChilkatRc2@@QAEPAVDataBuffer@@AAV2@AAVLogBase@@@Z 00489b80 f   ChilkatRel:ChilkatRc2.obj
 0001:00088d00       ?decryptFirstChunk@ChilkatRc2@@QAEPAVDataBuffer@@AAV2@PAEAAVLogBase@@@Z 00489d00 f   ChilkatRel:ChilkatRc2.obj
 0001:00088e80       ?decryptMiddleChunk@ChilkatRc2@@QAEPAVDataBuffer@@AAV2@PAEAAVLogBase@@@Z 00489e80 f   ChilkatRel:ChilkatRc2.obj
 0001:00088ff0       ?decryptLastChunk@ChilkatRc2@@QAEPAVDataBuffer@@AAV2@PAEAAVLogBase@@@Z 00489ff0 f   ChilkatRel:ChilkatRc2.obj
 0001:00089170       ??0ChilkatDes@@QAE@XZ      0048a170 f   ChilkatRel:ChilkatDes.obj
 0001:00089200       ??_GChilkatDes@@UAEPAXI@Z  0048a200 f i ChilkatRel:ChilkatDes.obj
 0001:00089200       ??_EChilkatDes@@UAEPAXI@Z  0048a200 f i ChilkatRel:ChilkatDes.obj
 0001:00089230       ??1ChilkatDes@@UAE@XZ      0048a230 f   ChilkatRel:ChilkatDes.obj
 0001:00089250       ?des_main_ks@ChilkatDes@@AAEXQAKPBEAAVLogBase@@@Z 0048a250 f   ChilkatRel:ChilkatDes.obj
 0001:00089750       ?setDesKey@ChilkatDes@@AAEXPBEAAVLogBase@@@Z 0048a750 f   ChilkatRel:ChilkatDes.obj
 0001:000897d0       ?des_crypt@ChilkatDes@@AAEXPAKPBEPAE@Z 0048a7d0 f   ChilkatRel:ChilkatDes.obj
 0001:0008a5e0       ?desEcbEncrypt@ChilkatDes@@AAEXPBEPAEK@Z 0048b5e0 f   ChilkatRel:ChilkatDes.obj
 0001:0008a630       ?desEcbDecrypt@ChilkatDes@@AAEXPBEPAEK@Z 0048b630 f   ChilkatRel:ChilkatDes.obj
 0001:0008a680       ?des3_crypt@ChilkatDes@@AAEXPAKPBEPAE@Z 0048b680 f   ChilkatRel:ChilkatDes.obj
 0001:0008cbb0       ?des3EcbEncrypt@ChilkatDes@@AAEXPBEPAEK@Z 0048dbb0 f   ChilkatRel:ChilkatDes.obj
 0001:0008cc00       ?des3EcbDecrypt@ChilkatDes@@AAEXPBEPAEK@Z 0048dc00 f   ChilkatRel:ChilkatDes.obj
 0001:0008cc50       ?desCbcEncrypt@ChilkatDes@@AAEXPAEPBE0H@Z 0048dc50 f   ChilkatRel:ChilkatDes.obj
 0001:0008ccf0       ?desCbcDecrypt@ChilkatDes@@AAEXPAEPBE0H@Z 0048dcf0 f   ChilkatRel:ChilkatDes.obj
 0001:0008cdc0       ?setDes3_2keys@ChilkatDes@@AAEXPBEAAVLogBase@@@Z 0048ddc0 f   ChilkatRel:ChilkatDes.obj
 0001:0008cf00       ?setDes3_3keys@ChilkatDes@@AAEXPBEAAVLogBase@@@Z 0048df00 f   ChilkatRel:ChilkatDes.obj
 0001:0008d040       ?des3CbcEncrypt@ChilkatDes@@AAEXPAEPBE0H@Z 0048e040 f   ChilkatRel:ChilkatDes.obj
 0001:0008d0e0       ?des3CbcDecrypt@ChilkatDes@@AAEXPAEPBE0H@Z 0048e0e0 f   ChilkatRel:ChilkatDes.obj
 0001:0008d1b0       ?PrepareKey@ChilkatDes@@QAEXAAVDataBuffer@@HAAVLogBase@@@Z 0048e1b0 f   ChilkatRel:ChilkatDes.obj
 0001:0008d310       ?setPadding@ChilkatDes@@QAEXH@Z 0048e310 f   ChilkatRel:ChilkatDes.obj
 0001:0008d330       ?setIV@ChilkatDes@@QAEXABVDataBuffer@@@Z 0048e330 f   ChilkatRel:ChilkatDes.obj
 0001:0008d370       ?clearIV@ChilkatDes@@QAEXXZ 0048e370 f   ChilkatRel:ChilkatDes.obj
 0001:0008d390       ?setMode@ChilkatDes@@QAEXH@Z 0048e390 f   ChilkatRel:ChilkatDes.obj
 0001:0008d3b0       ?encrypt@ChilkatDes@@QAEPAVDataBuffer@@AAV2@AAVLogBase@@@Z 0048e3b0 f   ChilkatRel:ChilkatDes.obj
 0001:0008d5a0       ?encryptFirstChunk@ChilkatDes@@QAEPAVDataBuffer@@AAV2@0AAVLogBase@@@Z 0048e5a0 f   ChilkatRel:ChilkatDes.obj
 0001:0008d7b0       ?encryptMiddleChunk@ChilkatDes@@QAEPAVDataBuffer@@AAV2@0AAVLogBase@@@Z 0048e7b0 f   ChilkatRel:ChilkatDes.obj
 0001:0008d990       ?encryptLastChunk@ChilkatDes@@QAEPAVDataBuffer@@AAV2@0AAVLogBase@@@Z 0048e990 f   ChilkatRel:ChilkatDes.obj
 0001:0008dba0       ?decrypt@ChilkatDes@@QAEPAVDataBuffer@@AAV2@AAVLogBase@@@Z 0048eba0 f   ChilkatRel:ChilkatDes.obj
 0001:0008dd80       ?decryptFirstChunk@ChilkatDes@@QAEPAVDataBuffer@@AAV2@PAEAAVLogBase@@@Z 0048ed80 f   ChilkatRel:ChilkatDes.obj
 0001:0008df80       ?decryptMiddleChunk@ChilkatDes@@QAEPAVDataBuffer@@AAV2@PAEAAVLogBase@@@Z 0048ef80 f   ChilkatRel:ChilkatDes.obj
 0001:0008e160       ?decryptLastChunk@ChilkatDes@@QAEPAVDataBuffer@@AAV2@PAEAAVLogBase@@@Z 0048f160 f   ChilkatRel:ChilkatDes.obj
 0001:0008e350       ?setKeyLength@BlowFish2@@QAEHH@Z 0048f350 f   ChilkatRel:blowfish2.obj
 0001:0008e3a0       ?setPadding@BlowFish2@@QAEXH@Z 0048f3a0 f   ChilkatRel:blowfish2.obj
 0001:0008e3c0       ?setModeECB@BlowFish2@@QAE_NXZ 0048f3c0 f   ChilkatRel:blowfish2.obj
 0001:0008e3e0       ?setModeCBC@BlowFish2@@QAE_NXZ 0048f3e0 f   ChilkatRel:blowfish2.obj
 0001:0008e400       ?setModeCFB@BlowFish2@@QAE_NXZ 0048f400 f   ChilkatRel:blowfish2.obj
 0001:0008e420       ?setIV@BlowFish2@@QAEXPBE@Z 0048f420 f   ChilkatRel:blowfish2.obj
 0001:0008e450       ??0BlowFish2@@QAE@XZ       0048f450 f   ChilkatRel:blowfish2.obj
 0001:0008e530       ??1BlowFish2@@QAE@XZ       0048f530 f   ChilkatRel:blowfish2.obj
 0001:0008e5b0       ?encryptFirstChunk@BlowFish2@@QAEPAVDataBuffer@@AAV2@0AAVLogBase@@@Z 0048f5b0 f   ChilkatRel:blowfish2.obj
 0001:0008e790       ?encryptMiddleChunk@BlowFish2@@QAEPAVDataBuffer@@AAV2@0AAVLogBase@@@Z 0048f790 f   ChilkatRel:blowfish2.obj
 0001:0008e970       ?encryptLastChunk@BlowFish2@@QAEPAVDataBuffer@@AAV2@0AAVLogBase@@@Z 0048f970 f   ChilkatRel:blowfish2.obj
 0001:0008eb60       ?encrypt@BlowFish2@@QAEPAVDataBuffer@@AAV2@AAVLogBase@@@Z 0048fb60 f   ChilkatRel:blowfish2.obj
 0001:0008ed50       ?setSecretKey@BlowFish2@@QAEXABVDataBuffer@@@Z 0048fd50 f   ChilkatRel:blowfish2.obj
 0001:0008ed80       ?decrypt@BlowFish2@@QAEPAVDataBuffer@@AAV2@AAVLogBase@@@Z 0048fd80 f   ChilkatRel:blowfish2.obj
 0001:0008efa0       ?decryptFirstChunk@BlowFish2@@QAEPAVDataBuffer@@AAV2@PAEAAVLogBase@@@Z 0048ffa0 f   ChilkatRel:blowfish2.obj
 0001:0008f1a0       ?decryptMiddleChunk@BlowFish2@@QAEPAVDataBuffer@@AAV2@PAEAAVLogBase@@@Z 004901a0 f   ChilkatRel:blowfish2.obj
 0001:0008f370       ?decryptLastChunk@BlowFish2@@QAEPAVDataBuffer@@AAV2@PAEAAVLogBase@@@Z 00490370 f   ChilkatRel:blowfish2.obj
 0001:0008f560       ?Blowfish_encipher@BlowFish2@@AAEXPAK0@Z 00490560 f   ChilkatRel:blowfish2.obj
 0001:0008fc60       ?Blowfish_encipher2@BlowFish2@@AAEXPAE0@Z 00490c60 f   ChilkatRel:blowfish2.obj
 0001:000903d0       ?Blowfish_decipher2@BlowFish2@@AAEXPAE0@Z 004913d0 f   ChilkatRel:blowfish2.obj
 0001:00090b40       ?Initialize@BlowFish2@@AAEXXZ 00491b40 f   ChilkatRel:blowfish2.obj
 0001:00090e40       ?blowfishEncode2@BlowFish2@@AAEKPAE0K@Z 00491e40 f   ChilkatRel:blowfish2.obj
 0001:00090ed0       ?blowfishDecode2@BlowFish2@@AAE_NPAE0KAAVLogBase@@@Z 00491ed0 f   ChilkatRel:blowfish2.obj
 0001:00090fd0       ?blowfishDecodeCBC@BlowFish2@@AAE_NPAE0K0AAVLogBase@@@Z 00491fd0 f   ChilkatRel:blowfish2.obj
 0001:000911c0       ?blowfishEncodeCBC@BlowFish2@@AAEKPAE0K0@Z 004921c0 f   ChilkatRel:blowfish2.obj
 0001:000912e0       ?blowfishEncodeCFB@BlowFish2@@AAEKPAE0K0@Z 004922e0 f   ChilkatRel:blowfish2.obj
 0001:00091400       ?blowfishDecodeCFB@BlowFish2@@AAE_NPAE0K0AAVLogBase@@@Z 00492400 f   ChilkatRel:blowfish2.obj
 0001:000915b0       ?setKeyLength@BlowFish@@QAEHH@Z 004925b0 f   ChilkatRel:blowfish.obj
 0001:00091600       ?setSecretKey@BlowFish@@QAEXABVDataBuffer@@@Z 00492600 f   ChilkatRel:blowfish.obj
 0001:00091630       ?_setPrev@CK_ListItem@@QAEXPAV1@@Z 00492630 f   ChilkatRel:ck_list.obj
 0001:00091630       ?setPadding@BlowFish@@QAEXH@Z 00492630 f   ChilkatRel:blowfish.obj
 0001:00091650       ?setByteSwap@BlowFish@@QAEX_N@Z 00492650 f   ChilkatRel:blowfish.obj
 0001:00091670       ??0BlowFish@@QAE@XZ        00492670 f   ChilkatRel:blowfish.obj
 0001:00091710       ??1BlowFish@@QAE@XZ        00492710 f   ChilkatRel:blowfish.obj
 0001:00091790       ?encryptFirstChunk@BlowFish@@QAEPAVDataBuffer@@AAV2@AAVLogBase@@@Z 00492790 f   ChilkatRel:blowfish.obj
 0001:000918b0       ?encryptMiddleChunk@BlowFish@@QAEPAVDataBuffer@@AAV2@AAVLogBase@@@Z 004928b0 f   ChilkatRel:blowfish.obj
 0001:000919c0       ?encryptLastChunk@BlowFish@@QAEPAVDataBuffer@@AAV2@AAVLogBase@@@Z 004929c0 f   ChilkatRel:blowfish.obj
 0001:00091af0       ?encrypt@BlowFish@@QAEPAVDataBuffer@@AAV2@AAVLogBase@@@Z 00492af0 f   ChilkatRel:blowfish.obj
 0001:00091c30       ?decrypt@BlowFish@@QAEPAVDataBuffer@@AAV2@AAVLogBase@@@Z 00492c30 f   ChilkatRel:blowfish.obj
 0001:00091d70       ?decryptFirstChunk@BlowFish@@QAEPAVDataBuffer@@AAV2@AAVLogBase@@@Z 00492d70 f   ChilkatRel:blowfish.obj
 0001:00091e90       ?decryptMiddleChunk@BlowFish@@QAEPAVDataBuffer@@AAV2@AAVLogBase@@@Z 00492e90 f   ChilkatRel:blowfish.obj
 0001:00091fa0       ?decryptLastChunk@BlowFish@@QAEPAVDataBuffer@@AAV2@AAVLogBase@@@Z 00492fa0 f   ChilkatRel:blowfish.obj
 0001:000920d0       ?Blowfish_encipher@BlowFish@@AAEXPAK0@Z 004930d0 f   ChilkatRel:blowfish.obj
 0001:000927c0       ?Blowfish_decipher@BlowFish@@AAEXPAK0@Z 004937c0 f   ChilkatRel:blowfish.obj
 0001:00092eb0       ?Initialize@BlowFish@@AAEXXZ 00493eb0 f   ChilkatRel:blowfish.obj
 0001:000931a0       ?GetOutputLength@BlowFish@@AAEKK@Z 004941a0 f   ChilkatRel:blowfish.obj
 0001:000931e0       ?blowfishEncode@BlowFish@@AAEKPAE0K@Z 004941e0 f   ChilkatRel:blowfish.obj
 0001:000933d0       ?blowfishDecode@BlowFish@@AAEXPAE0K@Z 004943d0 f   ChilkatRel:blowfish.obj
 0001:000934c0       ?setIV@Rijndael2@@QAEXPBE@Z 004944c0 f   ChilkatRel:rijndael.obj
 0001:000934f0       ??0Rijndael2@@QAE@XZ       004944f0 f   ChilkatRel:rijndael.obj
 0001:00093560       ??1Rijndael2@@QAE@XZ       00494560 f   ChilkatRel:rijndael.obj
 0001:00093580       ?initRijndael@Rijndael2@@AAEHW4Mode@1@W4Direction@1@@Z 00494580 f   ChilkatRel:rijndael.obj
 0001:00093740       ?blockEncrypt2@Rijndael2@@AAEHPBEHPAEAAVDataBuffer@@_N@Z 00494740 f   ChilkatRel:rijndael.obj
 0001:00093930       ?blockEncrypt@Rijndael2@@AAEHPBEHPAE@Z 00494930 f   ChilkatRel:rijndael.obj
 0001:00093cf0       ?blockDecrypt@Rijndael2@@AAEHPBEHPAE@Z 00494cf0 f   ChilkatRel:rijndael.obj
 0001:000940c0       ?blockDecrypt2@Rijndael2@@AAEHPBEHPAE1_N@Z 004950c0 f   ChilkatRel:rijndael.obj
 0001:000942b0       ?keySched@Rijndael2@@AAEXQAY03E@Z 004952b0 f   ChilkatRel:rijndael.obj
 0001:00094600       ?keyEncToDec@Rijndael2@@AAEXXZ 00495600 f   ChilkatRel:rijndael.obj
 0001:00094770       ?encrypt@Rijndael2@@AAEXQBEQAE@Z 00495770 f   ChilkatRel:rijndael.obj
 0001:00094bd0       ?decrypt@Rijndael2@@AAEXQBEQAE@Z 00495bd0 f   ChilkatRel:rijndael.obj
 0001:00094ff0       ?setKeyLength@Rijndael2@@QAEHH@Z 00495ff0 f   ChilkatRel:rijndael.obj
 0001:00095050       ?encryptFirstChunk@Rijndael2@@QAEPAVDataBuffer@@AAV2@AAVLogBase@@@Z 00496050 f   ChilkatRel:rijndael.obj
 0001:00095250       ?encryptMiddleChunk@Rijndael2@@QAEPAVDataBuffer@@AAV2@0AAVLogBase@@@Z 00496250 f   ChilkatRel:rijndael.obj
 0001:000953f0       ?encryptLastChunk@Rijndael2@@QAEPAVDataBuffer@@AAV2@0AAVLogBase@@@Z 004963f0 f   ChilkatRel:rijndael.obj
 0001:000955c0       ?encrypt@Rijndael2@@QAEPAVDataBuffer@@AAV2@AAVLogBase@@@Z 004965c0 f   ChilkatRel:rijndael.obj
 0001:00095790       ?decryptFirstChunk@Rijndael2@@QAEPAVDataBuffer@@AAV2@PAEAAVLogBase@@@Z 00496790 f   ChilkatRel:rijndael.obj
 0001:00095930       ?decryptMiddleChunk@Rijndael2@@QAEPAVDataBuffer@@AAV2@PAEAAVLogBase@@@Z 00496930 f   ChilkatRel:rijndael.obj
 0001:00095ac0       ?decryptLastChunk@Rijndael2@@QAEPAVDataBuffer@@AAV2@PAEAAVLogBase@@@Z 00496ac0 f   ChilkatRel:rijndael.obj
 0001:00095c80       ?decrypt@Rijndael2@@QAEPAVDataBuffer@@AAV2@AAVLogBase@@@Z 00496c80 f   ChilkatRel:rijndael.obj
 0001:00095e80       ?setPassPhraseAnsi@Rijndael2@@QAEXPBD@Z 00496e80 f   ChilkatRel:rijndael.obj
 0001:00095ea0       ?setSecretKey@Rijndael2@@QAEXABVDataBuffer@@@Z 00496ea0 f   ChilkatRel:rijndael.obj
 0001:00095ed0       ?setModeECB@Rijndael2@@QAE_NXZ 00496ed0 f   ChilkatRel:rijndael.obj
 0001:00095ef0       ?setModeCBC@Rijndael2@@QAE_NXZ 00496ef0 f   ChilkatRel:rijndael.obj
 0001:00095f10       ??0CK_Crypt@@QAE@XZ        00496f10 f   ChilkatRel:CK_Crypt.obj
 0001:00096000       ??_ECK_Crypt@@UAEPAXI@Z    00497000 f i ChilkatRel:CK_Crypt.obj
 0001:00096000       ??_GCK_Crypt@@UAEPAXI@Z    00497000 f i ChilkatRel:CK_Crypt.obj
 0001:00096030       ?takeCSP@CK_Crypt@@QAEXPAVCryptoSP@@@Z 00497030 f   ChilkatRel:CK_Crypt.obj
 0001:000960a0       ?takeEncryptAlg@CK_Crypt@@QAEXPAVCryptoAlg@@@Z 004970a0 f   ChilkatRel:CK_Crypt.obj
 0001:00096110       ?setPreferences2@CK_Crypt@@QAEXAAVCryptoSettings2@@_NAAVLogBase@@@Z 00497110 f   ChilkatRel:CK_Crypt.obj
 0001:00096390       ?takeHashAlg@CK_Crypt@@QAEXPAVCryptoAlg@@@Z 00497390 f   ChilkatRel:CK_Crypt.obj
 0001:00096400       ?noDefaultCertStores@CK_Crypt@@QAEXXZ 00497400 f   ChilkatRel:CK_Crypt.obj
 0001:00096420       ??1CK_Crypt@@UAE@XZ        00497420 f   ChilkatRel:CK_Crypt.obj
 0001:00096590       ?getCsp2@CK_Crypt@@QAEKPBD_N1AAVLogBase@@H@Z 00497590 f   ChilkatRel:CK_Crypt.obj
 0001:000965f0       ?getVerifyCertContext@CK_Crypt@@QAEPBU_CERT_CONTEXT@@XZ 004975f0 f   ChilkatRel:CK_Crypt.obj
 0001:00096620       ?decodeMessage2@CK_Crypt@@AAE_NPBEKAAVDataBuffer@@PAVExtPtrArray@@PAPAVCertificate@@AAVLogBase@@AA_N@Z 00497620 f   ChilkatRel:CK_Crypt.obj
 0001:00096e80       ?decryptMessage2@CK_Crypt@@QAE_NPBEKAAVDataBuffer@@AAVExtPtrArray@@PAPAVCertificate@@AAVLogBase@@AA_N@Z 00497e80 f   ChilkatRel:CK_Crypt.obj
 0001:00096f10       ?decryptMessage2a@CK_Crypt@@AAE_NPBEKAAVDataBuffer@@PAVExtPtrArray@@PAPAVCertificate@@AAVLogBase@@@Z 00497f10 f   ChilkatRel:CK_Crypt.obj
 0001:00097490       ?encryptData@CK_Crypt@@QAE_NPBEKAAVDataBuffer@@AAVExtPtrArray@@AAVLogBase@@@Z 00498490 f   ChilkatRel:CK_Crypt.obj
 0001:000974e0       ?encryptData2@CK_Crypt@@AAE_NPBEKAAVDataBuffer@@AAVExtPtrArray@@AAVLogBase@@@Z 004984e0 f   ChilkatRel:CK_Crypt.obj
 0001:00097fb0       ?generateStandardStoreList@CK_Crypt@@QAEXAAVExtPtrArray@@AAH1@Z 00498fb0 f   ChilkatRel:CK_Crypt.obj
 0001:00098170       ?parseExtensions@Certificate@@AAEXXZ 00499170 f   ChilkatRel:Certificate.obj
 0001:00098550       ?getPublicKeyAlgorithm@Certificate@@QBEXAAVStringBuffer@chilkat@@@Z 00499550 f   ChilkatRel:Certificate.obj
 0001:00098590       ?decodeAlgorithm@Certificate@@ABEXPAU_CRYPT_ALGORITHM_IDENTIFIER@@AAVStringBuffer@chilkat@@@Z 00499590 f   ChilkatRel:Certificate.obj
 0001:000985e0       ?initializeValidity@Certificate@@AAEXXZ 004995e0 f   ChilkatRel:Certificate.obj
 0001:000987d0       ?initializeCert@Certificate@@AAEXXZ 004997d0 f   ChilkatRel:Certificate.obj
 0001:00098cf0       ?getKeyContainerName@Certificate@@QAE_NAAVStringBuffer@chilkat@@@Z 00499cf0 f   ChilkatRel:Certificate.obj
 0001:00098d40       ?getKeyProviderInfo@Certificate@@AAE_NXZ 00499d40 f   ChilkatRel:Certificate.obj
 0001:00098f40       ?getSha1Hash@Certificate@@QAE_NAAVDataBuffer@@@Z 00499f40 f   ChilkatRel:Certificate.obj
 0001:00098ff0       ?clone2@Certificate@@QAEPAV1@XZ 00499ff0 f   ChilkatRel:Certificate.obj
 0001:000990e0       ??_GCertificate@@UAEPAXI@Z 0049a0e0 f i ChilkatRel:Certificate.obj
 0001:000990e0       ??_ECertificate@@UAEPAXI@Z 0049a0e0 f i ChilkatRel:Certificate.obj
 0001:00099110       ??0Certificate@@QAE@PBU_CERT_CONTEXT@@PAVLogBase@@@Z 0049a110 f   ChilkatRel:Certificate.obj
 0001:00099300       ??0Certificate@@QAE@PBU_CERT_CONTEXT@@_NPAVLogBase@@@Z 0049a300 f   ChilkatRel:Certificate.obj
 0001:00099500       ?linkPrivateKey@Certificate@@QAE_NAAVXString@@_N1AAVLogBase@@@Z 0049a500 f   ChilkatRel:Certificate.obj
 0001:000996d0       ?dotNetDispose@Certificate@@QAEXXZ 0049a6d0 f   ChilkatRel:Certificate.obj
 0001:00099720       ??1Certificate@@UAE@XZ     0049a720 f   ChilkatRel:Certificate.obj
 0001:00099810       ?getSubjectName@Certificate@@QBEXAAVXString@@@Z 0049a810 f   ChilkatRel:Certificate.obj
 0001:000998e0       ?getIssuerX500@Certificate@@QBEXAAVXString@@@Z 0049a8e0 f   ChilkatRel:Certificate.obj
 0001:000999b0       ?getSubjectX500@Certificate@@QBEXAAVXString@@@Z 0049a9b0 f   ChilkatRel:Certificate.obj
 0001:00099aa0       ?the_F@Pkcs5@@CAXPBEK0KKKHKAAVDataBuffer@@@Z 0049aaa0 f   ChilkatRel:Pkcs5.obj
 0001:00099ce0       ?Pbkdf2@Pkcs5@@SA_NPBD0AAVDataBuffer@@HH1AAVLogBase@@@Z 0049ace0 f   ChilkatRel:Pkcs5.obj
 0001:00099e00       ?Pbkdf1@Pkcs5@@SA_NPBD0AAVDataBuffer@@HH1AAVLogBase@@@Z 0049ae00 f   ChilkatRel:Pkcs5.obj
 0001:00099f60       ?Pbes1Decrypt@Pkcs5@@SA_NPBD00HAAVDataBuffer@@H11AAVLogBase@@@Z 0049af60 f   ChilkatRel:Pkcs5.obj
 0001:0009a140       ?Pbes1Encrypt@Pkcs5@@SA_NPBD00HAAVDataBuffer@@H11AAVLogBase@@@Z 0049b140 f   ChilkatRel:Pkcs5.obj
 0001:0009a330       ?Pbes2Decrypt@Pkcs5@@SA_NPBD00HHAAVDataBuffer@@H111AAVLogBase@@@Z 0049b330 f   ChilkatRel:Pkcs5.obj
 0001:0009a4c0       ?Pbes2Encrypt@Pkcs5@@SA_NPBD00HHAAVDataBuffer@@H111AAVLogBase@@@Z 0049b4c0 f   ChilkatRel:Pkcs5.obj
 0001:0009a650       ?getCertificateDoNotDelete@ClsCert@@QBEPAVCertificate@@XZ 0049b650 f   ChilkatRel:ClsCert.obj
 0001:0009a670       ??_EClsCert@@UAEPAXI@Z     0049b670 f i ChilkatRel:ClsCert.obj
 0001:0009a670       ??_GClsCert@@UAEPAXI@Z     0049b670 f i ChilkatRel:ClsCert.obj
 0001:0009a6a0       ??0ClsCert@@QAE@PAVCertificate@@_N@Z 0049b6a0 f   ChilkatRel:ClsCert.obj
 0001:0009a760       ?dotNetDispose@ClsCert@@QAEXXZ 0049b760 f   ChilkatRel:ClsCert.obj
 0001:0009a800       ??1ClsCert@@UAE@XZ         0049b800 f   ChilkatRel:ClsCert.obj
 0001:0009a860       ?get_Sha1Thumbprint@ClsCert@@QAEXAAVXString@@@Z 0049b860 f   ChilkatRel:ClsCert.obj
 0001:0009a910       ?openStandardChilkatCertStores@CertificateStore@@SAXAAVExtPtrArray@@_NAAH2PAVLogBase@@@Z 0049b910 f   ChilkatRel:certStore_ck_crypt.obj
 0001:0009aab0       ??0CertificateStore@@QAE@PAX_N@Z 0049bab0 f   ChilkatRel:CertificateStore.obj
 0001:0009ab80       ??_ECertificateStore@@UAEPAXI@Z 0049bb80 f i ChilkatRel:CertificateStore.obj
 0001:0009ab80       ??_GCertificateStore@@UAEPAXI@Z 0049bb80 f i ChilkatRel:CertificateStore.obj
 0001:0009abb0       ?getHandle@CertificateStore@@QAEPAXXZ 0049bbb0 f   ChilkatRel:CertificateStore.obj
 0001:0009abb0       ?getHandle@Certificate@@QBEPBU_CERT_CONTEXT@@XZ 0049bbb0 f   ChilkatRel:Certificate.obj
 0001:0009abb0       ?get_Pending@ZeeDeflateState@@QBEHXZ 0049bbb0 f   ChilkatRel:ZeeDeflateState.obj
 0001:0009abb0       ?getType@AsnItem@@QBEHXZ   0049bbb0 f   ChilkatRel:Der.obj
 0001:0009abd0       ?deleteKeyContainers@CertificateStore@@AAEXXZ 0049bbd0 f   ChilkatRel:CertificateStore.obj
 0001:0009ad40       ?dotNetDispose@CertificateStore@@QAEXXZ 0049bd40 f   ChilkatRel:CertificateStore.obj
 0001:0009ada0       ??1CertificateStore@@UAE@XZ 0049bda0 f   ChilkatRel:CertificateStore.obj
 0001:0009ae40       ?createMemoryStore@CertificateStore@@SAPAV1@PAVLogBase@@@Z 0049be40 f   ChilkatRel:CertificateStore.obj
 0001:0009af30       ?openCurrentUserStore@CertificateStore@@SAPAV1@_NPAVLogBase@@@Z 0049bf30 f   ChilkatRel:CertificateStore.obj
 0001:0009b070       ?isCurrentUserStore@CertificateStore@@QBE_NXZ 0049c070 f   ChilkatRel:CertificateStore.obj
 0001:0009b090       ?openLocalMachineStore@CertificateStore@@SAPAV1@_NPAVLogBase@@@Z 0049c090 f   ChilkatRel:CertificateStore.obj
 0001:0009b1d0       ?openLocalMachineRegistryStore@CertificateStore@@SAPAV1@PBD_NPAVLogBase@@@Z 0049c1d0 f   ChilkatRel:CertificateStore.obj
 0001:0009b390       ?openCurrentUserRegistryStore@CertificateStore@@SAPAV1@PBD_NPAVLogBase@@@Z 0049c390 f   ChilkatRel:CertificateStore.obj
 0001:0009b550       ?openFileStoreUtf8@CertificateStore@@SAPAV1@PBD_NPAVLogBase@@@Z 0049c550 f   ChilkatRel:CertificateStore.obj
 0001:0009b7c0       ?addCertWithPrivateKey@CertificateStore@@QAE_NAAVCertificate@@AAVXString@@_NAAVLogBase@@2@Z 0049c7c0 f   ChilkatRel:CertificateStore.obj
 0001:0009ba80       ?unBzipWithHeader@ChilkatBzip2@@QAE_NAAVDataBuffer@@0@Z 0049ca80 f   ChilkatRel:ChilkatBzip2.obj
 0001:0009bb60       ??0ChilkatBzip2@@QAE@XZ    0049cb60 f   ChilkatRel:ChilkatBzip2.obj
 0001:0009bba0       ??_EChilkatBzip2@@UAEPAXI@Z 0049cba0 f i ChilkatRel:ChilkatBzip2.obj
 0001:0009bba0       ??_GChilkatBzip2@@UAEPAXI@Z 0049cba0 f i ChilkatRel:ChilkatBzip2.obj
 0001:0009bbd0       ??1ChilkatBzip2@@UAE@XZ    0049cbd0 f   ChilkatRel:ChilkatBzip2.obj
 0001:0009bc60       ??YSUI64@@QAEAAU0@ABU0@@Z  0049cc60 f   ChilkatRel:Sha2.obj
 0001:0009bcb0       ??_5SUI64@@QAEAAU0@ABU0@@Z 0049ccb0 f   ChilkatRel:Sha2.obj
 0001:0009bcf0       ??_4SUI64@@QAEAAU0@ABU0@@Z 0049ccf0 f   ChilkatRel:Sha2.obj
 0001:0009bd30       ??_6SUI64@@QAEAAU0@ABU0@@Z 0049cd30 f   ChilkatRel:Sha2.obj
 0001:0009bd70       ??_3SUI64@@QAEAAU0@I@Z     0049cd70 f   ChilkatRel:Sha2.obj
 0001:0009bde0       ??_2SUI64@@QAEAAU0@I@Z     0049cde0 f   ChilkatRel:Sha2.obj
 0001:0009be50       ?calcSha384_bytes@Sha2@@SAXPBEKAAVDataBuffer@@@Z 0049ce50 f   ChilkatRel:Sha2.obj
 0001:0009bec0       ?calcSha512_bytes@Sha2@@SAXPBEKAAVDataBuffer@@@Z 0049cec0 f   ChilkatRel:Sha2.obj
 0001:0009bf30       ?calcSha256_bytes@Sha2@@SAXPBEKAAVDataBuffer@@@Z 0049cf30 f   ChilkatRel:Sha2.obj
 0001:0009bfb0       ?calcSha256@Sha2@@SAXABVDataBuffer@@AAV2@@Z 0049cfb0 f   ChilkatRel:Sha2.obj
 0001:0009c030       ?createSha256@Sha2@@SAPAV1@XZ 0049d030 f   ChilkatRel:Sha2.obj
 0001:0009c0b0       ?createSha384@Sha2@@SAPAV1@XZ 0049d0b0 f   ChilkatRel:Sha2.obj
 0001:0009c130       ?createSha512@Sha2@@SAPAV1@XZ 0049d130 f   ChilkatRel:Sha2.obj
 0001:0009c1b0       ??0Sha2@@AAE@H@Z           0049d1b0 f   ChilkatRel:Sha2.obj
 0001:0009c370       ?AddData@Sha2@@QAEXPBDI@Z  0049d370 f   ChilkatRel:Sha2.obj
 0001:0009c660       ?FinalDigest@Sha2@@QAEXPAD@Z 0049d660 f   ChilkatRel:Sha2.obj
 0001:0009c950       ?Word2Bytes@Sha2@@CAXABIPAE@Z 0049d950 f i ChilkatRel:Sha2.obj
 0001:0009c9d0       ?Word2Bytes@Sha2@@CAXABUSUI64@@PAE@Z 0049d9d0 f i ChilkatRel:Sha2.obj
 0001:0009ca00       ?Reset@Sha2@@QAEXXZ        0049da00 f   ChilkatRel:Sha2.obj
 0001:0009cbc0       ?Transform@Sha2@@AAEXXZ    0049dbc0 f   ChilkatRel:Sha2.obj
 0001:000a7920       ??H@YA?AUSUI64@@ABU0@0@Z   004a8920 f i ChilkatRel:Sha2.obj
 0001:000a7950       ?CircularShift@Sha2@@CAIII@Z 004a8950 f i ChilkatRel:Sha2.obj
 0001:000a7970       ?CH@Sha2@@CAIIII@Z         004a8970 f i ChilkatRel:Sha2.obj
 0001:000a7990       ?MAJ@Sha2@@CAIIII@Z        004a8990 f i ChilkatRel:Sha2.obj
 0001:000a79b0       ?SIG0@Sha2@@CAII@Z         004a89b0 f i ChilkatRel:Sha2.obj
 0001:000a79f0       ?SIG1@Sha2@@CAII@Z         004a89f0 f i ChilkatRel:Sha2.obj
 0001:000a7a30       ?sig0@Sha2@@CAII@Z         004a8a30 f i ChilkatRel:Sha2.obj
 0001:000a7a60       ?sig1@Sha2@@CAII@Z         004a8a60 f i ChilkatRel:Sha2.obj
 0001:000a7a90       ?Bytes2Word@Sha2@@CAXPBEAAI@Z 004a8a90 f i ChilkatRel:Sha2.obj
 0001:000a7ad0       ?CH@Sha2@@CA?AUSUI64@@ABU2@00@Z 004a8ad0 f i ChilkatRel:Sha2.obj
 0001:000a7b30       ??I@YA?AUSUI64@@ABU0@0@Z   004a8b30 f i ChilkatRel:Sha2.obj
 0001:000a7b60       ??T@YA?AUSUI64@@ABU0@0@Z   004a8b60 f i ChilkatRel:Sha2.obj
 0001:000a7b90       ?MAJ@Sha2@@CA?AUSUI64@@ABU2@00@Z 004a8b90 f i ChilkatRel:Sha2.obj
 0001:000a7c00       ??U@YA?AUSUI64@@ABU0@0@Z   004a8c00 f i ChilkatRel:Sha2.obj
 0001:000a7c30       ?SIG0@Sha2@@CA?AUSUI64@@ABU2@@Z 004a8c30 f i ChilkatRel:Sha2.obj
 0001:000a7d30       ??6@YA?AUSUI64@@ABU0@I@Z   004a8d30 f i ChilkatRel:Sha2.obj
 0001:000a7d60       ??5@YA?AUSUI64@@ABU0@I@Z   004a8d60 f i ChilkatRel:Sha2.obj
 0001:000a7d90       ?SIG1@Sha2@@CA?AUSUI64@@ABU2@@Z 004a8d90 f i ChilkatRel:Sha2.obj
 0001:000a7e90       ?sig0@Sha2@@CA?AUSUI64@@ABU2@@Z 004a8e90 f i ChilkatRel:Sha2.obj
 0001:000a7f60       ?sig1@Sha2@@CA?AUSUI64@@ABU2@@Z 004a8f60 f i ChilkatRel:Sha2.obj
 0001:000a8030       ?Bytes2Word@Sha2@@CAXPBEAAUSUI64@@@Z 004a9030 f i ChilkatRel:Sha2.obj
 0001:000a8060       ??0Hashing@@QAE@XZ         004a9060 f   ChilkatRel:Hashing.obj
 0001:000a8080       ??_GHashing@@UAEPAXI@Z     004a9080 f i ChilkatRel:Hashing.obj
 0001:000a8080       ??_EHashing@@UAEPAXI@Z     004a9080 f i ChilkatRel:Hashing.obj
 0001:000a80b0       ??1Hashing@@UAE@XZ         004a90b0 f   ChilkatRel:Hashing.obj
 0001:000a80d0       ?hashSha1@Hashing@@QAE_NABVDataBuffer@@AAV2@AAVLogBase@@@Z 004a90d0 f   ChilkatRel:Hashing.obj
 0001:000a8160       ?hashSha1_bytes@Hashing@@QAE_NPBEKAAVDataBuffer@@AAVLogBase@@@Z 004a9160 f   ChilkatRel:Hashing.obj
 0001:000a81f0       ?hashMd2_bytes@Hashing@@QAE_NPBEKAAVDataBuffer@@AAVLogBase@@@Z 004a91f0 f   ChilkatRel:Hashing.obj
 0001:000a8280       ?sha1_db@Sha1@@QAEXABVDataBuffer@@AAV2@@Z 004a9280 f   ChilkatRel:Sha1.obj
 0001:000a82c0       ?sha1_bytes@Sha1@@QAEXPBEKAAVDataBuffer@@@Z 004a92c0 f   ChilkatRel:Sha1.obj
 0001:000a8300       ??0Sha1@@QAE@XZ            004a9300 f   ChilkatRel:Sha1.obj
 0001:000a8360       ??_ESha1@@UAEPAXI@Z        004a9360 f i ChilkatRel:Sha1.obj
 0001:000a8360       ??_GSha1@@UAEPAXI@Z        004a9360 f i ChilkatRel:Sha1.obj
 0001:000a8390       ??1Sha1@@UAE@XZ            004a9390 f   ChilkatRel:Sha1.obj
 0001:000a83b0       ?initialize@Sha1@@QAEXXZ   004a93b0 f   ChilkatRel:Sha1.obj
 0001:000a8410       ?finalize@Sha1@@QAEXAAVDataBuffer@@_N@Z 004a9410 f   ChilkatRel:Sha1.obj
 0001:000a8740       ?compress@Sha1@@AAEXXZ     004a9740 f   ChilkatRel:Sha1.obj
 0001:000a9100       ?process@Sha1@@QAEXPBEK@Z  004aa100 f   ChilkatRel:Sha1.obj
 0001:000a9230       ??0Md2@@QAE@XZ             004aa230 f   ChilkatRel:Md2.obj
 0001:000a9250       ??_EMd2@@UAEPAXI@Z         004aa250 f i ChilkatRel:Md2.obj
 0001:000a9250       ??_GMd2@@UAEPAXI@Z         004aa250 f i ChilkatRel:Md2.obj
 0001:000a9280       ??1Md2@@UAE@XZ             004aa280 f   ChilkatRel:Md2.obj
 0001:000a92a0       ?md2_bytes@Md2@@QAEXPBEKAAVDataBuffer@@@Z 004aa2a0 f   ChilkatRel:Md2.obj
 0001:000a92e0       ?initialize@Md2@@QAEXXZ    004aa2e0 f   ChilkatRel:Md2.obj
 0001:000a9330       ?finalize@Md2@@QAEXAAVDataBuffer@@@Z 004aa330 f   ChilkatRel:Md2.obj
 0001:000a93c0       ?compress@Md2@@AAEXXZ      004aa3c0 f   ChilkatRel:Md2.obj
 0001:000a94a0       ?update_chksum@Md2@@AAEXXZ 004aa4a0 f   ChilkatRel:Md2.obj
 0001:000a9510       ?process@Md2@@QAEXPBEK@Z   004aa510 f   ChilkatRel:Md2.obj
 0001:000a95d0       ??0Uu@@QAE@XZ              004aa5d0 f   ChilkatRel:Uu.obj
 0001:000a9600       ??_GUu@@UAEPAXI@Z          004aa600 f i ChilkatRel:Uu.obj
 0001:000a9600       ??_EUu@@UAEPAXI@Z          004aa600 f i ChilkatRel:Uu.obj
 0001:000a9630       ??1Uu@@UAE@XZ              004aa630 f   ChilkatRel:Uu.obj
 0001:000a9650       ?getLine@Uu@@AAEPBDPBDAAVStringBuffer@chilkat@@@Z 004aa650 f   ChilkatRel:Uu.obj
 0001:000a9710       ?getBegin@Uu@@AAEPBDPBDAAVStringBuffer@chilkat@@@Z 004aa710 f   ChilkatRel:Uu.obj
 0001:000a9780       ?uu_decode2aa@Uu@@QAE_NPBDAAVDataBuffer@@AAVStringBuffer@chilkat@@2@Z 004aa780 f   ChilkatRel:Uu.obj
 0001:000a9bb0       ?GetCharsetName@CharsetNaming@@SA_NHAAVStringBuffer@chilkat@@@Z 004aabb0 f   ChilkatRel:CharsetNaming.obj
 0001:000aacc0       ?CharsetValid@CharsetNaming@@SA_NPBD@Z 004abcc0 f   ChilkatRel:CharsetNaming.obj
 0001:000aace0       ?GetCodePage@CharsetNaming@@SAHPBD@Z 004abce0 f   ChilkatRel:CharsetNaming.obj
 0001:000b1130       ?isLegalUtf8@Utf@@SA_NPBEH@Z 004b2130 f   ChilkatRel:Utf.obj
 0001:000b1290       ?NumUtf8Bytes@Utf@@SAHPBEH@Z 004b2290 f   ChilkatRel:Utf.obj
 0001:000b1310       ?Utf8toUtf32@Utf@@SA_NABVDataBuffer@@AAV2@@Z 004b2310 f   ChilkatRel:Utf.obj
 0001:000b14d0       ?Utf8toUtf32BE@Utf@@SA_NABVDataBuffer@@AAV2@@Z 004b24d0 f   ChilkatRel:Utf.obj
 0001:000b16b0       ?Utf32ToUtf8@Utf@@SA_NABVDataBuffer@@AAV2@@Z 004b26b0 f   ChilkatRel:Utf.obj
 0001:000b1870       ?setByteSwap@Rijndael2@@QAEX_N@Z 004b2870 f   ChilkatRel:rijndael.obj
 0001:000b1870       ?put_IsLowerAscii@HashConvert@@QAEX_N@Z 004b2870 f   ChilkatRel:HashConvert.obj
 0001:000b1890       ?get_IsLowerAscii@HashConvert@@QBE_NXZ 004b2890 f   ChilkatRel:HashConvert.obj
 0001:000b18b0       ??0HashConvert@@QAE@XZ     004b28b0 f   ChilkatRel:HashConvert.obj
 0001:000b18f0       ??_GHashConvert@@UAEPAXI@Z 004b28f0 f i ChilkatRel:HashConvert.obj
 0001:000b18f0       ??_EHashConvert@@UAEPAXI@Z 004b28f0 f i ChilkatRel:HashConvert.obj
 0001:000b1920       ??1HashConvert@@UAE@XZ     004b2920 f   ChilkatRel:HashConvert.obj
 0001:000b1940       ?Clear@HashConvert@@QAEXXZ 004b2940 f   ChilkatRel:HashConvert.obj
 0001:000b19e0       ?Initialize@HashConvert@@QAEXH@Z 004b29e0 f   ChilkatRel:HashConvert.obj
 0001:000b1a40       ?getSlotSize@HashConvert@@AAEHH@Z 004b2a40 f   ChilkatRel:HashConvert.obj
 0001:000b1ad0       ?HashRemove@HashConvert@@QAEXPBEH@Z 004b2ad0 f   ChilkatRel:HashConvert.obj
 0001:000b1d20       ?HashInsert@HashConvert@@QAEXPBEH0H@Z 004b2d20 f   ChilkatRel:HashConvert.obj
 0001:000b1ed0       ?BuildReverse@HashConvert@@QAEXAAV1@@Z 004b2ed0 f   ChilkatRel:HashConvert.obj
 0001:000b1fa0       ?HashLookup@HashConvert@@QAEXPBEHPAEAAH@Z 004b2fa0 f   ChilkatRel:HashConvert.obj
 0001:000b20f0       ??0ConvertState@@QAE@XZ    004b30f0 f   ChilkatRel:ConvertState.obj
 0001:000b2120       ??_GConvertState@@UAEPAXI@Z 004b3120 f i ChilkatRel:ConvertState.obj
 0001:000b2120       ??_EConvertState@@UAEPAXI@Z 004b3120 f i ChilkatRel:ConvertState.obj
 0001:000b2150       ??1ConvertState@@UAE@XZ    004b3150 f   ChilkatRel:ConvertState.obj
 0001:000b2170       ?isUtf8@EncodingUtf8@@SA_NXZ 004b3170 f   ChilkatRel:EncodingUtf8.obj
 0001:000b2180       ?fromMB@EncodingUtf8@@SAHAAVConvertState@@PBEHAAG@Z 004b3180 f   ChilkatRel:EncodingUtf8.obj
 0001:000b25f0       ?toMB@EncodingUtf8@@SAHAAVConvertState@@GAAVDataBuffer@@@Z 004b35f0 f   ChilkatRel:EncodingUtf8.obj
 0001:000b27b0       ??0Korean@@QAE@XZ          004b37b0 f   ChilkatRel:Korean.obj
 0001:000b27d0       ??_EKorean@@UAEPAXI@Z      004b37d0 f i ChilkatRel:Korean.obj
 0001:000b27d0       ??_GKorean@@UAEPAXI@Z      004b37d0 f i ChilkatRel:Korean.obj
 0001:000b2800       ??1Korean@@UAE@XZ          004b3800 f   ChilkatRel:Korean.obj
 0001:000b2820       ?Iso2022ToKsc@Korean@@QAEXPBEHAAVDataBuffer@@@Z 004b3820 f   ChilkatRel:Korean.obj
 0001:000b2a70       ?KscToIso2022@Korean@@QAEXPBEHAAVDataBuffer@@@Z 004b3a70 f   ChilkatRel:Korean.obj
 0001:000b2cf0       ??0Japanese@@QAE@XZ        004b3cf0 f   ChilkatRel:Japanese.obj
 0001:000b2d10       ??_GJapanese@@UAEPAXI@Z    004b3d10 f i ChilkatRel:Japanese.obj
 0001:000b2d10       ??_EJapanese@@UAEPAXI@Z    004b3d10 f i ChilkatRel:Japanese.obj
 0001:000b2d40       ??1Japanese@@UAE@XZ        004b3d40 f   ChilkatRel:Japanese.obj
 0001:000b2d60       ?HanToZen@Japanese@@AAEHPBEHPAH1H@Z 004b3d60 f   ChilkatRel:Japanese.obj
 0001:000b30c0       ?ShiftJisToIso2022@Japanese@@QAEXPBEHAAVDataBuffer@@@Z 004b40c0 f   ChilkatRel:Japanese.obj
 0001:000b3880       ?Iso2022ToShiftJis@Japanese@@QAEXPBEHAAVDataBuffer@@@Z 004b4880 f   ChilkatRel:Japanese.obj
 0001:000b3cb0       ?UnicodeToUtf7@Utf@@SA_NAAVDataBuffer@@0@Z 004b4cb0 f   ChilkatRel:Ucs7.obj
 0001:000b40f0       ?Utf7ToUnicode@Utf@@SA_NAAVDataBuffer@@0@Z 004b50f0 f   ChilkatRel:Ucs7.obj
 0001:000b43a0       ??0UnicodeLookup@@QAE@XZ   004b53a0 f   ChilkatRel:UnicodeLookup.obj
 0001:000b43d0       ??_GUnicodeLookup@@UAEPAXI@Z 004b53d0 f i ChilkatRel:UnicodeLookup.obj
 0001:000b43d0       ??_EUnicodeLookup@@UAEPAXI@Z 004b53d0 f i ChilkatRel:UnicodeLookup.obj
 0001:000b4400       ??1UnicodeLookup@@UAE@XZ   004b5400 f   ChilkatRel:UnicodeLookup.obj
 0001:000b4420       ??0WindowsVersion@@QAE@XZ  004b5420 f   ChilkatRel:WindowsVersion.obj
 0001:000b4450       ??_GWindowsVersion@@UAEPAXI@Z 004b5450 f i ChilkatRel:WindowsVersion.obj
 0001:000b4450       ??_EWindowsVersion@@UAEPAXI@Z 004b5450 f i ChilkatRel:WindowsVersion.obj
 0001:000b4480       ??1WindowsVersion@@UAE@XZ  004b5480 f   ChilkatRel:WindowsVersion.obj
 0001:000b44a0       ?isWindows9598ME@WindowsVersion@@QAE_NXZ 004b54a0 f   ChilkatRel:WindowsVersion.obj
 0001:000b44c0       ??0StringConsumer@@QAE@XZ  004b54c0 f   ChilkatRel:StringConsumer.obj
 0001:000b44e0       ??_EStringConsumer@@UAEPAXI@Z 004b54e0 f i ChilkatRel:StringConsumer.obj
 0001:000b44e0       ??_GStringConsumer@@UAEPAXI@Z 004b54e0 f i ChilkatRel:StringConsumer.obj
 0001:000b4510       ??1StringConsumer@@UAE@XZ  004b5510 f   ChilkatRel:StringConsumer.obj
 0001:000b4530       ??0CK_Registry@@QAE@XZ     004b5530 f   ChilkatRel:CK_Registry.obj
 0001:000b4560       ??_ECK_Registry@@UAEPAXI@Z 004b5560 f i ChilkatRel:CK_Registry.obj
 0001:000b4560       ??_GCK_Registry@@UAEPAXI@Z 004b5560 f i ChilkatRel:CK_Registry.obj
 0001:000b4590       ??1CK_Registry@@UAE@XZ     004b5590 f   ChilkatRel:CK_Registry.obj
 0001:000b45b0       ?closeKey@CK_Registry@@QAEXPAUHKEY__@@@Z 004b55b0 f   ChilkatRel:CK_Registry.obj
 0001:000b45f0       ?openKey@CK_Registry@@AAEPAUHKEY__@@PAU2@PBD_NPAVLogBase@@@Z 004b55f0 f   ChilkatRel:CK_Registry.obj
 0001:000b4830       ?openLocalMachineKey@CK_Registry@@QAEPAUHKEY__@@PBD_NPAVLogBase@@@Z 004b5830 f   ChilkatRel:CK_Registry.obj
 0001:000b4860       ?openCurrentUserKey@CK_Registry@@QAEPAUHKEY__@@PBD_NPAVLogBase@@@Z 004b5860 f   ChilkatRel:CK_Registry.obj
 0001:000b4890       ?setValueAnsi@CK_Registry@@QAEHPAUHKEY__@@PBD1PAVLogBase@@@Z 004b5890 f   ChilkatRel:CK_Registry.obj
 0001:000b48f0       ?getValueSb@CK_Registry@@QAE_NPAUHKEY__@@PBDAAVStringBuffer@chilkat@@AAVLogBase@@@Z 004b58f0 f   ChilkatRel:CK_Registry.obj
 0001:000b4b30       ??1ZipCRC@@UAE@XZ          004b5b30 f   ChilkatRel:zipCRC.obj
 0001:000b4b50       ??_EZipCRC@@UAEPAXI@Z      004b5b50 f i ChilkatRel:zipCRC.obj
 0001:000b4b50       ??_GZipCRC@@UAEPAXI@Z      004b5b50 f i ChilkatRel:zipCRC.obj
 0001:000b4b80       ??0ZipCRC@@QAE@XZ          004b5b80 f   ChilkatRel:zipCRC.obj
 0001:000b4c60       ?reflect@ZipCRC@@AAEKKD@Z  004b5c60 f   ChilkatRel:zipCRC.obj
 0001:000b4cc0       ?beginStream@ZipCRC@@QAEXXZ 004b5cc0 f   ChilkatRel:zipCRC.obj
 0001:000b4ce0       ?moreData@ZipCRC@@QAEXPBEH@Z 004b5ce0 f   ChilkatRel:zipCRC.obj
 0001:000b5020       ?getCRC@ZipCRC@@QBEKPAEHPAG@Z 004b6020 f   ChilkatRel:zipCRC.obj
 0001:000b51e0       ?dp_beware@mp_int@@QAEPAKXZ 004b61e0 f   ChilkatRel:ChilkatMp.obj
 0001:000b51e0       ?getImplX@CkString@@QBEPAXXZ 004b61e0 f   ChilkatRel:CkSFtp.obj
 0001:000b51e0       ?getPtr@CK_ListItem@@QBEPAXXZ 004b61e0 f   ChilkatRel:ck_list.obj
 0001:000b5200       ?_setNext@CK_ListItem@@QAEXPAV1@@Z 004b6200 f   ChilkatRel:ck_list.obj
 0001:000b5220       ?_setPtr@CK_ListItem@@QAEXPAX@Z 004b6220 f   ChilkatRel:ck_list.obj
 0001:000b5240       ?compare@CK_ListItem@@UBEHPAV1@@Z 004b6240 f   ChilkatRel:ck_list.obj
 0001:000b5270       ??0CK_ListItem@@QAE@XZ     004b6270 f   ChilkatRel:ck_list.obj
 0001:000b52b0       ??_ECK_ListItem@@EAEPAXI@Z 004b62b0 f i ChilkatRel:ck_list.obj
 0001:000b52b0       ??_GCK_ListItem@@EAEPAXI@Z 004b62b0 f i ChilkatRel:ck_list.obj
 0001:000b52e0       ??0CK_List@@QAE@XZ         004b62e0 f   ChilkatRel:ck_list.obj
 0001:000b5320       ??1CK_List@@UAE@XZ         004b6320 f   ChilkatRel:ck_list.obj
 0001:000b5340       ??1CK_ListItem@@EAE@XZ     004b6340 f   ChilkatRel:ck_list.obj
 0001:000b5360       ?addHead@CK_List@@QAEXPAX@Z 004b6360 f   ChilkatRel:ck_list.obj
 0001:000b5410       ?addHead@CK_List@@QAEXPAVCK_ListItem@@@Z 004b6410 f   ChilkatRel:ck_list.obj
 0001:000b54a0       ?removeAll2@CK_List@@QAEXXZ 004b64a0 f   ChilkatRel:ck_list.obj
 0001:000b5530       ?removeItem@CK_List@@QAEXPAVCK_ListItem@@@Z 004b6530 f   ChilkatRel:ck_list.obj
 0001:000b5680       ?removeItem@CK_List@@QAEXPAX@Z 004b6680 f   ChilkatRel:ck_list.obj
 0001:000b56e0       ??0NamedObject@@QAE@PBDPAVChilkatObject@@@Z 004b66e0 f   ChilkatRel:NamedObject.obj
 0001:000b5790       ??_ENamedObject@@UAEPAXI@Z 004b6790 f i ChilkatRel:NamedObject.obj
 0001:000b5790       ??_GNamedObject@@UAEPAXI@Z 004b6790 f i ChilkatRel:NamedObject.obj
 0001:000b57c0       ??1NamedObject@@UAE@XZ     004b67c0 f   ChilkatRel:NamedObject.obj
 0001:000b5850       ?replaceObject@NamedObject@@QAEXPAVChilkatObject@@@Z 004b6850 f   ChilkatRel:NamedObject.obj
 0001:000b58b0       ?getName@NamedObject@@QBEPBDXZ 004b68b0 f   ChilkatRel:NamedObject.obj
 0001:000b58e0       ?getObject@NamedObject@@QAEPAVChilkatObject@@XZ 004b68e0 f   ChilkatRel:NamedObject.obj
 0001:000b58e0       ?getNext@CK_ListItem@@QBEPAV1@XZ 004b68e0 f   ChilkatRel:ck_list.obj
 0001:000b58e0       ?getHandle@CryptoSP@@QAEKXZ 004b68e0 f   ChilkatRel:CryptoSP.obj
 0001:000b58e0       ?getBuffer_BECAREFUL@OutputDataBuffer@@UAEPAVDataBuffer@@XZ 004b68e0 f   ChilkatRel:OutputDataBuffer.obj
 0001:000b58e0       ?get_SocksPort@ClsSocksClient@@QAEHXZ 004b68e0 f   ChilkatRel:ClsSocksClient.obj
 0001:000b5900       ??0rsa_key@@QAE@XZ         004b6900 f   ChilkatRel:Rsa2.obj
 0001:000b59d0       ?setPadding@Rijndael2@@QAEXH@Z 004b69d0 f   ChilkatRel:rijndael.obj
 0001:000b59d0       ?set_ModulusBitLen@rsa_key@@QAEXH@Z 004b69d0 f   ChilkatRel:Rsa2.obj
 0001:000b59f0       ?get_ModulusBitLen@rsa_key@@QAEHXZ 004b69f0 f   ChilkatRel:Rsa2.obj
 0001:000b5a20       ?calc_fingerprint@Rsa2@@SA_NAAVrsa_key@@AAVStringBuffer@chilkat@@@Z 004b6a20 f   ChilkatRel:Rsa2.obj
 0001:000b5bc0       ?pack_uint32@SshTransport@@SAXKAAVDataBuffer@@@Z 004b6bc0 f   ChilkatRel:SshTransport.obj
 0001:000b5c10       ?keyToXml@Rsa2@@SA_NAAVrsa_key@@_NAAVStringBuffer@chilkat@@1AAVLogBase@@@Z 004b6c10 f   ChilkatRel:Rsa2.obj
 0001:000b64d0       ?exptmod@Rsa2@@SA_NPBEKHAAVrsa_key@@_NAAVDataBuffer@@AAVLogBase@@@Z 004b74d0 f   ChilkatRel:Rsa2.obj
 0001:000b6a50       ?verifyHashSsh@Rsa2@@SA_NPBEK0KAA_NAAVrsa_key@@AAVLogBase@@@Z 004b7a50 f   ChilkatRel:Rsa2.obj
 0001:000b6ec0       ?makeCopy@ChilkatBignum@@SAPAKPAK@Z 004b7ec0 f   ChilkatRel:ChilkatBignum.obj
 0001:000b6f40       ?createBitmask@ChilkatBignum@@SAPAKPAK@Z 004b7f40 f   ChilkatRel:ChilkatBignum.obj
 0001:000b6ff0       ?bitcount@ChilkatBignum@@SAHPAK@Z 004b7ff0 f   ChilkatRel:ChilkatBignum.obj
 0001:000b7050       ?cmp@ChilkatBignum@@SAHPAK0@Z 004b8050 f   ChilkatRel:ChilkatBignum.obj
 0001:000b7120       ?ssh1_length@ChilkatBignum@@SAHPAK@Z 004b8120 f   ChilkatRel:ChilkatBignum.obj
 0001:000b7140       ?getByte@ChilkatBignum@@SAHPAKH@Z 004b8140 f   ChilkatRel:ChilkatBignum.obj
 0001:000b7190       ?ssh1_write_bignum@ChilkatBignum@@SAHPAKAAVDataBuffer@@@Z 004b8190 f   ChilkatRel:ChilkatBignum.obj
 0001:000b72c0       ?bn_power_2@ChilkatBignum@@SAPAKH@Z 004b82c0 f   ChilkatRel:ChilkatBignum.obj
 0001:000b7300       ?set_bit@ChilkatBignum@@SAXPAKHH@Z 004b8300 f   ChilkatRel:ChilkatBignum.obj
 0001:000b7380       ?ssh1_read_bignum@ChilkatBignum@@SAHPBEHPAPAK@Z 004b8380 f   ChilkatRel:ChilkatBignum.obj
 0001:000b7430       ?newBignum@ChilkatBignum@@SAPAKH@Z 004b8430 f   ChilkatRel:ChilkatBignum.obj
 0001:000b7490       ?fromBytes@ChilkatBignum@@SAPAKPBEH@Z 004b8490 f   ChilkatRel:ChilkatBignum.obj
 0001:000b7590       ?bignumToMpInt@ChilkatBignum@@SAXPAKAAVmp_int@@@Z 004b8590 f   ChilkatRel:ChilkatBignum.obj
 0001:000b7630       ?mpIntToBignum@ChilkatBignum@@SAPAKAAVmp_int@@@Z 004b8630 f   ChilkatRel:ChilkatBignum.obj
 0001:000b76c0       ?rshift@ChilkatBignum@@SAPAKPAKH@Z 004b86c0 f   ChilkatRel:ChilkatBignum.obj
 0001:000b77b0       ?ssh2_mpint_fmt@ChilkatBignum@@SAXQAKAAVDataBuffer@@@Z 004b87b0 f   ChilkatRel:ChilkatBignum.obj
 0001:000b78c0       ?verify_hash_raw@Dsa@@SA_NABVmp_int@@0PBEKAAUdsa_key@@AA_NAAVLogBase@@@Z 004b88c0 f   ChilkatRel:Dsa.obj
 0001:000b7b50       ?calc_fingerprint@Dsa@@SA_NAAUdsa_key@@AAVStringBuffer@chilkat@@@Z 004b8b50 f   ChilkatRel:Dsa.obj
 0001:000b7db0       ??0ChilkatDh@@QAE@XZ       004b8db0 f   ChilkatRel:ChilkatDh.obj
 0001:000b7e20       ??_GChilkatDh@@UAEPAXI@Z   004b8e20 f i ChilkatRel:ChilkatDh.obj
 0001:000b7e20       ??_EChilkatDh@@UAEPAXI@Z   004b8e20 f i ChilkatRel:ChilkatDh.obj
 0001:000b7e50       ?replace_p@ChilkatDh@@QAEXPAK@Z 004b8e50 f   ChilkatRel:ChilkatDh.obj
 0001:000b7ea0       ?replace_g@ChilkatDh@@QAEXPAK@Z 004b8ea0 f   ChilkatRel:ChilkatDh.obj
 0001:000b7ef0       ?clear@ChilkatDh@@AAEXXZ   004b8ef0 f   ChilkatRel:ChilkatDh.obj
 0001:000b8020       ??1ChilkatDh@@UAE@XZ       004b9020 f   ChilkatRel:ChilkatDh.obj
 0001:000b8040       ?init@ChilkatDh@@AAEXXZ    004b9040 f   ChilkatRel:ChilkatDh.obj
 0001:000b8080       ?UseOakleyGroup@ChilkatDh@@QAE_NH@Z 004b9080 f   ChilkatRel:ChilkatDh.obj
 0001:000b8140       ?create_e@ChilkatDh@@QAE_NK@Z 004b9140 f   ChilkatRel:ChilkatDh.obj
 0001:000b8560       ?find_K@ChilkatDh@@QAEXPAK@Z 004b9560 f   ChilkatRel:ChilkatDh.obj
 0001:000b8690       ??0ChilkatDeflate@@QAE@XZ  004b9690 f   ChilkatRel:ChilkatDeflate.obj
 0001:000b86f0       ??_EChilkatDeflate@@UAEPAXI@Z 004b96f0 f i ChilkatRel:ChilkatDeflate.obj
 0001:000b86f0       ??_GChilkatDeflate@@UAEPAXI@Z 004b96f0 f i ChilkatRel:ChilkatDeflate.obj
 0001:000b8720       ??1ChilkatDeflate@@UAE@XZ  004b9720 f   ChilkatRel:ChilkatDeflate.obj
 0001:000b87f0       ?BeginZlibCompress@ChilkatDeflate@@QAE_NAAVDataBuffer@@AAVLogBase@@@Z 004b97f0 f   ChilkatRel:ChilkatDeflate.obj
 0001:000b88f0       ?MoreZlibCompress@ChilkatDeflate@@QAE_NAAVDataBuffer@@0AAVLogBase@@PAVProgressMonitor@@@Z 004b98f0 f   ChilkatRel:ChilkatDeflate.obj
 0001:000b8a10       ?BeginZlibDecompress@ChilkatDeflate@@QAE_NAAVDataBuffer@@0AAVLogBase@@PAVProgressMonitor@@@Z 004b9a10 f   ChilkatRel:ChilkatDeflate.obj
 0001:000b8c50       ?MoreZlibDecompress@ChilkatDeflate@@QAE_NAAVDataBuffer@@0AAVLogBase@@PAVProgressMonitor@@@Z 004b9c50 f   ChilkatRel:ChilkatDeflate.obj
 0001:000b8e00       ?startupWSA@ChilkatSocket@@CA_NAAVLogBase@@@Z 004b9e00 f   ChilkatRel:ChilkatSocket.obj
 0001:000b90f0       ??_EChilkatSocket@@UAEPAXI@Z 004ba0f0 f i ChilkatRel:ChilkatSocket.obj
 0001:000b90f0       ??_GChilkatSocket@@UAEPAXI@Z 004ba0f0 f i ChilkatRel:ChilkatSocket.obj
 0001:000b9120       ?checkSetBufSizes@ChilkatSocket@@AAEXXZ 004ba120 f   ChilkatRel:ChilkatSocket.obj
 0001:000b91c0       ?createSocket@ChilkatSocket@@AAE_NAAVLogBase@@_N@Z 004ba1c0 f   ChilkatRel:ChilkatSocket.obj
 0001:000b9360       ?get_IdleMsTimeout@ChilkatSocket@@QBEHXZ 004ba360 f   ChilkatRel:ChilkatSocket.obj
 0001:000b9380       ?get_ConnectTimeoutMs@ChilkatSocket@@QBEKXZ 004ba380 f   ChilkatRel:ChilkatSocket.obj
 0001:000b93a0       ??0ChilkatSocket@@QAE@XZ   004ba3a0 f   ChilkatRel:ChilkatSocket.obj
 0001:000b9530       ??1ChilkatSocket@@UAE@XZ   004ba530 f   ChilkatRel:ChilkatSocket.obj
 0001:000b9630       ?reportSocketError@ChilkatSocket@@SAXHAAVLogBase@@@Z 004ba630 f   ChilkatRel:ChilkatSocket.obj
 0001:000b9970       ?ConnectSocketWithHB2@ChilkatSocket@@QAE_NPBDHKKAAVLogBase@@AA_NPAVProgressMonitor@@@Z 004ba970 f   ChilkatRel:ChilkatSocket.obj
 0001:000b9a70       ?GetSockName2@ChilkatSocket@@QAE_NAAVStringBuffer@chilkat@@AAH@Z 004baa70 f   ChilkatRel:ChilkatSocket.obj
 0001:000b9b10       ?CkGetHostByNameHB@ChilkatSocket@@SA_NPBDHKKKAAVLogBase@@PAVProgressMonitor@@AAVStringBuffer@chilkat@@AAKAA_N5@Z 004bab10 f   ChilkatRel:ChilkatSocket.obj
 0001:000ba1f0       ?isDottedIpAddress@ChilkatSocket@@SA_NPBD@Z 004bb1f0 f   ChilkatRel:ChilkatSocket.obj
 0001:000ba250       ?ConnectSocket2@ChilkatSocket@@AAE_NPBDHAAVLogBase@@AA_N@Z 004bb250 f   ChilkatRel:ChilkatSocket.obj
 0001:000baa70       ?DnsLookup@ChilkatSocket@@QAE_NPBDKKKAAVLogBase@@PAVProgressMonitor@@AAVXString@@AAKAA_N5@Z 004bba70 f   ChilkatRel:ChilkatSocket.obj
 0001:000bad00       ?ConnectSocketHB@ChilkatSocket@@AAE_NPBDHKKAAVLogBase@@AA_NPAVProgressMonitor@@@Z 004bbd00 f   ChilkatRel:ChilkatSocket.obj
 0001:000bb4e0       ?waitWriteableMs2@ChilkatSocket@@QAE_NKAAVLogBase@@AA_N1@Z 004bc4e0 f   ChilkatRel:ChilkatSocket.obj
 0001:000bb680       ?waitWriteableMsHB@ChilkatSocket@@QAE_NKKKAAVLogBase@@PAVProgressMonitor@@AA_N22@Z 004bc680 f   ChilkatRel:ChilkatSocket.obj
 0001:000bb990       ?clientBind@ChilkatSocket@@AAE_NPBDAAVLogBase@@@Z 004bc990 f   ChilkatRel:ChilkatSocket.obj
 0001:000bba40       ?SetIdleMsTimeout@ChilkatSocket@@QAEXK@Z 004bca40 f   ChilkatRel:ChilkatSocket.obj
 0001:000bba80       ?SetConnectMsTimeout@ChilkatSocket@@QAEXK@Z 004bca80 f   ChilkatRel:ChilkatSocket.obj
 0001:000bbaa0       ?CloseSocket@ChilkatSocket@@QAEXHAAVLogBase@@@Z 004bcaa0 f   ChilkatRel:ChilkatSocket.obj
 0001:000bbaf0       ?waitForDataHB@ChilkatSocket@@QAE_NKKPAVProgressMonitor@@AA_N11AAVLogBase@@@Z 004bcaf0 f   ChilkatRel:ChilkatSocket.obj
 0001:000bbde0       ?SendString@ChilkatSocket@@QAE_NABVStringBuffer@chilkat@@KKAAVLogBase@@PAVProgressMonitor@@@Z 004bcde0 f   ChilkatRel:ChilkatSocket.obj
 0001:000bbe20       ?SendBytes@ChilkatSocket@@QAE_NABVDataBuffer@@KKAAVLogBase@@PAVProgressMonitor@@@Z 004bce20 f   ChilkatRel:ChilkatSocket.obj
 0001:000bbe80       ?SendBytes2@ChilkatSocket@@QAE_NPBEKKKAAVLogBase@@PAVProgressMonitor@@@Z 004bce80 f   ChilkatRel:ChilkatSocket.obj
 0001:000bc260       ?SendOnSocket@ChilkatSocket@@QAE_NPBEHKKAAVLogBase@@PAVProgressMonitor@@@Z 004bd260 f   ChilkatRel:ChilkatSocket.obj
 0001:000bc290       ?ReceiveNBytes@ChilkatSocket@@QAE_NPAEKKAAVLogBase@@PAVProgressMonitor@@AAKAA_N444@Z 004bd290 f   ChilkatRel:ChilkatSocket.obj
 0001:000bc3b0       ?ReceiveBytes2@ChilkatSocket@@QAE_NPAEAAKKAAVLogBase@@PAVProgressMonitor@@AA_N444@Z 004bd3b0 f   ChilkatRel:ChilkatSocket.obj
 0001:000bc6a0       ?ReadToDoubleCRLF@ChilkatSocket@@QAE_NAAVDataBuffer@@KAAVLogBase@@PAVProgressMonitor@@@Z 004bd6a0 f   ChilkatRel:ChilkatSocket.obj
 0001:000bc7a0       ?ReadToNextEndOfLine@ChilkatSocket@@QAE_NAAVDataBuffer@@KAAVLogBase@@PAVProgressMonitor@@_N@Z 004bd7a0 f   ChilkatRel:ChilkatSocket.obj
 0001:000bc890       ?ReadN@ChilkatSocket@@QAE_NKAAVDataBuffer@@KAAVLogBase@@PAVProgressMonitor@@AA_N333@Z 004bd890 f   ChilkatRel:ChilkatSocket.obj
 0001:000bc940       ?ReadN@ChilkatSocket@@QAE_NKAAVDataBuffer@@AAVSocketReadParams@@AAVLogBase@@@Z 004bd940 f   ChilkatRel:ChilkatSocket.obj
 0001:000bcad0       ?clear@SocketReadFailInfo@@QAEXXZ 004bdad0 f   ChilkatRel:ChilkatSocket.obj
 0001:000bcb00       ?toEscapedString@DataLog@@SAXAAVDataBuffer@@AAVXString@@H@Z 004bdb00 f   ChilkatRel:DataLog.obj
 0001:000bd180       ?httpProxyConnect@HttpProxyClient@@SA_NAAVChilkatSocket@@PBDH1KKAAVLogBase@@AA_NPAVProgressMonitor@@AAHAAVClsHttpProxyClient@@@Z 004be180 f   ChilkatRel:HttpProxyClient.obj
 0001:000bd5c0       ?dnsLookup@SocksClient@@CA_NAAVChilkatSocket@@PBDKKKAAVLogBase@@PAVProgressMonitor@@AAVXString@@AA_N5@Z 004be5c0 f   ChilkatRel:SocksClient.obj
 0001:000bd6b0       ?socks4Connect@SocksClient@@SA_NAAVChilkatSocket@@PBDH1KKAAVLogBase@@AA_NPAVProgressMonitor@@AAHAAVClsSocksClient@@@Z 004be6b0 f   ChilkatRel:SocksClient.obj
 0001:000bdd20       ?socks5Connect@SocksClient@@SA_NAAVChilkatSocket@@PBDH1KKAAVLogBase@@AA_NPAVProgressMonitor@@AAHAAVClsSocksClient@@@Z 004bed20 f   ChilkatRel:SocksClient.obj
 0001:000befd0       ?hashId@Hash@@SAHPBD@Z     004bffd0 f   ChilkatRel:Hash.obj
 0001:000bf1d0       ?hashLen@Hash@@SAHH@Z      004c01d0 f   ChilkatRel:Hash.obj
 0001:000bf240       ?doHash@Hash@@SAXPBEHHAAVDataBuffer@@@Z 004c0240 f   ChilkatRel:Hash.obj
 0001:000bf450       ??0AsyncProgressEvent@@QAE@XZ 004c0450 f   ChilkatRel:AsyncProgressEvent.obj
 0001:000bf480       ??_EAsyncProgressEvent@@UAEPAXI@Z 004c0480 f i ChilkatRel:AsyncProgressEvent.obj
 0001:000bf480       ??_GAsyncProgressEvent@@UAEPAXI@Z 004c0480 f i ChilkatRel:AsyncProgressEvent.obj
 0001:000bf4b0       ??1AsyncProgressEvent@@UAE@XZ 004c04b0 f   ChilkatRel:AsyncProgressEvent.obj
 0001:000bf4d0       ?Heartbeat@AsyncProgressEvent@@UAEXHAA_N@Z 004c04d0 f   ChilkatRel:AsyncProgressEvent.obj
 0001:000bf4f0       ?UpdatePct@AsyncProgressEvent@@UAEXHAA_N@Z 004c04f0 f   ChilkatRel:AsyncProgressEvent.obj
 0001:000bf520       ?AbortCheck@AsyncProgressEvent@@UAEXAA_N@Z 004c0520 f   ChilkatRel:AsyncProgressEvent.obj
 0001:000bf540       ??0ErrorLog@@QAE@XZ        004c0540 f   ChilkatRel:ErrorLog.obj
 0001:000bf600       ??_GErrorLog@@UAEPAXI@Z    004c0600 f i ChilkatRel:ErrorLog.obj
 0001:000bf600       ??_EErrorLog@@UAEPAXI@Z    004c0600 f i ChilkatRel:ErrorLog.obj
 0001:000bf630       ?ClearLog@ErrorLog@@QAEXXZ 004c0630 f   ChilkatRel:ErrorLog.obj
 0001:000bf720       ??1ErrorLog@@UAE@XZ        004c0720 f   ChilkatRel:ErrorLog.obj
 0001:000bf7c0       ?OpenContext@ErrorLog@@QAEXPBD@Z 004c07c0 f   ChilkatRel:ErrorLog.obj
 0001:000bf880       ?CloseContext@ErrorLog@@QAEXXZ 004c0880 f   ChilkatRel:ErrorLog.obj
 0001:000bf8e0       ?LogError@ErrorLog@@QAEXPBD@Z 004c08e0 f   ChilkatRel:ErrorLog.obj
 0001:000bf990       ?LogXml@ErrorLog@@QAEXPBD@Z 004c0990 f   ChilkatRel:ErrorLog.obj
 0001:000bfa40       ?LogInfo@ErrorLog@@QAEXPBD@Z 004c0a40 f   ChilkatRel:ErrorLog.obj
 0001:000bfaf0       ?LogData@ErrorLog@@QAEXPBD0@Z 004c0af0 f   ChilkatRel:ErrorLog.obj
 0001:000bfbb0       ?LogDataLong@ErrorLog@@QAEXPBDH@Z 004c0bb0 f   ChilkatRel:ErrorLog.obj
 0001:000bfcb0       ?GetXml@ErrorLog@@QAEXAAVStringBuffer@chilkat@@@Z 004c0cb0 f   ChilkatRel:ErrorLog.obj
 0001:000bfcf0       ?GetText@ErrorLog@@QAEXAAVStringBuffer@chilkat@@@Z 004c0cf0 f   ChilkatRel:ErrorLog.obj
 0001:000bfd30       ?GetHtml@ErrorLog@@QAEXAAVStringBuffer@chilkat@@@Z 004c0d30 f   ChilkatRel:ErrorLog.obj
 0001:000bfd70       ?getRandomBytes2@Entropy@@SA_NHPAE@Z 004c0d70 f   ChilkatRel:Entropy.obj
 0001:000bfdd0       ?aesEncryptString@EasyAes@@SAXPBDAAVStringBuffer@chilkat@@AAVLogBase@@@Z 004c0dd0 f   ChilkatRel:EasyAes.obj
 0001:000bfea0       ?aesDecryptString@EasyAes@@SAXPBDAAVStringBuffer@chilkat@@AAVLogBase@@@Z 004c0ea0 f   ChilkatRel:EasyAes.obj
 0001:000bffb0       ?decryptData@EasyAes@@SA_NHPBDPBEKAAVDataBuffer@@AAVLogBase@@@Z 004c0fb0 f   ChilkatRel:EasyAes.obj
 0001:000c0180       ?encryptData@EasyAes@@SA_NHPBDPBEKAAVDataBuffer@@AAVLogBase@@@Z 004c1180 f   ChilkatRel:EasyAes.obj
 0001:000c0350       ?RS_MDS_Encode@TwofishImpl@@CAKKK@Z 004c1350 f   ChilkatRel:TwoFishImpl.obj
 0001:000c0440       ?BuildMDS@TwofishImpl@@CAXXZ 004c1440 f   ChilkatRel:TwoFishImpl.obj
 0001:000c0630       ?reverseRoundSubkeys@TwofishImpl@@CAXAAUTwofishKey@@E@Z 004c1630 f   ChilkatRel:TwoFishImpl.obj
 0001:000c06c0       ?Xor256@TwofishImpl@@CAXPAX0E@Z 004c16c0 f   ChilkatRel:TwoFishImpl.obj
 0001:000c0ac0       ?reKey@TwofishImpl@@SAHAAUTwofishKey@@@Z 004c1ac0 f   ChilkatRel:TwoFishImpl.obj
 0001:000c1ab0       ?makeKey@TwofishImpl@@SAXAAUTwofishKey@@EH@Z 004c2ab0 f   ChilkatRel:TwoFishImpl.obj
 0001:000c1b00       ?blockEncrypt@TwofishImpl@@SAHAAUTwofishKey@@HPAKPAEH2@Z 004c2b00 f   ChilkatRel:TwoFishImpl.obj
 0001:000c28f0       ?blockDecrypt@TwofishImpl@@SAHAAUTwofishKey@@HPAKPAEH2@Z 004c38f0 f   ChilkatRel:TwoFishImpl.obj
 0001:000c3740       ?GetProviderType@CryptoSP@@SAKPBD@Z 004c4740 f   ChilkatRel:CryptoSP.obj
 0001:000c3b20       ??0CryptoSP@@AAE@K@Z       004c4b20 f   ChilkatRel:CryptoSP.obj
 0001:000c3ce0       ??_ECryptoSP@@UAEPAXI@Z    004c4ce0 f i ChilkatRel:CryptoSP.obj
 0001:000c3ce0       ??_GCryptoSP@@UAEPAXI@Z    004c4ce0 f i ChilkatRel:CryptoSP.obj
 0001:000c3d10       ?SmartAcquireCSP@CryptoSP@@SAPAV1@PBD0_N1AAVLogBase@@H1@Z 004c4d10 f   ChilkatRel:CryptoSP.obj
 0001:000c3e60       ?AcquireCSP@CryptoSP@@SAPAV1@PBD0_N1AAVLogBase@@H1@Z 004c4e60 f   ChilkatRel:CryptoSP.obj
 0001:000c4300       ?getProviderName@CryptoSP@@QBEPBDXZ 004c5300 f   ChilkatRel:CryptoSP.obj
 0001:000c4320       ?getEncryptAlgorithm@CryptoSP@@QAEPAVCryptoAlg@@PBDAAVLogBase@@@Z 004c5320 f   ChilkatRel:CryptoSP.obj
 0001:000c4540       ?getFirstEncryptAlgorithm@CryptoSP@@QAEPAVCryptoAlg@@XZ 004c5540 f   ChilkatRel:CryptoSP.obj
 0001:000c4740       ?getHashAlgorithm@CryptoSP@@QAEPAVCryptoAlg@@PBD@Z 004c5740 f   ChilkatRel:CryptoSP.obj
 0001:000c4940       ?getFirstHashAlgorithm@CryptoSP@@QAEPAVCryptoAlg@@XZ 004c5940 f   ChilkatRel:CryptoSP.obj
 0001:000c4c30       ??1CryptoSP@@UAE@XZ        004c5c30 f   ChilkatRel:CryptoSP.obj
 0001:000c4cc0       ??0CertStoreSpec@@QAE@XZ   004c5cc0 f   ChilkatRel:CertStoreSpec.obj
 0001:000c4d40       ??_ECertStoreSpec@@UAEPAXI@Z 004c5d40 f i ChilkatRel:CertStoreSpec.obj
 0001:000c4d40       ??_GCertStoreSpec@@UAEPAXI@Z 004c5d40 f i ChilkatRel:CertStoreSpec.obj
 0001:000c4d70       ??1CertStoreSpec@@UAE@XZ   004c5d70 f   ChilkatRel:CertStoreSpec.obj
 0001:000c4dd0       ?isCurrentUserStore@CertStoreSpec@@QBE_NXZ 004c5dd0 f   ChilkatRel:CertStoreSpec.obj
 0001:000c4e10       ?setStoreChilkat@CertStoreSpec@@QAEXXZ 004c5e10 f   ChilkatRel:CertStoreSpec.obj
 0001:000c4e40       ?setStoreCurrentUser@CertStoreSpec@@QAEXXZ 004c5e40 f   ChilkatRel:CertStoreSpec.obj
 0001:000c4e70       ?setStoreOutlook@CertStoreSpec@@QAEXXZ 004c5e70 f   ChilkatRel:CertStoreSpec.obj
 0001:000c4ea0       ?setStoreLocalMachine@CertStoreSpec@@QAEXXZ 004c5ea0 f   ChilkatRel:CertStoreSpec.obj
 0001:000c4ed0       ?setStoreFileUtf8@CertStoreSpec@@QAEXPBD@Z 004c5ed0 f   ChilkatRel:CertStoreSpec.obj
 0001:000c4f00       ?setStoreRegistryCurrentUser@CertStoreSpec@@QAEXPBD@Z 004c5f00 f   ChilkatRel:CertStoreSpec.obj
 0001:000c4f30       ?setStoreRegistryLocalMachine@CertStoreSpec@@QAEXPBD@Z 004c5f30 f   ChilkatRel:CertStoreSpec.obj
 0001:000c4f60       ?getCertStore@CertStoreSpec@@QAEPAVCertificateStore@@_NPAVLogBase@@@Z 004c5f60 f   ChilkatRel:CertStoreSpec.obj
 0001:000c5060       ?BZ2_bzDecompressInit@ChilkatBzip2@@AAEHPAUbz_stream@@HH@Z 004c6060 f   ChilkatRel:BzApi.obj
 0001:000c5190       ?BZ2_indexIntoF@ChilkatBzip2@@AAEJJPAJ@Z 004c6190 f   ChilkatRel:BzApi.obj
 0001:000c51f0       ?unRLE_obuf_to_output_SMALL@ChilkatBzip2@@AAEXPAUDState@@@Z 004c61f0 f   ChilkatRel:BzApi.obj
 0001:000c5c70       ?BZ2_bzDecompress@ChilkatBzip2@@AAEHPAUbz_stream@@@Z 004c6c70 f   ChilkatRel:BzApi.obj
 0001:000c66e0       ?BZ2_bzDecompressEnd@ChilkatBzip2@@AAEHPAUbz_stream@@@Z 004c76e0 f   ChilkatRel:BzApi.obj
 0001:000c67c0       ??0bz_stream@@QAE@XZ       004c77c0 f   ChilkatRel:BzApi.obj
 0001:000c6830       ?BZ2_bzDecompressBuffer@ChilkatBzip2@@AAE_NPADPAI0I@Z 004c7830 f   ChilkatRel:BzApi.obj
 0001:000c6920       ?BZ2_decompress@ChilkatBzip2@@AAEJPAUDState@@@Z 004c7920 f   ChilkatRel:BzApi.obj
 0001:000cb060       ??_GOutputDataBuffer@@UAEPAXI@Z 004cc060 f i ChilkatRel:OutputDataBuffer.obj
 0001:000cb060       ??_EOutputDataBuffer@@UAEPAXI@Z 004cc060 f i ChilkatRel:OutputDataBuffer.obj
 0001:000cb090       ??0OutputDataBuffer@@QAE@PAVDataBuffer@@@Z 004cc090 f   ChilkatRel:OutputDataBuffer.obj
 0001:000cb160       ??1OutputDataBuffer@@UAE@XZ 004cc160 f   ChilkatRel:OutputDataBuffer.obj
 0001:000cb220       ?seekToEnd@OutputDataBuffer@@UAE_NXZ 004cc220 f   ChilkatRel:OutputDataBuffer.obj
 0001:000cb280       ?fseekAbsolute64@OutputDataBuffer@@UAE_N_J@Z 004cc280 f   ChilkatRel:OutputDataBuffer.obj
 0001:000cb340       ?outputFailed@OutputDataBuffer@@UAE_NXZ 004cc340 f   ChilkatRel:OutputDataBuffer.obj
 0001:000cb360       ?ftell64@OutputDataBuffer@@UAE_JXZ 004cc360 f   ChilkatRel:OutputDataBuffer.obj
 0001:000cb3b0       ?_fwrite64@OutputDataBuffer@@MAEKPAX_JKPAVProgressMonitor@@AAVLogBase@@@Z 004cc3b0 f   ChilkatRel:OutputDataBuffer.obj
 0001:000cb3e0       ?reset@OutputDataBuffer@@UAEXXZ 004cc3e0 f   ChilkatRel:OutputDataBuffer.obj
 0001:000cb430       ?getOutputType@OutputDataBuffer@@UAEXAAVStringBuffer@chilkat@@@Z 004cc430 f   ChilkatRel:OutputDataBuffer.obj
 0001:000cb450       ?ensureBuffer@OutputDataBuffer@@UAE_NK@Z 004cc450 f   ChilkatRel:OutputDataBuffer.obj
 0001:000cb480       ?getDataAlreadyWritten@OutputDataBuffer@@UAEXAAVDataBuffer@@@Z 004cc480 f   ChilkatRel:OutputDataBuffer.obj
 0001:000cb4b0       ?_fwrite32@OutputDataBuffer@@MAEKPAXKKPAVProgressMonitor@@AAVLogBase@@@Z 004cc4b0 f   ChilkatRel:OutputDataBuffer.obj
 0001:000cb950       ?v1_5_decode@Pkcs1@@SA_NPBEKHKAAVDataBuffer@@AA_N2AAVLogBase@@@Z 004cc950 f   ChilkatRel:Pkcs1.obj
 0001:000cbbd0       ??0AsnItem@@QAE@XZ         004ccbd0 f   ChilkatRel:Der.obj
 0001:000cbc20       ??_EAsnItem@@UAEPAXI@Z     004ccc20 f i ChilkatRel:Der.obj
 0001:000cbc20       ??_GAsnItem@@UAEPAXI@Z     004ccc20 f i ChilkatRel:Der.obj
 0001:000cbc50       ?set_bool@AsnItem@@QAEXH@Z 004ccc50 f   ChilkatRel:Der.obj
 0001:000cbc80       ?set_int@AsnItem@@QAEXPAVmp_int@@@Z 004ccc80 f   ChilkatRel:Der.obj
 0001:000cbcb0       ?getSubItem_doNotDelete@AsnItem@@QAEPAV1@H@Z 004cccb0 f   ChilkatRel:Der.obj
 0001:000cbd00       ?set_bits@AsnItem@@QAEXPAEK@Z 004ccd00 f   ChilkatRel:Der.obj
 0001:000cbd40       ?set_octet@AsnItem@@QAEXPAEK@Z 004ccd40 f   ChilkatRel:Der.obj
 0001:000cbd80       ?set_unknown@AsnItem@@QAEXKPAEK@Z 004ccd80 f   ChilkatRel:Der.obj
 0001:000cbdc0       ?set_null@AsnItem@@QAEXXZ  004ccdc0 f   ChilkatRel:Der.obj
 0001:000cbde0       ?set_error@AsnItem@@QAEXK@Z 004ccde0 f   ChilkatRel:Der.obj
 0001:000cbe10       ?set_oid@AsnItem@@QAEXPAKK@Z 004cce10 f   ChilkatRel:Der.obj
 0001:000cbe50       ?set_utc@AsnItem@@QAEXPAEK@Z 004cce50 f   ChilkatRel:Der.obj
 0001:000cbe90       ?set_ia5@AsnItem@@QAEXPAEK@Z 004cce90 f   ChilkatRel:Der.obj
 0001:000cbed0       ?set_printable@AsnItem@@QAEXPAEK@Z 004cced0 f   ChilkatRel:Der.obj
 0001:000cbf10       ?set_utf8@AsnItem@@QAEXPAGK@Z 004ccf10 f   ChilkatRel:Der.obj
 0001:000cbf50       ?set_seq@AsnItem@@QAEXPAVExtPtrArray@@@Z 004ccf50 f   ChilkatRel:Der.obj
 0001:000cbf90       ?set_set@AsnItem@@QAEXPAVExtPtrArray@@@Z 004ccf90 f   ChilkatRel:Der.obj
 0001:000cbfd0       ?set_constructed@AsnItem@@QAEXKPAVExtPtrArray@@@Z 004ccfd0 f   ChilkatRel:Der.obj
 0001:000cc020       ?getSize@AsnItem@@QBEKXZ   004cd020 f   ChilkatRel:Der.obj
 0001:000cc0b0       ?clearData@AsnItem@@AAEXXZ 004cd0b0 f   ChilkatRel:Der.obj
 0001:000cc240       ??1AsnItem@@UAE@XZ         004cd240 f   ChilkatRel:Der.obj
 0001:000cc2a0       ?printable_value_decode@Der@@SAHH@Z 004cd2a0 f   ChilkatRel:Der.obj
 0001:000cc2f0       ?ia5_value_decode@Der@@SAHH@Z 004cd2f0 f   ChilkatRel:Der.obj
 0001:000cc340       ?decode_bit_string@Der@@SAPAEPBEKPAKAAH@Z 004cd340 f   ChilkatRel:Der.obj
 0001:000cc520       ?decode_boolean@Der@@SA_NPBEKPAHAAH@Z 004cd520 f   ChilkatRel:Der.obj
 0001:000cc5a0       ?decode_ia5_string@Der@@SAPAEPBEKPAKAAH@Z 004cd5a0 f   ChilkatRel:Der.obj
 0001:000cc780       ?decode_utc_string@Der@@SAPAEPBEKPAKAAH@Z 004cd780 f   ChilkatRel:Der.obj
 0001:000cc940       ?decode_integer@Der@@SA_NPBEKAAVmp_int@@AAHAAVLogBase@@@Z 004cd940 f   ChilkatRel:Der.obj
 0001:000ccc30       ?decode_object_identifier@Der@@SAPAKPBEKPAKAAH@Z 004cdc30 f   ChilkatRel:Der.obj
 0001:000ccec0       ?decode_octet_string@Der@@SAPAEPBEKPAKAAH@Z 004cdec0 f   ChilkatRel:Der.obj
 0001:000cd060       ?decode_unknown@Der@@SAPAEPBEKPAKAAH@Z 004ce060 f   ChilkatRel:Der.obj
 0001:000cd1e0       ?decode_printable_string@Der@@SAPAEPBEKPAKAAH@Z 004ce1e0 f   ChilkatRel:Der.obj
 0001:000cd3c0       ?decode_utf8_string@Der@@SAPAGPBEKPAKAAH@Z 004ce3c0 f   ChilkatRel:Der.obj
 0001:000cd6d0       ?fetch_length@Der@@SAKPBEK@Z 004ce6d0 f   ChilkatRel:Der.obj
 0001:000cd7c0       ?DecodeAsn@Der@@SAPAVAsnItem@@PBEKAAVLogBase@@@Z 004ce7c0 f   ChilkatRel:Der.obj
 0001:000cd850       ?decode_sequence_flexi@Der@@SAPAVExtPtrArray@@PBEKAAHAAVLogBase@@@Z 004ce850 f   ChilkatRel:Der.obj
 0001:000cdf10       ?buildFixedTables@InflateState2@@CAHXZ 004cef10 f   ChilkatRel:InflateState2.obj
 0001:000ce0a0       ??0InflateState2@@QAE@XZ   004cf0a0 f   ChilkatRel:InflateState2.obj
 0001:000ce340       ??_EInflateState2@@UAEPAXI@Z 004cf340 f i ChilkatRel:InflateState2.obj
 0001:000ce340       ??_GInflateState2@@UAEPAXI@Z 004cf340 f i ChilkatRel:InflateState2.obj
 0001:000ce370       ??1InflateState2@@UAE@XZ   004cf370 f   ChilkatRel:InflateState2.obj
 0001:000ce430       ?BeginInflate@InflateState2@@QAE_NK@Z 004cf430 f   ChilkatRel:InflateState2.obj
 0001:000ce480       ?MoreInflate2@InflateState2@@QAE_NPBEK_NAAVOutput@@AA_NAAVLogBase@@AAHK@Z 004cf480 f   ChilkatRel:InflateState2.obj
 0001:000ce4c0       ?inflateChunk@InflateState2@@AAE_NPBEK_NAAVOutput@@AA_NAAVLogBase@@AAHK@Z 004cf4c0 f   ChilkatRel:InflateState2.obj
 0001:000d0380       ?get_AvailOut@ZeeStream@@QBEIXZ 004d1380 f   ChilkatRel:ZeeStream.obj
 0001:000d03a0       ?get_AvailIn@ZeeStream@@QBEIXZ 004d13a0 f   ChilkatRel:ZeeStream.obj
 0001:000d03a0       ?getSize@DataBuffer@@QBEKXZ 004d13a0 f   ChilkatRel:DataBuffer.obj
 0001:000d03c0       ??0ZeeStream@@QAE@H_N@Z    004d13c0 f   ChilkatRel:ZeeStream.obj
 0001:000d04c0       ??_EZeeStream@@UAEPAXI@Z   004d14c0 f i ChilkatRel:ZeeStream.obj
 0001:000d04c0       ??_GZeeStream@@UAEPAXI@Z   004d14c0 f i ChilkatRel:ZeeStream.obj
 0001:000d04f0       ?put_CLevel@ZeeStream@@QAEXH@Z 004d14f0 f   ChilkatRel:ZeeStream.obj
 0001:000d0510       ??1ZeeStream@@UAE@XZ       004d1510 f   ChilkatRel:ZeeStream.obj
 0001:000d0570       ?flush_pending@ZeeStream@@QAEXXZ 004d1570 f   ChilkatRel:ZeeStream.obj
 0001:000d0610       ?NextZlibIteration@ZeeStream@@QAE_NAAVLogBase@@@Z 004d1610 f   ChilkatRel:ZeeStream.obj
 0001:000d07a0       ?read_buf@ZeeStream@@QAEHPADI@Z 004d17a0 f   ChilkatRel:ZeeStream.obj
 0001:000d0850       ?adler32@ZeeStream@@AAEKKPBEI@Z 004d1850 f   ChilkatRel:ZeeStream.obj
 0001:000d0aa0       ??0BandwidthThrottle@@QAE@XZ 004d1aa0 f   ChilkatRel:BandwidthThrottle.obj
 0001:000d0b00       ??_GBandwidthThrottle@@UAEPAXI@Z 004d1b00 f i ChilkatRel:BandwidthThrottle.obj
 0001:000d0b00       ??_EBandwidthThrottle@@UAEPAXI@Z 004d1b00 f i ChilkatRel:BandwidthThrottle.obj
 0001:000d0b30       ??1BandwidthThrottle@@UAE@XZ 004d1b30 f   ChilkatRel:BandwidthThrottle.obj
 0001:000d0b50       ?resetThrottle@BandwidthThrottle@@QAEXXZ 004d1b50 f   ChilkatRel:BandwidthThrottle.obj
 0001:000d0b90       ?addBytes32@BandwidthThrottle@@QAEXK@Z 004d1b90 f   ChilkatRel:BandwidthThrottle.obj
 0001:000d0c20       ?waitForGo@BandwidthThrottle@@QAEXKPAVProgressMonitor@@AA_N@Z 004d1c20 f   ChilkatRel:BandwidthThrottle.obj
 0001:000d0e00       ??0ParseBuffer@@QAE@XZ     004d1e00 f   ChilkatRel:ParseBuffer.obj
 0001:000d0e70       ??_GParseBuffer@@UAEPAXI@Z 004d1e70 f i ChilkatRel:ParseBuffer.obj
 0001:000d0e70       ??_EParseBuffer@@UAEPAXI@Z 004d1e70 f i ChilkatRel:ParseBuffer.obj
 0001:000d0ea0       ??1ParseBuffer@@UAE@XZ     004d1ea0 f   ChilkatRel:ParseBuffer.obj
 0001:000d0f00       ?discard@ParseBuffer@@AAEXH@Z 004d1f00 f   ChilkatRel:ParseBuffer.obj
 0001:000d0f80       ?discardAll@ParseBuffer@@QAEXXZ 004d1f80 f   ChilkatRel:ParseBuffer.obj
 0001:000d0fb0       ?resetPerformanceMon@PerformanceMon@@QAEXXZ 004d1fb0 f   ChilkatRel:PerformanceMon.obj
 0001:000d0ff0       ??0PerformanceMon@@QAE@XZ  004d1ff0 f   ChilkatRel:PerformanceMon.obj
 0001:000d1040       ??_EPerformanceMon@@UAEPAXI@Z 004d2040 f i ChilkatRel:PerformanceMon.obj
 0001:000d1040       ??_GPerformanceMon@@UAEPAXI@Z 004d2040 f i ChilkatRel:PerformanceMon.obj
 0001:000d1070       ??1PerformanceMon@@UAE@XZ  004d2070 f   ChilkatRel:PerformanceMon.obj
 0001:000d1090       ?checkFireEvent@PerformanceMon@@AAEXPAVProgressEvent@@@Z 004d2090 f   ChilkatRel:PerformanceMon.obj
 0001:000d11e0       ?updatePerformance32@PerformanceMon@@QAEXKPAVProgressMonitor@@@Z 004d21e0 f   ChilkatRel:PerformanceMon.obj
 0001:000d1240       ?resolve@HostnameResolve@@QAEXXZ 004d2240 f   ChilkatRel:HostnameResolve.obj
 0001:000d1330       ?resolveHostname@HostnameResolve@@QAE_NPBDHKKAAVLogBase@@PAVProgressMonitor@@AAVStringBuffer@chilkat@@AAKAA_N5@Z 004d2330 f   ChilkatRel:HostnameResolve.obj
 0001:000d17a0       ??0HostnameResolve@@QAE@XZ 004d27a0 f   ChilkatRel:HostnameResolve.obj
 0001:000d1830       ??_EHostnameResolve@@UAEPAXI@Z 004d2830 f i ChilkatRel:HostnameResolve.obj
 0001:000d1830       ??_GHostnameResolve@@UAEPAXI@Z 004d2830 f i ChilkatRel:HostnameResolve.obj
 0001:000d1860       ??1HostnameResolve@@UAE@XZ 004d2860 f   ChilkatRel:HostnameResolve.obj
 0001:000d18d0       ??0RefCountedObject@@QAE@XZ 004d28d0 f   ChilkatRel:RefCountedObject.obj
 0001:000d1900       ??_ERefCountedObject@@UAEPAXI@Z 004d2900 f i ChilkatRel:RefCountedObject.obj
 0001:000d1900       ??_GRefCountedObject@@UAEPAXI@Z 004d2900 f i ChilkatRel:RefCountedObject.obj
 0001:000d1930       ??1RefCountedObject@@UAE@XZ 004d2930 f   ChilkatRel:RefCountedObject.obj
 0001:000d1950       ?decRefCount@RefCountedObject@@UAEHXZ 004d2950 f   ChilkatRel:RefCountedObject.obj
 0001:000d19e0       ?incRefCount@RefCountedObject@@QAEXH@Z 004d29e0 f   ChilkatRel:RefCountedObject.obj
 0001:000d1a00       ??0SocketReadParams@@QAE@XZ 004d2a00 f   ChilkatRel:SocketReadParams.obj
 0001:000d1a50       ??_ESocketReadParams@@UAEPAXI@Z 004d2a50 f i ChilkatRel:SocketReadParams.obj
 0001:000d1a50       ??_GSocketReadParams@@UAEPAXI@Z 004d2a50 f i ChilkatRel:SocketReadParams.obj
 0001:000d1a80       ??1SocketReadParams@@UAE@XZ 004d2a80 f   ChilkatRel:SocketReadParams.obj
 0001:000d1aa0       ??0LogEntry2@@QAE@XZ       004d2aa0 f   ChilkatRel:LogEntry2.obj
 0001:000d1af0       ??_GLogEntry2@@UAEPAXI@Z   004d2af0 f i ChilkatRel:LogEntry2.obj
 0001:000d1af0       ??_ELogEntry2@@UAEPAXI@Z   004d2af0 f i ChilkatRel:LogEntry2.obj
 0001:000d1b20       ?CheckDeleteEmptyContext@LogEntry2@@QAEXXZ 004d2b20 f   ChilkatRel:LogEntry2.obj
 0001:000d1ba0       ?IsContext@LogEntry2@@QBE_NXZ 004d2ba0 f   ChilkatRel:LogEntry2.obj
 0001:000d1bc0       ?get_NumChildren@LogEntry2@@QBEHXZ 004d2bc0 f   ChilkatRel:LogEntry2.obj
 0001:000d1bf0       ??1LogEntry2@@UAE@XZ       004d2bf0 f   ChilkatRel:LogEntry2.obj
 0001:000d1d20       ?AppendEntry@LogEntry2@@QAEXPAV1@@Z 004d2d20 f   ChilkatRel:LogEntry2.obj
 0001:000d1d50       ?SetMessage@LogEntry2@@QAEXPBD0@Z 004d2d50 f   ChilkatRel:LogEntry2.obj
 0001:000d1eb0       ?OpenContext@LogEntry2@@QAEXPBD@Z 004d2eb0 f   ChilkatRel:LogEntry2.obj
 0001:000d2050       ?SetError@LogEntry2@@QAEXPBD@Z 004d3050 f   ChilkatRel:LogEntry2.obj
 0001:000d2160       ?SetXml@LogEntry2@@QAEXPBD@Z 004d3160 f   ChilkatRel:LogEntry2.obj
 0001:000d2270       ?SetInfo@LogEntry2@@QAEXPBD@Z 004d3270 f   ChilkatRel:LogEntry2.obj
 0001:000d2380       ?GetXml@LogEntry2@@QAEXAAVStringBuffer@chilkat@@@Z 004d3380 f   ChilkatRel:LogEntry2.obj
 0001:000d2660       ?GetHtml@LogEntry2@@QAEXAAVStringBuffer@chilkat@@@Z 004d3660 f   ChilkatRel:LogEntry2.obj
 0001:000d2950       ?GetText@LogEntry2@@QAEXAAVStringBuffer@chilkat@@H@Z 004d3950 f   ChilkatRel:LogEntry2.obj
 0001:000d2b60       ?needsCData@LogEntry2@@ABE_NPBD@Z 004d3b60 f   ChilkatRel:LogEntry2.obj
 0001:000d2c40       ?BZ2_hbCreateDecodeTables@ChilkatBzip2@@AAEXPAJ00PAEJJJ@Z 004d3c40 f   ChilkatRel:BzHuff.obj
 0001:000d2e10       ?huft_free@huft@@SAHPAU1@@Z 004d3e10 f   ChilkatRel:huft.obj
 0001:000d2e60       ?huft_build2@huft@@SAHPAIIIPBG1PAPAU1@PAH@Z 004d3e60 f   ChilkatRel:huft.obj
 0001:000d3700       ??0CircBuf@@QAE@XZ         004d4700 f   ChilkatRel:CircBuf.obj
 0001:000d3840       ??_ECircBuf@@UAEPAXI@Z     004d4840 f i ChilkatRel:CircBuf.obj
 0001:000d3840       ??_GCircBuf@@UAEPAXI@Z     004d4840 f i ChilkatRel:CircBuf.obj
 0001:000d3870       ?HasAtLeast2@CircBuf@@QAE_NKAAK@Z 004d4870 f   ChilkatRel:CircBuf.obj
 0001:000d3950       ?HasAtLeast@CircBuf@@QAE_NK@Z 004d4950 f   ChilkatRel:CircBuf.obj
 0001:000d3a20       ?clear@CircBuf@@QAEXXZ     004d4a20 f   ChilkatRel:CircBuf.obj
 0001:000d3be0       ??1CircBuf@@UAE@XZ         004d4be0 f   ChilkatRel:CircBuf.obj
 0001:000d3ce0       ?MoveForward@CircBuf@@QAE_NK@Z 004d4ce0 f   ChilkatRel:CircBuf.obj
 0001:000d41d0       ?checkInitializePublicPtr@CircBuf@@AAEXH@Z 004d51d0 f   ChilkatRel:CircBuf.obj
 0001:000d42a0       ?AppendDataToCircBuf@CircBuf@@QAE_NPBEK@Z 004d52a0 f   ChilkatRel:CircBuf.obj
 0001:000d44d0       ?get_Lookahead@ZeeDeflateState@@QBEIXZ 004d54d0 f   ChilkatRel:ZeeDeflateState.obj
 0001:000d44f0       ?put_CompressionLevel@ZeeDeflateState@@QAEXH@Z 004d54f0 f   ChilkatRel:ZeeDeflateState.obj
 0001:000d4530       ?ConsumePending@ZeeDeflateState@@QAEXH@Z 004d5530 f   ChilkatRel:ZeeDeflateState.obj
 0001:000d4590       ??0ZeeTreeDesc@@QAE@XZ     004d5590 f   ChilkatRel:ZeeDeflateState.obj
 0001:000d45c0       ??0ZeeStaticTreeDesc@@QAE@XZ 004d55c0 f i ChilkatRel:ZeeDeflateState.obj
 0001:000d4600       ??_GZeeDeflateState@@UAEPAXI@Z 004d5600 f i ChilkatRel:ZeeDeflateState.obj
 0001:000d4600       ??_EZeeDeflateState@@UAEPAXI@Z 004d5600 f i ChilkatRel:ZeeDeflateState.obj
 0001:000d4630       ??1ZeeDeflateState@@UAE@XZ 004d5630 f   ChilkatRel:ZeeDeflateState.obj
 0001:000d46f0       ??0ZeeDeflateState@@QAE@H_NPAVZeeStream@@@Z 004d56f0 f   ChilkatRel:ZeeDeflateState.obj
 0001:000d5340       ?tr_static_init@ZeeDeflateState@@AAEXXZ 004d6340 f   ChilkatRel:ZeeDeflateState.obj
 0001:000d5620       ?gen_codes@ZeeDeflateState@@AAEXPAUZeeCtData@@HPBG@Z 004d6620 f   ChilkatRel:ZeeDeflateState.obj
 0001:000d5700       ?bi_reverse@ZeeDeflateState@@AAEIIH@Z 004d6700 f   ChilkatRel:ZeeDeflateState.obj
 0001:000d5750       ?init_block@ZeeDeflateState@@AAEXXZ 004d6750 f   ChilkatRel:ZeeDeflateState.obj
 0001:000d5830       ?ClearHash@ZeeDeflateState@@QAEXXZ 004d6830 f   ChilkatRel:ZeeDeflateState.obj
 0001:000d5860       ?lm_init@ZeeDeflateState@@AAEXXZ 004d6860 f   ChilkatRel:ZeeDeflateState.obj
 0001:000d5b50       ?tr_align@ZeeDeflateState@@QAEXXZ 004d6b50 f   ChilkatRel:ZeeDeflateState.obj
 0001:000d6030       ?bi_flush@ZeeDeflateState@@AAEXXZ 004d7030 f   ChilkatRel:ZeeDeflateState.obj
 0001:000d6120       ?tr_stored_block@ZeeDeflateState@@QAEXPBDKH@Z 004d7120 f   ChilkatRel:ZeeDeflateState.obj
 0001:000d6290       ?copy_block@ZeeDeflateState@@AAEXPBDIH@Z 004d7290 f   ChilkatRel:ZeeDeflateState.obj
 0001:000d63a0       ?bi_windup@ZeeDeflateState@@AAEXXZ 004d73a0 f   ChilkatRel:ZeeDeflateState.obj
 0001:000d6460       ?deflate_stored@ZeeDeflateState@@QAEHH@Z 004d7460 f   ChilkatRel:ZeeDeflateState.obj
 0001:000d6610       ?fill_window@ZeeDeflateState@@AAEXXZ 004d7610 f   ChilkatRel:ZeeDeflateState.obj
 0001:000d6830       ?tr_flush_block@ZeeDeflateState@@QAEKPBDKH@Z 004d7830 f   ChilkatRel:ZeeDeflateState.obj
 0001:000d6c00       ?build_tree@ZeeDeflateState@@AAEXPAVZeeTreeDesc@@@Z 004d7c00 f   ChilkatRel:ZeeDeflateState.obj
 0001:000d6f90       ?build_bl_tree@ZeeDeflateState@@AAEHXZ 004d7f90 f   ChilkatRel:ZeeDeflateState.obj
 0001:000d7080       ?compress_block@ZeeDeflateState@@AAEXPBUZeeCtData@@0@Z 004d8080 f   ChilkatRel:ZeeDeflateState.obj
 0001:000d7880       ?send_all_trees@ZeeDeflateState@@AAEXHHH@Z 004d8880 f   ChilkatRel:ZeeDeflateState.obj
 0001:000d7d80       ?pqdownheap@ZeeDeflateState@@AAEXPBUZeeCtData@@H@Z 004d8d80 f   ChilkatRel:ZeeDeflateState.obj
 0001:000d7f10       ?gen_bitlen@ZeeDeflateState@@AAEXPBVZeeTreeDesc@@@Z 004d8f10 f   ChilkatRel:ZeeDeflateState.obj
 0001:000d8230       ?scan_tree@ZeeDeflateState@@AAEXPBUZeeCtData@@H@Z 004d9230 f   ChilkatRel:ZeeDeflateState.obj
 0001:000d83d0       ?send_tree@ZeeDeflateState@@AAEXPBUZeeCtData@@H@Z 004d93d0 f   ChilkatRel:ZeeDeflateState.obj
 0001:000d8e40       ?deflate_fast@ZeeDeflateState@@QAEHH@Z 004d9e40 f   ChilkatRel:ZeeDeflateState.obj
 0001:000d9200       ?longest_match@ZeeDeflateState@@AAEII@Z 004da200 f   ChilkatRel:ZeeDeflateState.obj
 0001:000d9510       ?tr_tally@ZeeDeflateState@@AAEHII@Z 004da510 f   ChilkatRel:ZeeDeflateState.obj
 0001:000d9700       ?checkInitialize@DnsCache@@SAXXZ 004da700 f   ChilkatRel:DnsCache.obj
 0001:000d9800       ?dnsCacheLookup@DnsCache@@SA_NPBDAAVStringBuffer@chilkat@@@Z 004da800 f   ChilkatRel:DnsCache.obj
 0001:000d98c0       ?dnsCacheInsert@DnsCache@@SAXPBD0@Z 004da8c0 f   ChilkatRel:DnsCache.obj
 0001:000d9a10       ??0CLogFile@@QAE@H@Z       004daa10 f   mfcexts:LogFile.obj
 0001:000d9a30       ??1CLogFile@@QAE@XZ        004daa30 f   mfcexts:LogFile.obj
 0001:000d9c10       ?Write@CLogFile@@QAEXPBDHH@Z 004dac10 f   mfcexts:LogFile.obj
 0001:000d9ce0       ?Format@CLogFile@@QAAXPBDZZ 004dace0 f   mfcexts:LogFile.obj
 0001:000d9d40       ?Open@CLogFile@@QAEHPBD@Z  004dad40 f   mfcexts:LogFile.obj
 0001:000da040       ?Deinitialise@CMapiSession@@IAEXXZ 004db040 f   mfcexts:MapiMail.obj
 0001:000da080       ?Logoff@CMapiSession@@QAEHXZ 004db080 f   mfcexts:MapiMail.obj
 0001:000da0b0       ?AfxGetMainWnd@@YGPAVCWnd@@XZ 004db0b0 f i mfcexts:MapiMail.obj
 0001:000da0d0       ?Initialise@CMapiSession@@IAEXXZ 004db0d0 f   mfcexts:MapiMail.obj
 0001:000da1d0       ?Logon@CMapiSession@@QAEHABV?$CStringT@DV?$StrTraitMFC@DV?$ChTraitsCRT@D@ATL@@@@@ATL@@0PAVCWnd@@@Z 004db1d0 f   mfcexts:MapiMail.obj
 0001:000da290       ??0CMapiSession@@QAE@XZ    004db290 f   mfcexts:MapiMail.obj
 0001:000da2d0       ??1CMapiSession@@QAE@XZ    004db2d0 f   mfcexts:MapiMail.obj
 0001:000da370       ?Send@CMapiSession@@QAEHAAVCMapiMsg@@@Z 004db370 f   mfcexts:MapiMail.obj
 0001:000da7d0       ?Create@CImageListEx@@QAEXXZ 004db7d0 f   mfcexts:ImageListEx.obj
 0001:000da7e0       ?GetModuleHandleA@CDllIsolationWrapperBase@@QAEPAUHINSTANCE__@@XZ 004db7e0 f i mfcexts:ImageListEx.obj
 0001:000da820       ?GetProcAddress_ImageList_AddMasked@CComCtlWrapper@@QAE?AUImageList_AddMasked_Type@1@XZ 004db820 f i mfcexts:ImageListEx.obj
 0001:000da880       ?_ImageList_AddMasked@CComCtlWrapper@@QAEHPAU_IMAGELIST@@PAUHBITMAP__@@K@Z 004db880 f i mfcexts:ImageListEx.obj
 0001:000da970       ??1CGdiObject@@UAE@XZ      004db970 f i mfcexts:ImageListEx.obj
 0001:000daa80       ??1CBitmap@@UAE@XZ         004dba80 f i mfcexts:ImageListEx.obj
 0001:000daa90       ?AddBitmap@CImageListEx@@QAEHI@Z 004dba90 f   mfcexts:ImageListEx.obj
 0001:000dab40       ??_ECGdiObject@@UAEPAXI@Z  004dbb40 f i mfcexts:ImageListEx.obj
 0001:000dab40       ??_GCGdiObject@@UAEPAXI@Z  004dbb40 f i mfcexts:ImageListEx.obj
 0001:000dab60       ??_ECBitmap@@UAEPAXI@Z     004dbb60 f i mfcexts:ImageListEx.obj
 0001:000dab60       ??_GCBitmap@@UAEPAXI@Z     004dbb60 f i mfcexts:ImageListEx.obj
 0001:000dab90       ?XToScreen@CDlgUnit@@QAEHH@Z 004dbb90 f   mfcexts:DlgUnits.obj
 0001:000dabb0       ?YToScreen@CDlgUnit@@QAEHH@Z 004dbbb0 f   mfcexts:DlgUnits.obj
 0001:000dabd0       ??0CDlgUnit@@QAE@PAVCDialog@@@Z 004dbbd0 f   mfcexts:DlgUnits.obj
 0001:000dac50       ?FindSeparator@@YAHPBDD@Z  004dbc50 f   mfcexts:Utils.obj
 0001:000dadb0       ?GetMenuItemID@CMenu@@QBEIH@Z 004dbdb0 f i mfcexts:Utils.obj
 0001:000dadd0       ?GetSubMenu@CMenu@@QBEPAV1@H@Z 004dbdd0 f i mfcexts:Utils.obj
 0001:000dadf0       ?MatchString@@YAHPBD0@Z    004dbdf0 f   mfcexts:Utils.obj
 0001:000dae80       ?FormatDateIntl@@YA?AV?$CStringT@DV?$StrTraitMFC@DV?$ChTraitsCRT@D@ATL@@@@@ATL@@HHHD@Z 004dbe80 f   mfcexts:Utils.obj
 0001:000dafc0       ?TimeToString@@YA?AV?$CStringT@DV?$StrTraitMFC@DV?$ChTraitsCRT@D@ATL@@@@@ATL@@ABVCTime@2@H@Z 004dbfc0 f   mfcexts:Utils.obj
 0001:000db140       ??HATL@@YA?AV?$CStringT@DV?$StrTraitMFC@DV?$ChTraitsCRT@D@ATL@@@@@0@ABV10@D@Z 004dc140 f i mfcexts:Utils.obj
 0001:000db210       ?BreakString@@YA?AV?$CStringT@DV?$StrTraitMFC@DV?$ChTraitsCRT@D@ATL@@@@@ATL@@AAV12@DHHH@Z 004dc210 f   mfcexts:Utils.obj
 0001:000db3f0       ?TitleCase@@YA?AV?$CStringT@DV?$StrTraitMFC@DV?$ChTraitsCRT@D@ATL@@@@@ATL@@ABV12@@Z 004dc3f0 f   mfcexts:Utils.obj
 0001:000db540       ?EndWithBackslash@@YAPBDAAV?$CStringT@DV?$StrTraitMFC@DV?$ChTraitsCRT@D@ATL@@@@@ATL@@@Z 004dc540 f   mfcexts:Utils.obj
 0001:000db580       ?HandleWin32Error@@YAXPAVCWnd@@PBD1@Z 004dc580 f   mfcexts:Utils.obj
 0001:000db750       ?SplitURL@@YAXPBDAAV?$CStringT@DV?$StrTraitMFC@DV?$ChTraitsCRT@D@ATL@@@@@ATL@@1@Z 004dc750 f   mfcexts:Utils.obj
 0001:000db840       ?GetAlternatePathName@@YA?AV?$CStringT@DV?$StrTraitMFC@DV?$ChTraitsCRT@D@ATL@@@@@ATL@@PBD@Z 004dc840 f   mfcexts:Utils.obj
 0001:000db9e0       ?DateToString@@YA?AV?$CStringT@DV?$StrTraitMFC@DV?$ChTraitsCRT@D@ATL@@@@@ATL@@ABVCTime@2@D@Z 004dc9e0 f   mfcexts:Utils.obj
 0001:000dba90       ?DateTimeToString@@YA?AV?$CStringT@DV?$StrTraitMFC@DV?$ChTraitsCRT@D@ATL@@@@@ATL@@ABVCTime@2@HD@Z 004dca90 f   mfcexts:Utils.obj
 0001:000dbc80       ?StringToDate@@YA?AVCTime@ATL@@PBDD@Z 004dcc80 f   mfcexts:Utils.obj
 0001:000dc380       ?MakePathName@@YA?AV?$CStringT@DV?$StrTraitMFC@DV?$ChTraitsCRT@D@ATL@@@@@ATL@@PBD0@Z 004dd380 f   mfcexts:Utils.obj
 0001:000dc420       ?GetComputerNameA@@YA?AV?$CStringT@DV?$StrTraitMFC@DV?$ChTraitsCRT@D@ATL@@@@@ATL@@XZ 004dd420 f   mfcexts:Utils.obj
 0001:000dc480       ?ListToString@@YA?AV?$CStringT@DV?$StrTraitMFC@DV?$ChTraitsCRT@D@ATL@@@@@ATL@@ABV?$CDynaList@V?$CStringT@DV?$StrTraitMFC@DV?$ChTraitsCRT@D@ATL@@@@@ATL@@@@D@Z 004dd480 f   mfcexts:Utils.obj
 0001:000dc580       ?ListFromString@@YAKAAV?$CDynaList@V?$CStringT@DV?$StrTraitMFC@DV?$ChTraitsCRT@D@ATL@@@@@ATL@@@@PBDD@Z 004dd580 f   mfcexts:Utils.obj
 0001:000dc7d0       ?SplitString@@YAXAAV?$CStringT@DV?$StrTraitMFC@DV?$ChTraitsCRT@D@ATL@@@@@ATL@@DAAVCStringArray@@@Z 004dd7d0 f   mfcexts:Utils.obj
 0001:000dca10       ?DecodeDigitalProductKey@@YA?AV?$CStringT@DV?$StrTraitMFC@DV?$ChTraitsCRT@D@ATL@@@@@ATL@@AAVCByteArray@@_N@Z 004dda10 f   mfcexts:Utils.obj
 0001:000dccc0       ?GetItemInt@CReg@@SAKPAUHKEY__@@PBD1@Z 004ddcc0 f   mfcexts:Registry.obj
 0001:000dcd70       ??0CReg@@QAE@XZ            004ddd70 f   mfcexts:Registry.obj
 0001:000dcd90       ?Close@CReg@@QAEXXZ        004ddd90 f   mfcexts:Registry.obj
 0001:000dcdc0       ?GetItemBinary@CReg@@SAHPAUHKEY__@@PBD1AAVCByteArray@@@Z 004dddc0 f   mfcexts:Registry.obj
 0001:000dce90       ??1CReg@@QAE@XZ            004dde90 f   mfcexts:Registry.obj
 0001:000dcea0       ?Open@CReg@@QAEHPAUHKEY__@@PBD@Z 004ddea0 f   mfcexts:Registry.obj
 0001:000dcf00       ?GetItemString@CReg@@SA?AV?$CStringT@DV?$StrTraitMFC@DV?$ChTraitsCRT@D@ATL@@@@@ATL@@PAUHKEY__@@PBD1@Z 004ddf00 f   mfcexts:Registry.obj
 0001:000dd070       ?ReadValueStr@CReg@@QBE?AV?$CStringT@DV?$StrTraitMFC@DV?$ChTraitsCRT@D@ATL@@@@@ATL@@PBD@Z 004de070 f   mfcexts:Registry.obj
 0001:000dd190       ?EnumSubKeys@CReg@@QBEKAAV?$CDynaList@V?$CStringT@DV?$StrTraitMFC@DV?$ChTraitsCRT@D@ATL@@@@@ATL@@@@@Z 004de190 f   mfcexts:Registry.obj
 0001:000dd290       ??0SECFileSystem@@QAE@XZ   004de290 f   mfcexts:filesys.obj
 0001:000dd2b0       ??1SECFileSystem@@UAE@XZ   004de2b0 f   mfcexts:filesys.obj
 0001:000dd2c0       ?MakeDirectory@SECFileSystem@@QAEHABV?$CStringT@DV?$StrTraitMFC@DV?$ChTraitsCRT@D@ATL@@@@@ATL@@@Z 004de2c0 f   mfcexts:filesys.obj
 0001:000dd300       ?DirectoryExists@SECFileSystem@@QAEHABV?$CStringT@DV?$StrTraitMFC@DV?$ChTraitsCRT@D@ATL@@@@@ATL@@@Z 004de300 f   mfcexts:filesys.obj
 0001:000dd330       ??_ESECFileSystem@@UAEPAXI@Z 004de330 f i mfcexts:filesys.obj
 0001:000dd330       ??_GSECFileSystem@@UAEPAXI@Z 004de330 f i mfcexts:filesys.obj
 0001:000dd350       ??_G?$CStringT@DV?$StrTraitMFC@DV?$ChTraitsCRT@D@ATL@@@@@ATL@@QAEPAXI@Z 004de350 f i mfcexts:filesys.obj
 0001:000dd390       ?GetBufferSetLength@?$CSimpleStringT@D$0A@@ATL@@QAEPADH@Z 004de390 f i mfcexts:filesys.obj
 0001:000dd3e0       ?MakePath@SECFileSystem@@QAEHABV?$CStringT@DV?$StrTraitMFC@DV?$ChTraitsCRT@D@ATL@@@@@ATL@@@Z 004de3e0 f   mfcexts:filesys.obj
 0001:000dd710       ?GetRuntimeClass@CTrayIcon@@UBEPAUCRuntimeClass@@XZ 004de710 f   mfcexts:TRAYICON.obj
 0001:000dd720       ?RemoveIcon@CTrayIcon@@QAEXXZ 004de720 f   mfcexts:TRAYICON.obj
 0001:000dd750       ?SetIcon@CTrayIcon@@QAEHPAUHICON__@@@Z 004de750 f   mfcexts:TRAYICON.obj
 0001:000dd780       ??1CMenu@@UAE@XZ           004de780 f i mfcexts:TRAYICON.obj
 0001:000dd790       ??0CTrayIcon@@QAE@XZ       004de790 f   mfcexts:TRAYICON.obj
 0001:000dd7c0       ?Create@CTrayIcon@@QAEHPAVCWnd@@IPBDPAUHICON__@@I@Z 004de7c0 f   mfcexts:TRAYICON.obj
 0001:000dd870       ??1CTrayIcon@@UAE@XZ       004de870 f   mfcexts:TRAYICON.obj
 0001:000dd880       ?SetIcon@CTrayIcon@@QAEHI@Z 004de880 f   mfcexts:TRAYICON.obj
 0001:000dd8b0       ?OnTrayNotification@CTrayIcon@@UAEJIJ@Z 004de8b0 f   mfcexts:TRAYICON.obj
 0001:000dda80       ??_ECMenu@@UAEPAXI@Z       004dea80 f i mfcexts:TRAYICON.obj
 0001:000dda80       ??_GCMenu@@UAEPAXI@Z       004dea80 f i mfcexts:TRAYICON.obj
 0001:000ddab0       ??_ECTrayIcon@@UAEPAXI@Z   004deab0 f i mfcexts:TRAYICON.obj
 0001:000ddab0       ??_GCTrayIcon@@UAEPAXI@Z   004deab0 f i mfcexts:TRAYICON.obj
 0001:000ddad0       ?x_ReleasePos@CMarkup@@IAEHXZ 004dead0 f   mfcexts:Markup.obj
 0001:000ddae0       ??$CopyElements@UElemPos@CMarkup@@@@YGXPAUElemPos@CMarkup@@PBU01@H@Z 004deae0 f i mfcexts:Markup.obj
 0001:000ddb20       ?Match@TokenPos@CMarkup@@QAE_NPBD@Z 004deb20 f i mfcexts:Markup.obj
 0001:000ddb70       ?IntoElem@CMarkup@@QAE_NXZ 004deb70 f   mfcexts:Markup.obj
 0001:000ddba0       ?x_FindChar@CMarkup@@KA_NPBDAAHD@Z 004deba0 f   mfcexts:Markup.obj
 0001:000ddbf0       ?x_FindAny@CMarkup@@KA_NPBDAAH@Z 004debf0 f   mfcexts:Markup.obj
 0001:000ddc40       ?x_FindToken@CMarkup@@KA_NAAUTokenPos@1@@Z 004dec40 f   mfcexts:Markup.obj
 0001:000ddd20       ?x_ParseNode@CMarkup@@IAEHAAUTokenPos@1@@Z 004ded20 f   mfcexts:Markup.obj
 0001:000dde60       ??A?$CArray@UElemPos@CMarkup@@AAU12@@@QBEABUElemPos@CMarkup@@H@Z 004dee60 f i mfcexts:Markup.obj
 0001:000dde60       ??A?$CArray@UElemPos@CMarkup@@AAU12@@@QAEAAUElemPos@CMarkup@@H@Z 004dee60 f i mfcexts:Markup.obj
 0001:000dde80       ?IsWellFormed@CMarkup@@QAE_NXZ 004dee80 f   mfcexts:Markup.obj
 0001:000ddea0       ?OutOfElem@CMarkup@@QAE_NXZ 004deea0 f   mfcexts:Markup.obj
 0001:000ddee0       ?x_GetFreePos@CMarkup@@IAEHXZ 004deee0 f   mfcexts:Markup.obj
 0001:000ddf10       ?x_FindElem@CMarkup@@IAEHHHPBD@Z 004def10 f   mfcexts:Markup.obj
 0001:000de030       ?x_Adjust@CMarkup@@IAEXHH_N@Z 004df030 f   mfcexts:Markup.obj
 0001:000de150       ?x_LocateNew@CMarkup@@IAEXHAAH0HH@Z 004df150 f   mfcexts:Markup.obj
 0001:000de370       ?Append@?$CArray@UElemPos@CMarkup@@AAU12@@@QAEHABV1@@Z 004df370 f i mfcexts:Markup.obj
 0001:000de3b0       ?Save@CMarkup@@QAE_NPBDV?$CStringT@DV?$StrTraitMFC@DV?$ChTraitsCRT@D@ATL@@@@@ATL@@@Z 004df3b0 f   mfcexts:Markup.obj
 0001:000de4b0       ?FindElem@CMarkup@@QAE_NPBD@Z 004df4b0 f   mfcexts:Markup.obj
 0001:000de510       ?FindChildElem@CMarkup@@QAE_NPBD@Z 004df510 f   mfcexts:Markup.obj
 0001:000de590       ?x_FindAttrib@CMarkup@@IBE_NAAUTokenPos@1@PBD@Z 004df590 f   mfcexts:Markup.obj
 0001:000de640       ?x_TextToDoc@CMarkup@@IBE?AV?$CStringT@DV?$StrTraitMFC@DV?$ChTraitsCRT@D@ATL@@@@@ATL@@PBD_N@Z 004df640 f   mfcexts:Markup.obj
 0001:000de870       ?x_TextFromDoc@CMarkup@@IBE?AV?$CStringT@DV?$StrTraitMFC@DV?$ChTraitsCRT@D@ATL@@@@@ATL@@HH@Z 004df870 f   mfcexts:Markup.obj
 0001:000dea10       ?x_DocChange@CMarkup@@IAEXHHABV?$CStringT@DV?$StrTraitMFC@DV?$ChTraitsCRT@D@ATL@@@@@ATL@@@Z 004dfa10 f   mfcexts:Markup.obj
 0001:000deb30       ??4CMarkup@@QAEXABV0@@Z    004dfb30 f   mfcexts:Markup.obj
 0001:000deb90       ?x_ParseError@CMarkup@@IAEHPBD0@Z 004dfb90 f   mfcexts:Markup.obj
 0001:000debf0       ?x_GetToken@CMarkup@@IBE?AV?$CStringT@DV?$StrTraitMFC@DV?$ChTraitsCRT@D@ATL@@@@@ATL@@ABUTokenPos@1@@Z 004dfbf0 f   mfcexts:Markup.obj
 0001:000dec50       ?x_GetTagName@CMarkup@@IBE?AV?$CStringT@DV?$StrTraitMFC@DV?$ChTraitsCRT@D@ATL@@@@@ATL@@H@Z 004dfc50 f   mfcexts:Markup.obj
 0001:000decf0       ?x_GetAttrib@CMarkup@@IBE?AV?$CStringT@DV?$StrTraitMFC@DV?$ChTraitsCRT@D@ATL@@@@@ATL@@HPBD@Z 004dfcf0 f   mfcexts:Markup.obj
 0001:000dedb0       ?x_SetAttrib@CMarkup@@IAE_NHPBD0@Z 004dfdb0 f   mfcexts:Markup.obj
 0001:000df070       ?x_GetData@CMarkup@@IBE?AV?$CStringT@DV?$StrTraitMFC@DV?$ChTraitsCRT@D@ATL@@@@@ATL@@H@Z 004e0070 f   mfcexts:Markup.obj
 0001:000df1e0       ?x_AddElem@CMarkup@@IAE_NPBD0_N1@Z 004e01e0 f   mfcexts:Markup.obj
 0001:000df8b0       ?x_ParseElem@CMarkup@@IAEHH@Z 004e08b0 f   mfcexts:Markup.obj
 0001:000dfe60       ?SetDoc@CMarkup@@QAE_NPBD@Z 004e0e60 f   mfcexts:Markup.obj
 0001:000dff60       ?Detect@COsInfo@@IAEHXZ    004e0f60 f   mfcexts:OsInfo.obj
 0001:000e0850       ??0COsInfo@@QAE@XZ         004e1850 f   mfcexts:OsInfo.obj
 0001:000e0870       ??1CWindowsSocket@@UAE@XZ  004e1870 f   mfcexts:WindowsSocket.obj
 0001:000e08a0       ??_GCWindowsSocket@@UAEPAXI@Z 004e18a0 f i mfcexts:WindowsSocket.obj
 0001:000e08a0       ??_ECWindowsSocket@@UAEPAXI@Z 004e18a0 f i mfcexts:WindowsSocket.obj
 0001:000e08c0       ??0CWindowsSocket@@QAE@XZ  004e18c0 f   mfcexts:WindowsSocket.obj
 0001:000e0950       ?GetIPAddress@CWindowsSocket@@QAEAAV?$CStringT@DV?$StrTraitMFC@DV?$ChTraitsCRT@D@ATL@@@@@ATL@@XZ 004e1950 f   mfcexts:WindowsSocket.obj
 0001:000e0ad0       ?RunCPUID@CCpuID@@QAEXAAK000@Z 004e1ad0 f   mfcexts:CpuType.obj
 0001:000e0b30       ??0CCpuType@@QAE@XZ        004e1b30 f   mfcexts:CpuType.obj
 0001:000e0b40       ?Is386@CCpuType@@IAEHXZ    004e1b40 f   mfcexts:CpuType.obj
 0001:000e0b70       ?ProcessFlags@CCpuCache@@IAEXK@Z 004e1b70 f   mfcexts:CpuType.obj
 0001:000e0c90       ??0CCpuID@@QAE@XZ          004e1c90 f   mfcexts:CpuType.obj
 0001:000e0d90       ?Detect@CCpuCache@@IAEHXZ  004e1d90 f   mfcexts:CpuType.obj
 0001:000e0e30       ?GetSize@CCpuCache@@QAEHPAH00@Z 004e1e30 f   mfcexts:CpuType.obj
 0001:000e0e70       ?TrimSpeeds@CCpuType@@IAE?AV?$CStringT@DV?$StrTraitMFC@DV?$ChTraitsCRT@D@ATL@@@@@ATL@@AAV23@@Z 004e1e70 f   mfcexts:CpuType.obj
 0001:000e11c0       ?DetectCyrix@CCpuType@@IAEXXZ 004e21c0 f   mfcexts:CpuType.obj
 0001:000e1260       ?ParseBrandString@CCpuType@@IAEXAAV?$CStringT@DV?$StrTraitMFC@DV?$ChTraitsCRT@D@ATL@@@@@ATL@@@Z 004e2260 f   mfcexts:CpuType.obj
 0001:000e1430       ?IsCyrix@CCpuType@@IAEHXZ  004e2430 f   mfcexts:CpuType.obj
 0001:000e1660       ?TrimSpaces@CCpuType@@IAE?AV?$CStringT@DV?$StrTraitMFC@DV?$ChTraitsCRT@D@ATL@@@@@ATL@@AAV23@@Z 004e2660 f   mfcexts:CpuType.obj
 0001:000e1790       ?GetBrandString@CCpuType@@IAEHAAV?$CStringT@DV?$StrTraitMFC@DV?$ChTraitsCRT@D@ATL@@@@@ATL@@@Z 004e2790 f   mfcexts:CpuType.obj
 0001:000e1880       ?RationalizeName@CCpuType@@QAE?AV?$CStringT@DV?$StrTraitMFC@DV?$ChTraitsCRT@D@ATL@@@@@ATL@@AAV23@@Z 004e2880 f   mfcexts:CpuType.obj
 0001:000e1fe0       ?DetectIntel@CCpuType@@IAEXXZ 004e2fe0 f   mfcexts:CpuType.obj
 0001:000e23a0       ?DetectAMD@CCpuType@@IAEXXZ 004e33a0 f   mfcexts:CpuType.obj
 0001:000e2550       ?Detect@CCpuType@@IAEXXZ   004e3550 f   mfcexts:CpuType.obj
 0001:000e2650       ?GetLevel@CCpuType@@QAEHXZ 004e3650 f   mfcexts:CpuType.obj
 0001:000e2670       ?GetMfr@CCpuType@@QAEABV?$CStringT@DV?$StrTraitMFC@DV?$ChTraitsCRT@D@ATL@@@@@ATL@@XZ 004e3670 f   mfcexts:CpuType.obj
 0001:000e2690       ?GetType@CCpuType@@QAEABV?$CStringT@DV?$StrTraitMFC@DV?$ChTraitsCRT@D@ATL@@@@@ATL@@XZ 004e3690 f   mfcexts:CpuType.obj
 0001:000e26b0       ?GetRationalizedName@CCpuType@@QAE?BV?$CStringT@DV?$StrTraitMFC@DV?$ChTraitsCRT@D@ATL@@@@@ATL@@XZ 004e36b0 f   mfcexts:CpuType.obj
 0001:000e27c0       ??0CCpuSpeed@@QAE@XZ       004e37c0 f   mfcexts:CpuSpeed.obj
 0001:000e27d0       ??1CCpuSpeed@@QAE@XZ       004e37d0 f   mfcexts:CpuSpeed.obj
 0001:000e27d0       ??1CCpuType@@QAE@XZ        004e37d0 f   mfcexts:CpuType.obj
 0001:000e27d0       ??1COsInfo@@QAE@XZ         004e37d0 f   mfcexts:OsInfo.obj
 0001:000e27e0       ?GetTickCount@CCpuSpeed@@IAE?AT_LARGE_INTEGER@@XZ 004e37e0 f   mfcexts:CpuSpeed.obj
 0001:000e2820       ?TestLoop@CCpuSpeed@@IAEGXZ 004e3820 f   mfcexts:CpuSpeed.obj
 0001:000e2860       ?NormaliseSpeed@CCpuSpeed@@QAEHH@Z 004e3860 f   mfcexts:CpuSpeed.obj
 0001:000e2ab0       ?TestRDTSC@CCpuSpeed@@IAEKK@Z 004e3ab0 f   mfcexts:CpuSpeed.obj
 0001:000e2bd0       ?DetectByTimedLoop@CCpuSpeed@@IAEKXZ 004e3bd0 f   mfcexts:CpuSpeed.obj
 0001:000e2cd0       ?DetectByRDTSC@CCpuSpeed@@IAEKXZ 004e3cd0 f   mfcexts:CpuSpeed.obj
 0001:000e2d80       ?Detect@CCpuSpeed@@IAEXXZ  004e3d80 f   mfcexts:CpuSpeed.obj
 0001:000e2e90       ?GetMHz@CCpuSpeed@@QAEHXZ  004e3e90 f   mfcexts:CpuSpeed.obj
 0001:000e2eb9       ?AfxNewHandler@@YAHI@Z     004e3eb9 f   nafxcw:afxmem.obj
 0001:000e2ebe       ?AfxSetNewHandler@@YGP6AHI@ZP6AHI@Z@Z 004e3ebe f   nafxcw:afxmem.obj
 0001:000e2ed5       ??2@YAPAXI@Z               004e3ed5 f   nafxcw:afxmem.obj
 0001:000e2f04       ??_U@YAPAXI@Z              004e3f04 f   nafxcw:afxmem.obj
 0001:000e2f0f       ??_V@YAXPAX@Z              004e3f0f f   nafxcw:afxmem.obj
 0001:000e2f0f       ??3@YAXPAX@Z               004e3f0f f   nafxcw:afxmem.obj
 0001:000e2f1a       ?AfxPropPageCallback@@YGIPAUHWND__@@IPAU_PROPSHEETPAGEA@@@Z 004e3f1a f   nafxcw:dlgprop.obj
 0001:000e2f59       ?AllocPSP@CPropertyPage@@IAEXK@Z 004e3f59 f   nafxcw:dlgprop.obj
 0001:000e2f96       ?Cleanup@CPropertyPage@@IAEXXZ 004e3f96 f   nafxcw:dlgprop.obj
 0001:000e2fc5       ?InitDialogInfo@CPropertyPage@@IAEPBUDLGTEMPLATE@@PBU2@@Z 004e3fc5 f   nafxcw:dlgprop.obj
 0001:000e2ff7       ?OnApply@CPropertyPage@@UAEHXZ 004e3ff7 f   nafxcw:dlgprop.obj
 0001:000e3003       ?OnSetActive@CPropertyPage@@UAEHXZ 004e4003 f   nafxcw:dlgprop.obj
 0001:000e3019       ?OnKillActive@CPropertyPage@@UAEHXZ 004e4019 f   nafxcw:dlgprop.obj
 0001:000e3027       ?GetTypeInfoCount@CCmdTarget@@UAEIXZ 004e4027 f   nafxcw:cmdtarg.obj
 0001:000e3027       ?InitInstance@CWinThread@@UAEHXZ 004e4027 f   nafxcw:thrdcore.obj
 0001:000e3027       ?GetTypeLibCache@CCmdTarget@@UAEPAVCTypeLibCache@@XZ 004e4027 f   nafxcw:cmdtarg.obj
 0001:000e3027       ?OnWizardNext@CPropertyPage@@UAEJXZ 004e4027 f   nafxcw:dlgprop.obj
 0001:000e3027       ?OnWizardBack@CPropertyPage@@UAEJXZ 004e4027 f   nafxcw:dlgprop.obj
 0001:000e3027       __matherr                  004e4027 f   libcmt:_matherr_.obj
 0001:000e3027       ?GetOccDialogInfo@CWnd@@MAEPAU_AFX_OCC_DIALOG_INFO@@XZ 004e4027 f   nafxcw:wincore.obj
 0001:000e3027       ?IsFrameWnd@CWnd@@UBEHXZ   004e4027 f   nafxcw:wincore.obj
 0001:000e302a       ?OnWizardFinishEx@CPropertyPage@@UAEPAUHWND__@@XZ 004e402a f   nafxcw:dlgprop.obj
 0001:000e3038       ?PreTranslateMessage@CPropertyPage@@MAEHPAUtagMSG@@@Z 004e4038 f   nafxcw:dlgprop.obj
 0001:000e304b       ?OnCtlColor@CPropertyPage@@IAEPAUHBRUSH__@@PAVCDC@@PAVCWnd@@I@Z 004e404b f   nafxcw:dlgprop.obj
 0001:000e307e       ?AfxPropSheetCallback@@YGHPAUHWND__@@IJ@Z 004e407e f   nafxcw:dlgprop.obj
 0001:000e30dd       ?OnClose@CPropertySheet@@IAEXXZ 004e40dd f   nafxcw:dlgprop.obj
 0001:000e3105       ?OnNcCreate@CPropertySheet@@IAEHPAUtagCREATESTRUCTA@@@Z 004e4105 f   nafxcw:dlgprop.obj
 0001:000e3123       ?HandleInitDialog@CPropertySheet@@IAEJIJ@Z 004e4123 f   nafxcw:dlgprop.obj
 0001:000e312e       ?OnCommand@CPropertySheet@@UAEHIJ@Z 004e412e f   nafxcw:dlgprop.obj
 0001:000e31a2       ?OnCtlColor@CPropertySheet@@IAEPAUHBRUSH__@@PAVCDC@@PAVCWnd@@I@Z 004e41a2 f   nafxcw:dlgprop.obj
 0001:000e31e0       ?GetRuntimeClass@CPropertyPage@@UBEPAUCRuntimeClass@@XZ 004e41e0 f   nafxcw:dlgprop.obj
 0001:000e31e6       ?GetRuntimeClass@CPropertySheet@@UBEPAUCRuntimeClass@@XZ 004e41e6 f   nafxcw:dlgprop.obj
 0001:000e31ec       ?GetAt@CPtrArray@@QBEPAXH@Z 004e41ec f i nafxcw:dlgprop.obj
 0001:000e320d       ?Add@CPtrArray@@QAEHPAX@Z  004e420d f i nafxcw:dlgprop.obj
 0001:000e3226       ?SendMessageA@CWnd@@QBEJIIJ@Z 004e4226 f i nafxcw:dlgprop.obj
 0001:000e3241       ?GetPage@CPropertySheet@@QBEPAVCPropertyPage@@H@Z 004e4241 f i nafxcw:dlgprop.obj
 0001:000e3261       ?GetTabControl@CPropertySheet@@QBEPAVCTabCtrl@@XZ 004e4261 f i nafxcw:dlgprop.obj
 0001:000e327a       ?GetItemCount@CTabCtrl@@QBEHXZ 004e427a f i nafxcw:dlgprop.obj
 0001:000e328d       ?GetCurSel@CTabCtrl@@QBEHXZ 004e428d f i nafxcw:dlgprop.obj
 0001:000e32a0       ?GetThisMessageMap@CPropertyPage@@KGPBUAFX_MSGMAP@@XZ 004e42a0 f   nafxcw:dlgprop.obj
 0001:000e32a0       ?GetMessageMap@CPropertyPage@@MBEPBUAFX_MSGMAP@@XZ 004e42a0 f   nafxcw:dlgprop.obj
 0001:000e32a6       ?OnWizardFinish@CPropertyPage@@UAEHXZ 004e42a6 f   nafxcw:dlgprop.obj
 0001:000e32fe       ?MapWizardResult@CPropertyPage@@IAEJJ@Z 004e42fe f   nafxcw:dlgprop.obj
 0001:000e336e       ?OnNotify@CPropertyPage@@MAEHIJPAJ@Z 004e436e f   nafxcw:dlgprop.obj
 0001:000e34c6       ?OnSetDefID@CPropertySheet@@IAEJIJ@Z 004e44c6 f   nafxcw:dlgprop.obj
 0001:000e358c       ?CommonConstruct@CPropertySheet@@QAEXPAVCWnd@@I@Z 004e458c f   nafxcw:dlgprop.obj
 0001:000e35f1       ?PreTranslateMessage@CPropertySheet@@UAEHPAUtagMSG@@@Z 004e45f1 f   nafxcw:dlgprop.obj
 0001:000e36c9       ?OnCmdMsg@CPropertySheet@@UAEHIHPAXPAUAFX_CMDHANDLERINFO@@@Z 004e46c9 f   nafxcw:dlgprop.obj
 0001:000e36c9       ?OnCmdMsg@CDialog@@UAEHIHPAXPAUAFX_CMDHANDLERINFO@@@Z 004e46c9 f   nafxcw:dlgcore.obj
 0001:000e3753       ?ContinueModal@CPropertySheet@@UAEHXZ 004e4753 f   nafxcw:dlgprop.obj
 0001:000e377d       ?GetPageCount@CPropertySheet@@QBEHXZ 004e477d f   nafxcw:dlgprop.obj
 0001:000e379f       ?GetActiveIndex@CPropertySheet@@QBEHXZ 004e479f f   nafxcw:dlgprop.obj
 0001:000e37be       ?OnSysCommand@CPropertySheet@@IAEXIJ@Z 004e47be f   nafxcw:dlgprop.obj
 0001:000e37fb       ?OnInitDialog@CPropertySheet@@UAEHXZ 004e47fb f   nafxcw:dlgprop.obj
 0001:000e39ce       ?GetProcAddress_CreatePropertySheetPageA@CComCtlWrapper@@QAE?AUCreatePropertySheetPageA_Type@1@XZ 004e49ce f i nafxcw:dlgprop.obj
 0001:000e39fe       ?_CreatePropertySheetPageA@CComCtlWrapper@@QAEPAU_PSP@@PBU_PROPSHEETPAGEA@@@Z 004e49fe f i nafxcw:dlgprop.obj
 0001:000e3aac       ?GetProcAddress_DestroyPropertySheetPage@CComCtlWrapper@@QAE?AUDestroyPropertySheetPage_Type@1@XZ 004e4aac f i nafxcw:dlgprop.obj
 0001:000e3adc       ?_DestroyPropertySheetPage@CComCtlWrapper@@QAEHPAU_PSP@@@Z 004e4adc f i nafxcw:dlgprop.obj
 0001:000e3b8a       ?GetProcAddress_PropertySheetA@CComCtlWrapper@@QAE?AUPropertySheetA_Type@1@XZ 004e4b8a f i nafxcw:dlgprop.obj
 0001:000e3bba       ?_PropertySheetA@CComCtlWrapper@@QAEHPBU_PROPSHEETHEADERA_V2@@@Z 004e4bba f i nafxcw:dlgprop.obj
 0001:000e3c6b       ?AfxCreatePropertySheetPageA@@YGPAU_PSP@@PBU_PROPSHEETPAGEA@@@Z 004e4c6b f i nafxcw:dlgprop.obj
 0001:000e3c86       ?AfxDestroyPropertySheetPage@@YGHPAU_PSP@@@Z 004e4c86 f i nafxcw:dlgprop.obj
 0001:000e3ca1       ?AfxPropertySheetA@@YGHPBU_PROPSHEETHEADERA_V2@@@Z 004e4ca1 f i nafxcw:dlgprop.obj
 0001:000e3cbc       ?GetActivePage@CPropertySheet@@QBEPAVCPropertyPage@@XZ 004e4cbc f   nafxcw:dlgprop.obj
 0001:000e3cef       ?DoModal@CPropertySheet@@UAEHXZ 004e4cef f   nafxcw:dlgprop.obj
 0001:000e3e89       ?Create@CPropertySheet@@UAEHPAVCWnd@@KK@Z 004e4e89 f   nafxcw:dlgprop.obj
 0001:000e3f92       ?OnKickIdle@CPropertySheet@@IAEJIJ@Z 004e4f92 f   nafxcw:dlgprop.obj
 0001:000e3fbc       ?OnCommandHelp@CPropertySheet@@IAEJIJ@Z 004e4fbc f   nafxcw:dlgprop.obj
 0001:000e3fde       ??1CPropertyPage@@UAE@XZ   004e4fde f   nafxcw:dlgprop.obj
 0001:000e4052       ?_AfxChangePropPageFont@@YGPAUDLGTEMPLATE@@PBU1@H@Z 004e5052 f   nafxcw:dlgprop.obj
 0001:000e412c       ?PreProcessPageTemplate@CPropertyPage@@IAEXAAU_PROPSHEETPAGEA@@H@Z 004e512c f   nafxcw:dlgprop.obj
 0001:000e41d1       ??1CPropertySheet@@UAE@XZ  004e51d1 f   nafxcw:dlgprop.obj
 0001:000e421f       ?BuildPropPageArray@CPropertySheet@@UAEXXZ 004e521f f   nafxcw:dlgprop.obj
 0001:000e4318       ?AddPage@CPropertySheet@@QAEXPAVCPropertyPage@@@Z 004e5318 f   nafxcw:dlgprop.obj
 0001:000e4441       ??_GCPropertyPage@@UAEPAXI@Z 004e5441 f i nafxcw:dlgprop.obj
 0001:000e4441       ??_ECPropertyPage@@UAEPAXI@Z 004e5441 f i nafxcw:dlgprop.obj
 0001:000e4462       ?GetThisMessageMap@CPropertySheet@@KGPBUAFX_MSGMAP@@XZ 004e5462 f   nafxcw:dlgprop.obj
 0001:000e4462       ?GetMessageMap@CPropertySheet@@MBEPBUAFX_MSGMAP@@XZ 004e5462 f   nafxcw:dlgprop.obj
 0001:000e4468       ??_ECPropertySheet@@UAEPAXI@Z 004e5468 f i nafxcw:dlgprop.obj
 0001:000e4468       ??_GCPropertySheet@@UAEPAXI@Z 004e5468 f i nafxcw:dlgprop.obj
 0001:000e4489       ?CommonConstruct@CPropertyPage@@IAEXPBDI@Z 004e5489 f   nafxcw:dlgprop.obj
 0001:000e4532       ??0CPropertyPage@@QAE@IIK@Z 004e5532 f   nafxcw:dlgprop.obj
 0001:000e4597       ??0CPropertyPage@@QAE@XZ   004e5597 f   nafxcw:dlgprop.obj
 0001:000e45f5       ??0CPropertySheet@@QAE@PBDPAVCWnd@@I@Z 004e55f5 f   nafxcw:dlgprop.obj
 0001:000e4665       ?GetRuntimeClass@COleException@@UBEPAUCRuntimeClass@@XZ 004e5665 f   nafxcw:olemisc.obj
 0001:000e466b       ?tcsncpy_s@Checked@ATL@@YAHPADIPBDI@Z 004e566b f i nafxcw:olemisc.obj
 0001:000e468c       ??0COleException@@QAE@XZ   004e568c f i nafxcw:olemisc.obj
 0001:000e46a4       ?AfxThrowOleException@@YGXJ@Z 004e56a4 f   nafxcw:olemisc.obj
 0001:000e46e7       ?GetErrorMessage@COleException@@UBEHPADIPAI@Z 004e56e7 f   nafxcw:olemisc.obj
 0001:000e4743       ?AtlCrtErrorCheck@ATL@@YAHH@Z 004e5743 f i nafxcw:olemisc.obj
 0001:000e477d       ??_ECOleException@@UAEPAXI@Z 004e577d f i nafxcw:olemisc.obj
 0001:000e477d       ??_GCOleException@@UAEPAXI@Z 004e577d f i nafxcw:olemisc.obj
 0001:000e479f       ?Delete@CException@@QAEXXZ 004e579f f   nafxcw:except.obj
 0001:000e47ad       ?GetErrorMessage@CException@@UAEHPADIPAI@Z 004e57ad f   nafxcw:except.obj
 0001:000e47b8       ?ReportError@CException@@UAEHII@Z 004e57b8 f   nafxcw:except.obj
 0001:000e482c       ?GetRuntimeClass@CSimpleException@@UBEPAUCRuntimeClass@@XZ 004e582c f   nafxcw:except.obj
 0001:000e4832       ?GetRuntimeClass@CMemoryException@@UBEPAUCRuntimeClass@@XZ 004e5832 f   nafxcw:except.obj
 0001:000e4838       ?GetRuntimeClass@CNotSupportedException@@UBEPAUCRuntimeClass@@XZ 004e5838 f   nafxcw:except.obj
 0001:000e483e       ?GetRuntimeClass@CInvalidArgException@@UBEPAUCRuntimeClass@@XZ 004e583e f   nafxcw:except.obj
 0001:000e4844       ?InitString@CSimpleException@@QAEXXZ 004e5844 f   nafxcw:except.obj
 0001:000e486f       ?AfxThrowMemoryException@@YGXXZ 004e586f f   nafxcw:except.obj
 0001:000e488b       ?AfxThrowNotSupportedException@@YGXXZ 004e588b f   nafxcw:except.obj
 0001:000e48a7       ?AfxThrowInvalidArgException@@YGXXZ 004e58a7 f   nafxcw:except.obj
 0001:000e48c3       ?CreateObject@?$CThreadLocal@V_AFX_THREAD_STATE@@@@SGPAVCNoTrackObject@@XZ 004e58c3 f i nafxcw:except.obj
 0001:000e48f2       ??0CException@@QAE@XZ      004e58f2 f   nafxcw:except.obj
 0001:000e48fc       ??0CException@@QAE@H@Z     004e58fc f   nafxcw:except.obj
 0001:000e490d       ?GetErrorMessage@CSimpleException@@UBEHPADIPAI@Z 004e590d f   nafxcw:except.obj
 0001:000e4961       ??1?$CThreadLocal@VAFX_MODULE_THREAD_STATE@@@@QAE@XZ 004e5961 f i nafxcw:afxstate.obj
 0001:000e4966       ?_AfxInitContextAPI@@YGXXZ 004e5966 f   nafxcw:afxstate.obj
 0001:000e49d4       ?AfxCreateActCtxW@@YGPAXPBUtagACTCTXW@@@Z 004e59d4 f   nafxcw:afxstate.obj
 0001:000e49ec       ?AfxReleaseActCtx@@YGXPAX@Z 004e59ec f   nafxcw:afxstate.obj
 0001:000e4a01       ?AfxActivateActCtx@@YGHPAXPAK@Z 004e5a01 f   nafxcw:afxstate.obj
 0001:000e4a18       ?AfxDeactivateActCtx@@YGHKK@Z 004e5a18 f   nafxcw:afxstate.obj
 0001:000e4a2f       ?AfxActivateActCtxWrapper@@YG?AW4eActCtxResult@@PAXPAK@Z 004e5a2f f   nafxcw:afxstate.obj
 0001:000e4a62       ?CreateActivationContext@AFX_MODULE_STATE@@QAEXXZ 004e5a62 f   nafxcw:afxstate.obj
 0001:000e4b5e       ?Unlock@CTypeLibCache@@QAEXXZ 004e5b5e f   nafxcw:afxstate.obj
 0001:000e4b95       ?AfxGetPerUserRegistration@@YGHXZ 004e5b95 f   nafxcw:afxstate.obj
 0001:000e4b9b       ??0_AFX_THREAD_STATE@@QAE@XZ 004e5b9b f   nafxcw:afxstate.obj
 0001:000e4bb4       ??1_AFX_THREAD_STATE@@UAE@XZ 004e5bb4 f   nafxcw:afxstate.obj
 0001:000e4beb       ??1AFX_MODULE_THREAD_STATE@@UAE@XZ 004e5beb f   nafxcw:afxstate.obj
 0001:000e4c99       ??_G_AFX_THREAD_STATE@@UAEPAXI@Z 004e5c99 f i nafxcw:afxstate.obj
 0001:000e4c99       ??_E_AFX_THREAD_STATE@@UAEPAXI@Z 004e5c99 f i nafxcw:afxstate.obj
 0001:000e4cb9       ??0AFX_MODULE_THREAD_STATE@@QAE@XZ 004e5cb9 f   nafxcw:afxstate.obj
 0001:000e4ce3       ??_GAFX_MODULE_THREAD_STATE@@UAEPAXI@Z 004e5ce3 f i nafxcw:afxstate.obj
 0001:000e4ce3       ??_EAFX_MODULE_THREAD_STATE@@UAEPAXI@Z 004e5ce3 f i nafxcw:afxstate.obj
 0001:000e4d03       ?CreateObject@?$CThreadLocal@VAFX_MODULE_THREAD_STATE@@@@SGPAVCNoTrackObject@@XZ 004e5d03 f i nafxcw:afxstate.obj
 0001:000e4d18       ?AfxGetThreadState@@YGPAV_AFX_THREAD_STATE@@XZ 004e5d18 f   nafxcw:afxstate.obj
 0001:000e4d31       ??1AFX_MODULE_STATE@@UAE@XZ 004e5d31 f   nafxcw:afxstate.obj
 0001:000e4dd4       ?GetData@?$CThreadLocal@VAFX_MODULE_THREAD_STATE@@@@QAEPAVAFX_MODULE_THREAD_STATE@@XZ 004e5dd4 f i nafxcw:afxstate.obj
 0001:000e4de8       ??0CDllIsolationWrapperBase@@QAE@ABV?$CStringT@DV?$StrTraitMFC@DV?$ChTraitsCRT@D@ATL@@@@@ATL@@@Z 004e5de8 f i nafxcw:afxstate.obj
 0001:000e4e10       ??1CDllIsolationWrapperBase@@UAE@XZ 004e5e10 f i nafxcw:afxstate.obj
 0001:000e4e36       ??0CComCtlWrapper@@QAE@XZ  004e5e36 f i nafxcw:afxstate.obj
 0001:000e505a       ??_ECShellWrapper@@UAEPAXI@Z 004e605a f i nafxcw:afxstate.obj
 0001:000e505a       ??_ECCommDlgWrapper@@UAEPAXI@Z 004e605a f i nafxcw:afxstate.obj
 0001:000e505a       ??_GCComCtlWrapper@@UAEPAXI@Z 004e605a f i nafxcw:afxstate.obj
 0001:000e505a       ??_GCShellWrapper@@UAEPAXI@Z 004e605a f i nafxcw:afxstate.obj
 0001:000e505a       ??_ECDllIsolationWrapperBase@@UAEPAXI@Z 004e605a f i nafxcw:afxstate.obj
 0001:000e505a       ??_ECComCtlWrapper@@UAEPAXI@Z 004e605a f i nafxcw:afxstate.obj
 0001:000e505a       ??_GCDllIsolationWrapperBase@@UAEPAXI@Z 004e605a f i nafxcw:afxstate.obj
 0001:000e505a       ??_GCCommDlgWrapper@@UAEPAXI@Z 004e605a f i nafxcw:afxstate.obj
 0001:000e507a       ??0CCommDlgWrapper@@QAE@XZ 004e607a f i nafxcw:afxstate.obj
 0001:000e50fd       ??0CShellWrapper@@QAE@XZ   004e60fd f i nafxcw:afxstate.obj
 0001:000e5144       ??0AFX_MODULE_STATE@@QAE@H@Z 004e6144 f   nafxcw:afxstate.obj
 0001:000e527f       ??0_AFX_BASE_MODULE_STATE@@QAE@XZ 004e627f f i nafxcw:afxstate.obj
 0001:000e5295       ??_GAFX_MODULE_STATE@@UAEPAXI@Z 004e6295 f i nafxcw:afxstate.obj
 0001:000e5295       ??_E_AFX_BASE_MODULE_STATE@@UAEPAXI@Z 004e6295 f i nafxcw:afxstate.obj
 0001:000e5295       ??_G_AFX_BASE_MODULE_STATE@@UAEPAXI@Z 004e6295 f i nafxcw:afxstate.obj
 0001:000e5295       ??_EAFX_MODULE_STATE@@UAEPAXI@Z 004e6295 f i nafxcw:afxstate.obj
 0001:000e52b5       ?CreateObject@?$CProcessLocal@V_AFX_BASE_MODULE_STATE@@@@SGPAVCNoTrackObject@@XZ 004e62b5 f i nafxcw:afxstate.obj
 0001:000e52e4       ?AfxGetModuleState@@YGPAVAFX_MODULE_STATE@@XZ 004e62e4 f   nafxcw:afxstate.obj
 0001:000e5317       ?AfxGetModuleThreadState@@YGPAVAFX_MODULE_THREAD_STATE@@XZ 004e6317 f   nafxcw:afxstate.obj
 0001:000e5330       ??0AFX_MAINTAIN_STATE2@@QAE@PAVAFX_MODULE_STATE@@@Z 004e6330 f   nafxcw:afxstate.obj
 0001:000e5368       _IsPlatformNT              004e6368 f   nafxcw:wincore.obj
 0001:000e53c2       _InitMultipleMonitorStubs  004e63c2 f   nafxcw:wincore.obj
 0001:000e54b9       _xMonitorFromRect@8        004e64b9 f   nafxcw:wincore.obj
 0001:000e550a       _xMonitorFromWindow@8      004e650a f   nafxcw:wincore.obj
 0001:000e5577       _xGetMonitorInfo@8         004e6577 f   nafxcw:wincore.obj
 0001:000e5612       ?AtlIAccessibleInvokeHelper@ATL@@YGJPAUIAccessible@@JABU_GUID@@KGPAUtagDISPPARAMS@@PAUtagVARIANT@@PAUtagEXCEPINFO@@PAI@Z 004e6612 f i nafxcw:wincore.obj
 0001:000e5bde       ?AtlIAccessibleGetIDsOfNamesHelper@ATL@@YGJABU_GUID@@PAPA_WIKPAJ@Z 004e6bde f i nafxcw:wincore.obj
 0001:000e5c40       ??0CWnd@@AAE@PAUHWND__@@@Z 004e6c40 f   nafxcw:wincore.obj
 0001:000e5c8b       ?_AfxModifyStyle@@YGHPAUHWND__@@HKKI@Z 004e6c8b f   nafxcw:wincore.obj
 0001:000e5cdd       ?ModifyStyle@CWnd@@SGHPAUHWND__@@KKI@Z 004e6cdd f   nafxcw:wincore.obj
 0001:000e5cf9       ?ModifyStyleEx@CWnd@@SGHPAUHWND__@@KKI@Z 004e6cf9 f   nafxcw:wincore.obj
 0001:000e5d15       ?GetMenu@CWnd@@UBEPAVCMenu@@XZ 004e6d15 f   nafxcw:wincore.obj
 0001:000e5d25       ?OnFinalRelease@CWnd@@UAEXXZ 004e6d25 f   nafxcw:wincore.obj
 0001:000e5d36       ?DefWindowProcA@CWnd@@MAEJIIJ@Z 004e6d36 f   nafxcw:wincore.obj
 0001:000e5d7f       ?GetSuperWndProcAddr@CWnd@@MAEPAP6GJPAUHWND__@@IIJ@ZXZ 004e6d7f f   nafxcw:wincore.obj
 0001:000e5d83       ?PreTranslateMessage@CWnd@@UAEHPAUtagMSG@@@Z 004e6d83 f   nafxcw:wincore.obj
 0001:000e5da4       ?OnToolHitTest@CWnd@@UBEHVCPoint@@PAUtagTOOLINFOA@@@Z 004e6da4 f   nafxcw:wincore.obj
 0001:000e5e17       ?AfxFindMessageEntry@@YGPBUAFX_MSGMAP_ENTRY@@PBU1@III@Z 004e6e17 f   nafxcw:wincore.obj
 0001:000e5e59       ?WindowProc@CWnd@@MAEJIIJ@Z 004e6e59 f   nafxcw:wincore.obj
 0001:000e5e9f       ??0CTestCmdUI@@QAE@XZ      004e6e9f f   nafxcw:wincore.obj
 0001:000e5eba       ?Enable@CTestCmdUI@@UAEXH@Z 004e6eba f   nafxcw:wincore.obj
 0001:000e5ed0       ?SetCheck@CTestCmdUI@@UAEXH@Z 004e6ed0 f   nafxcw:wincore.obj
 0001:000e5ed0       ?MeasureItem@CMenu@@UAEXPAUtagMEASUREITEMSTRUCT@@@Z 004e6ed0 f   nafxcw:winmenu.obj
 0001:000e5ed0       ?DrawItem@CListBox@@UAEXPAUtagDRAWITEMSTRUCT@@@Z 004e6ed0 f   nafxcw:winctrl1.obj
 0001:000e5ed0       ?DoDataExchange@CPageScanning@@MAEXPAVCDataExchange@@@Z 004e6ed0 f   PageScanning.obj
 0001:000e5ed0       ?OnSetFont@CDialog@@UAEXPAVCFont@@@Z 004e6ed0 f   nafxcw:dlgcore.obj
 0001:000e5ed0       ?DrawItem@CMenu@@UAEXPAUtagDRAWITEMSTRUCT@@@Z 004e6ed0 f   nafxcw:winmenu.obj
 0001:000e5ed0       ?SetRadio@CTestCmdUI@@UAEXH@Z 004e6ed0 f   nafxcw:wincore.obj
 0001:000e5ed0       ?DeleteItem@CListBox@@UAEXPAUtagDELETEITEMSTRUCT@@@Z 004e6ed0 f   nafxcw:winctrl1.obj
 0001:000e5ed0       ?MeasureItem@CListBox@@UAEXPAUtagMEASUREITEMSTRUCT@@@Z 004e6ed0 f   nafxcw:winctrl1.obj
 0001:000e5ed0       ?Serialize@CObject@@UAEXAAVCArchive@@@Z 004e6ed0 f   PageBasicInformation.obj
 0001:000e5ed0       ?DoDataExchange@CWnd@@MAEXPAVCDataExchange@@@Z 004e6ed0 f   PageBasicInformation.obj
 0001:000e5ed0       ?SetText@CTestCmdUI@@UAEXPBD@Z 004e6ed0 f   nafxcw:wincore.obj
 0001:000e5ed3       ?CalcWindowRect@CWnd@@UAEXPAUtagRECT@@I@Z 004e6ed3 f   nafxcw:wincore.obj
 0001:000e5f04       ?GetInterfaceMap@CWnd@@MBEPBUAFX_INTERFACEMAP@@XZ 004e6f04 f   nafxcw:wincore.obj
 0001:000e5f0a       ?GetIDsOfNames@XAccessible@CWnd@@UAGJABU_GUID@@PAPA_WIKPAJ@Z 004e6f0a f   nafxcw:wincore.obj
 0001:000e5f27       ?GetTypeInfoCount@XAccessible@CWnd@@UAGJPAI@Z 004e6f27 f   nafxcw:wincore.obj
 0001:000e5f46       ?GetTypeInfo@XAccessible@CWnd@@UAGJIKPAPAUITypeInfo@@@Z 004e6f46 f   nafxcw:wincore.obj
 0001:000e5f4e       ?GetEnumVariant@XAccessibleServer@CWnd@@UAGJPAPAUIEnumVARIANT@@@Z 004e6f4e f   nafxcw:wincore.obj
 0001:000e5f6d       ?EnsureStdObj@CWnd@@UAEJXZ 004e6f6d f   nafxcw:wincore.obj
 0001:000e5f8c       ?get_accParent@CWnd@@UAEJPAPAUIDispatch@@@Z 004e6f8c f   nafxcw:wincore.obj
 0001:000e5fa1       ?get_accChildCount@CWnd@@UAEJPAJ@Z 004e6fa1 f   nafxcw:wincore.obj
 0001:000e5fb6       ?get_accChild@CWnd@@UAEJUtagVARIANT@@PAPAUIDispatch@@@Z 004e6fb6 f   nafxcw:wincore.obj
 0001:000e5fdb       ?get_accName@CWnd@@UAEJUtagVARIANT@@PAPA_W@Z 004e6fdb f   nafxcw:wincore.obj
 0001:000e6000       ?get_accValue@CWnd@@UAEJUtagVARIANT@@PAPA_W@Z 004e7000 f   nafxcw:wincore.obj
 0001:000e6025       ?get_accDescription@CWnd@@UAEJUtagVARIANT@@PAPA_W@Z 004e7025 f   nafxcw:wincore.obj
 0001:000e604a       ?get_accRole@CWnd@@UAEJUtagVARIANT@@PAU2@@Z 004e704a f   nafxcw:wincore.obj
 0001:000e606f       ?get_accState@CWnd@@UAEJUtagVARIANT@@PAU2@@Z 004e706f f   nafxcw:wincore.obj
 0001:000e6094       ?get_accHelp@CWnd@@UAEJUtagVARIANT@@PAPA_W@Z 004e7094 f   nafxcw:wincore.obj
 0001:000e60b9       ?get_accHelpTopic@CWnd@@UAEJPAPA_WUtagVARIANT@@PAJ@Z 004e70b9 f   nafxcw:wincore.obj
 0001:000e60e1       ?get_accKeyboardShortcut@CWnd@@UAEJUtagVARIANT@@PAPA_W@Z 004e70e1 f   nafxcw:wincore.obj
 0001:000e6106       ?get_accFocus@CWnd@@UAEJPAUtagVARIANT@@@Z 004e7106 f   nafxcw:wincore.obj
 0001:000e611b       ?get_accSelection@CWnd@@UAEJPAUtagVARIANT@@@Z 004e711b f   nafxcw:wincore.obj
 0001:000e6130       ?get_accDefaultAction@CWnd@@UAEJUtagVARIANT@@PAPA_W@Z 004e7130 f   nafxcw:wincore.obj
 0001:000e6155       ?accSelect@CWnd@@UAEJJUtagVARIANT@@@Z 004e7155 f   nafxcw:wincore.obj
 0001:000e617a       ?accLocation@CWnd@@UAEJPAJ000UtagVARIANT@@@Z 004e717a f   nafxcw:wincore.obj
 0001:000e61a8       ?accNavigate@CWnd@@UAEJJUtagVARIANT@@PAU2@@Z 004e71a8 f   nafxcw:wincore.obj
 0001:000e61d0       ??3CObject@@SGXPAX0@Z      004e71d0 f i nafxcw:wincore.obj
 0001:000e61e2       ?accHitTest@CWnd@@UAEJJJPAUtagVARIANT@@@Z 004e71e2 f   nafxcw:wincore.obj
 0001:000e61fd       ?accDoDefaultAction@CWnd@@UAEJUtagVARIANT@@@Z 004e71fd f   nafxcw:wincore.obj
 0001:000e621f       ?put_accValue@CWnd@@UAEJUtagVARIANT@@PA_W@Z 004e721f f   nafxcw:wincore.obj
 0001:000e621f       ?put_accName@CWnd@@UAEJUtagVARIANT@@PA_W@Z 004e721f f   nafxcw:wincore.obj
 0001:000e6244       ?SetProxy@CWnd@@UAEJPAUIAccessibleProxy@@@Z 004e7244 f   nafxcw:wincore.obj
 0001:000e6255       ?PreTranslateInput@CWnd@@QAEHPAUtagMSG@@@Z 004e7255 f   nafxcw:wincore.obj
 0001:000e628a       ?ContinueModal@CWnd@@UAEHXZ 004e728a f   nafxcw:wincore.obj
 0001:000e6291       ?IsTracking@CFrameWnd@@QBEHXZ 004e7291 f   nafxcw:wincore.obj
 0001:000e62b0       ?CreateControlContainer@CWnd@@MAEHPAPAVCOleControlContainer@@@Z 004e72b0 f   nafxcw:wincore.obj
 0001:000e62cb       ?CreateControlSite@CWnd@@MAEHPAVCOleControlContainer@@PAPAVCOleControlSite@@IABU_GUID@@@Z 004e72cb f   nafxcw:wincore.obj
 0001:000e62e6       ?GetRuntimeClass@CWnd@@UBEPAUCRuntimeClass@@XZ 004e72e6 f   nafxcw:wincore.obj
 0001:000e62ec       ??$QueryInterface@UIAccessibleProxy@@@?$CMFCComObject@VCAccessibleProxy@ATL@@@@QAGJPAPAUIAccessibleProxy@@@Z 004e72ec f i nafxcw:wincore.obj
 0001:000e6305       ?AfxCtxRegisterClassA@@YAGPBUtagWNDCLASSA@@@Z 004e7305 f i nafxcw:wincore.obj
 0001:000e6397       ?AfxCtxGetClassInfoA@@YAHPAUHINSTANCE__@@PBDPAUtagWNDCLASSA@@@Z 004e7397 f i nafxcw:wincore.obj
 0001:000e642b       ?AfxCtxGetClassInfoExA@@YAHPAUHINSTANCE__@@PBDPAUtagWNDCLASSEXA@@@Z 004e742b f i nafxcw:wincore.obj
 0001:000e64bf       ?AfxCtxCreateWindowExA@@YAPAUHWND__@@KPBD0KHHHHPAU1@PAUHMENU__@@PAUHINSTANCE__@@PAX@Z 004e74bf f i nafxcw:wincore.obj
 0001:000e656e       ?AfxCtxMessageBoxA@@YAHPAUHWND__@@PBD1I@Z 004e756e f i nafxcw:wincore.obj
 0001:000e6605       ?AfxCtxLoadLibraryA@@YAPAUHINSTANCE__@@PBD@Z 004e7605 f i nafxcw:wincore.obj
 0001:000e6693       ??1AFX_MAINTAIN_STATE2@@QAE@XZ 004e7693 f i nafxcw:wincore.obj
 0001:000e66a3       ?SetScrollPos@CScrollBar@@QAEHHH@Z 004e76a3 f i nafxcw:wincore.obj
 0001:000e66bd       ?GetScrollRange@CScrollBar@@QBEXPAH0@Z 004e76bd f i nafxcw:wincore.obj
 0001:000e66d7       ?SetScrollRange@CScrollBar@@QAEXHHH@Z 004e76d7 f i nafxcw:wincore.obj
 0001:000e66f4       ?AfxInvariantStrICmp@@YAHPBD0@Z 004e76f4 f i nafxcw:wincore.obj
 0001:000e6714       ?Lock@CInternalGlobalLock@@QAEXH@Z 004e7714 f i nafxcw:wincore.obj
 0001:000e6748       ?Unlock@CInternalGlobalLock@@QAEXXZ 004e7748 f i nafxcw:wincore.obj
 0001:000e6764       ?SetPermanent@CHandleMap@@QAEXPAXPAVCObject@@@Z 004e7764 f i nafxcw:wincore.obj
 0001:000e677d       ??0CWnd@@QAE@XZ            004e777d f   nafxcw:wincore.obj
 0001:000e67c2       ?_AfxPreInitDialog@@YGXPAVCWnd@@PAUtagRECT@@PAK@Z 004e77c2 f   nafxcw:wincore.obj
 0001:000e67e3       ?SetMenu@CWnd@@UAEHPAVCMenu@@@Z 004e77e3 f   nafxcw:wincore.obj
 0001:000e6800       ?CreateEx@CWnd@@UAEHKPBD0KABUtagRECT@@PAV1@IPAX@Z 004e7800 f   nafxcw:wincore.obj
 0001:000e684b       ?Create@CWnd@@UAEHPBD0KABUtagRECT@@PAV1@IPAUCCreateContext@@@Z 004e784b f   nafxcw:wincore.obj
 0001:000e689b       ?CancelToolTips@CWnd@@SGXH@Z 004e789b f   nafxcw:wincore.obj
 0001:000e68f1       ?_AfxFindPopupMenuFromID@@YGPAVCMenu@@PAV1@I@Z 004e78f1 f   nafxcw:wincore.obj
 0001:000e695d       ??1_AFX_HTMLHELP_STATE@@UAE@XZ 004e795d f   nafxcw:wincore.obj
 0001:000e6972       ??_E_AFX_HTMLHELP_STATE@@UAEPAXI@Z 004e7972 f i nafxcw:wincore.obj
 0001:000e6972       ??_G_AFX_HTMLHELP_STATE@@UAEPAXI@Z 004e7972 f i nafxcw:wincore.obj
 0001:000e6992       ?WinHelpInternal@CWnd@@UAEXKI@Z 004e7992 f   nafxcw:wincore.obj
 0001:000e69e8       ?SetScrollPos@CWnd@@QAEHHHH@Z 004e79e8 f   nafxcw:wincore.obj
 0001:000e6a1c       ?SetScrollRange@CWnd@@QAEXHHHH@Z 004e7a1c f   nafxcw:wincore.obj
 0001:000e6a53       ?GetScrollRange@CWnd@@QBEXHPAH0@Z 004e7a53 f   nafxcw:wincore.obj
 0001:000e6a87       ?ScrollWindow@CWnd@@QAEXHHPBUtagRECT@@0@Z 004e7a87 f   nafxcw:wincore.obj
 0001:000e6b33       ?OnActivateTopLevel@CWnd@@IAEJIJ@Z 004e7b33 f   nafxcw:wincore.obj
 0001:000e6b61       ?AddRef@XAccessible@CWnd@@UAGKXZ 004e7b61 f   nafxcw:wincore.obj
 0001:000e6ba9       ?Release@XAccessible@CWnd@@UAGKXZ 004e7ba9 f   nafxcw:wincore.obj
 0001:000e6bf1       ?QueryInterface@XAccessible@CWnd@@UAGJABU_GUID@@PAPAX@Z 004e7bf1 f   nafxcw:wincore.obj
 0001:000e6c3f       ?Invoke@XAccessible@CWnd@@UAGJJABU_GUID@@KGPAUtagDISPPARAMS@@PAUtagVARIANT@@PAUtagEXCEPINFO@@PAI@Z 004e7c3f f   nafxcw:wincore.obj
 0001:000e6c9b       ?get_accParent@XAccessible@CWnd@@UAGJPAPAUIDispatch@@@Z 004e7c9b f   nafxcw:wincore.obj
 0001:000e6ce9       ?get_accChildCount@XAccessible@CWnd@@UAGJPAJ@Z 004e7ce9 f   nafxcw:wincore.obj
 0001:000e6d37       ?get_accChild@XAccessible@CWnd@@UAGJUtagVARIANT@@PAPAUIDispatch@@@Z 004e7d37 f   nafxcw:wincore.obj
 0001:000e6d91       ?get_accName@XAccessible@CWnd@@UAGJUtagVARIANT@@PAPA_W@Z 004e7d91 f   nafxcw:wincore.obj
 0001:000e6deb       ?get_accValue@XAccessible@CWnd@@UAGJUtagVARIANT@@PAPA_W@Z 004e7deb f   nafxcw:wincore.obj
 0001:000e6e45       ?get_accDescription@XAccessible@CWnd@@UAGJUtagVARIANT@@PAPA_W@Z 004e7e45 f   nafxcw:wincore.obj
 0001:000e6e9f       ?get_accRole@XAccessible@CWnd@@UAGJUtagVARIANT@@PAU3@@Z 004e7e9f f   nafxcw:wincore.obj
 0001:000e6ef9       ?get_accState@XAccessible@CWnd@@UAGJUtagVARIANT@@PAU3@@Z 004e7ef9 f   nafxcw:wincore.obj
 0001:000e6f53       ?get_accHelp@XAccessible@CWnd@@UAGJUtagVARIANT@@PAPA_W@Z 004e7f53 f   nafxcw:wincore.obj
 0001:000e6fad       ?get_accHelpTopic@XAccessible@CWnd@@UAGJPAPA_WUtagVARIANT@@PAJ@Z 004e7fad f   nafxcw:wincore.obj
 0001:000e700a       ?get_accKeyboardShortcut@XAccessible@CWnd@@UAGJUtagVARIANT@@PAPA_W@Z 004e800a f   nafxcw:wincore.obj
 0001:000e7064       ?get_accFocus@XAccessible@CWnd@@UAGJPAUtagVARIANT@@@Z 004e8064 f   nafxcw:wincore.obj
 0001:000e70b2       ?get_accSelection@XAccessible@CWnd@@UAGJPAUtagVARIANT@@@Z 004e80b2 f   nafxcw:wincore.obj
 0001:000e7100       ?get_accDefaultAction@XAccessible@CWnd@@UAGJUtagVARIANT@@PAPA_W@Z 004e8100 f   nafxcw:wincore.obj
 0001:000e715a       ?accSelect@XAccessible@CWnd@@UAGJJUtagVARIANT@@@Z 004e815a f   nafxcw:wincore.obj
 0001:000e71b4       ?accLocation@XAccessible@CWnd@@UAGJPAJ000UtagVARIANT@@@Z 004e81b4 f   nafxcw:wincore.obj
 0001:000e7217       ?accNavigate@XAccessible@CWnd@@UAGJJUtagVARIANT@@PAU3@@Z 004e8217 f   nafxcw:wincore.obj
 0001:000e7274       ?accHitTest@XAccessible@CWnd@@UAGJJJPAUtagVARIANT@@@Z 004e8274 f   nafxcw:wincore.obj
 0001:000e72c8       ?accDoDefaultAction@XAccessible@CWnd@@UAGJUtagVARIANT@@@Z 004e82c8 f   nafxcw:wincore.obj
 0001:000e731f       ?put_accName@XAccessible@CWnd@@UAGJUtagVARIANT@@PA_W@Z 004e831f f   nafxcw:wincore.obj
 0001:000e7379       ?put_accValue@XAccessible@CWnd@@UAGJUtagVARIANT@@PA_W@Z 004e8379 f   nafxcw:wincore.obj
 0001:000e73d3       ?AddRef@XAccessibleServer@CWnd@@UAGKXZ 004e83d3 f   nafxcw:wincore.obj
 0001:000e741b       ?Release@XAccessibleServer@CWnd@@UAGKXZ 004e841b f   nafxcw:wincore.obj
 0001:000e7463       ?QueryInterface@XAccessibleServer@CWnd@@UAGJABU_GUID@@PAPAX@Z 004e8463 f   nafxcw:wincore.obj
 0001:000e74b1       ?SetProxy@XAccessibleServer@CWnd@@UAGJPAUIAccessibleProxy@@@Z 004e84b1 f   nafxcw:wincore.obj
 0001:000e74ff       ?GetHWND@XAccessibleServer@CWnd@@UAGJPAPAUHWND__@@@Z 004e84ff f   nafxcw:wincore.obj
 0001:000e7541       ??1?$CComPtr@UIAccessibleProxy@@@ATL@@QAE@XZ 004e8541 f i nafxcw:wincore.obj
 0001:000e754e       ?UpdateData@CWnd@@QAEHH@Z  004e854e f   nafxcw:wincore.obj
 0001:000e75d9       ?CenterWindow@CWnd@@QAEXPAV1@@Z 004e85d9 f   nafxcw:wincore.obj
 0001:000e7799       ?RunModalLoop@CWnd@@QAEHK@Z 004e8799 f   nafxcw:wincore.obj
 0001:000e78dd       ?EndModalLoop@CWnd@@UAEXH@Z 004e88dd f   nafxcw:wincore.obj
 0001:000e7907       ?CreateObject@CWnd@@SGPAVCObject@@XZ 004e8907 f   nafxcw:wincore.obj
 0001:000e7934       ?Construct@?$ConstructDestruct@VCWnd@@@@SGXPAVCObject@@@Z 004e8934 f i nafxcw:wincore.obj
 0001:000e795b       ?GetProcAddress_InitCommonControls@CComCtlWrapper@@QAE?AUInitCommonControls_Type@1@XZ 004e895b f i nafxcw:wincore.obj
 0001:000e798a       ?_InitCommonControls@CComCtlWrapper@@QAEXXZ 004e898a f i nafxcw:wincore.obj
 0001:000e79fe       ?GetProcAddress_InitCommonControlsEx@CComCtlWrapper@@QAE?AUInitCommonControlsEx_Type@1@XZ 004e89fe f i nafxcw:wincore.obj
 0001:000e7a2d       ?_InitCommonControlsEx@CComCtlWrapper@@QAEHPAUtagINITCOMMONCONTROLSEX@@@Z 004e8a2d f i nafxcw:wincore.obj
 0001:000e7ad8       ?AfxInitCommonControlsEx@@YGHPAUtagINITCOMMONCONTROLSEX@@@Z 004e8ad8 f i nafxcw:wincore.obj
 0001:000e7af3       ??1CInternalGlobalLock@@QAE@XZ 004e8af3 f i nafxcw:wincore.obj
 0001:000e7af8       ?GetCurrentMessage@CWnd@@KGPBUtagMSG@@XZ 004e8af8 f   nafxcw:wincore.obj
 0001:000e7b36       ?Default@CWnd@@IAEJXZ      004e8b36 f   nafxcw:wincore.obj
 0001:000e7b68       ?afxMapHWND@@YGPAVCHandleMap@@H@Z 004e8b68 f   nafxcw:wincore.obj
 0001:000e7bdc       ?FromHandle@CWnd@@SGPAV1@PAUHWND__@@@Z 004e8bdc f   nafxcw:wincore.obj
 0001:000e7c08       ?FromHandlePermanent@CWnd@@SGPAV1@PAUHWND__@@@Z 004e8c08 f   nafxcw:wincore.obj
 0001:000e7c29       ?Attach@CWnd@@QAEHPAUHWND__@@@Z 004e8c29 f   nafxcw:wincore.obj
 0001:000e7c65       ?Detach@CWnd@@QAEPAUHWND__@@XZ 004e8c65 f   nafxcw:wincore.obj
 0001:000e7c95       ?AfxUnhookWindowCreate@@YGHXZ 004e8c95 f   nafxcw:wincore.obj
 0001:000e7ce2       ?OnDestroy@CWnd@@IAEXXZ    004e8ce2 f   nafxcw:wincore.obj
 0001:000e7d1f       ?OnNcDestroy@CWnd@@IAEXXZ  004e8d1f f   nafxcw:wincore.obj
 0001:000e7e32       ?DestroyWindow@CWnd@@UAEHXZ 004e8e32 f   nafxcw:wincore.obj
 0001:000e7e91       ?OnNTCtlColor@CWnd@@IAEJIJ@Z 004e8e91 f   nafxcw:wincore.obj
 0001:000e7ee2       ?GetSafeOwner@CWnd@@SGPAV1@PAV1@PAPAUHWND__@@@Z 004e8ee2 f   nafxcw:wincore.obj
 0001:000e7f04       ?GetDescendantWindow@CWnd@@SGPAV1@PAUHWND__@@HH@Z 004e8f04 f   nafxcw:wincore.obj
 0001:000e7f7d       ?WalkPreTranslateTree@CWnd@@SGHPAUHWND__@@PAUtagMSG@@@Z 004e8f7d f   nafxcw:wincore.obj
 0001:000e7fc3       ?SendChildNotifyLastMsg@CWnd@@QAEHPAJ@Z 004e8fc3 f   nafxcw:wincore.obj
 0001:000e7ffe       ?OnSetFocus@CWnd@@IAEXPAV1@@Z 004e8ffe f   nafxcw:wincore.obj
 0001:000e8023       ?OnHelpInfo@CWnd@@IAEHPAUtagHELPINFO@@@Z 004e9023 f   nafxcw:wincore.obj
 0001:000e808f       ?OnGetObject@CWnd@@IAEJIJ@Z 004e908f f   nafxcw:wincore.obj
 0001:000e80cd       ?OnHScroll@CWnd@@IAEXIIPAVCScrollBar@@@Z 004e90cd f   nafxcw:wincore.obj
 0001:000e80cd       ?OnVScroll@CWnd@@IAEXIIPAVCScrollBar@@@Z 004e90cd f   nafxcw:wincore.obj
 0001:000e80f3       ?OnEnterIdle@CWnd@@IAEXIPAV1@@Z 004e90f3 f   nafxcw:wincore.obj
 0001:000e8135       ?OnCtlColor@CWnd@@IAEPAUHBRUSH__@@PAVCDC@@PAV1@I@Z 004e9135 f   nafxcw:wincore.obj
 0001:000e815e       ?_AfxInitCommonControls@@YGJPAUtagINITCOMMONCONTROLSEX@@J@Z 004e915e f   nafxcw:wincore.obj
 0001:000e81b7       ?CreateObject@?$CProcessLocal@V_AFX_HTMLHELP_STATE@@@@SGPAVCNoTrackObject@@XZ 004e91b7 f i nafxcw:wincore.obj
 0001:000e81cc       ?GetWindow@CWnd@@QBEPAV1@I@Z 004e91cc f i nafxcw:wincore.obj
 0001:000e81e7       ?_AfxPostInitDialog@@YGXPAVCWnd@@ABUtagRECT@@K@Z 004e91e7 f   nafxcw:wincore.obj
 0001:000e825d       ?AfxCallWndProc@@YGJPAVCWnd@@PAUHWND__@@IIJ@Z 004e925d f   nafxcw:wincore.obj
 0001:000e8350       ?AfxWndProc@@YGJPAUHWND__@@IIJ@Z 004e9350 f   nafxcw:wincore.obj
 0001:000e839d       ??1CWnd@@UAE@XZ            004e939d f   nafxcw:wincore.obj
 0001:000e8412       ?OnCharToItem@CWnd@@IAEHIPAVCListBox@@I@Z 004e9412 f   nafxcw:wincore.obj
 0001:000e8412       ?OnVKeyToItem@CWnd@@IAEHIPAVCListBox@@I@Z 004e9412 f   nafxcw:wincore.obj
 0001:000e843f       ?OnMeasureItem@CWnd@@IAEXHPAUtagMEASUREITEMSTRUCT@@@Z 004e943f f   nafxcw:wincore.obj
 0001:000e84c8       ?GetParentFrame@CWnd@@QBEPAVCFrameWnd@@XZ 004e94c8 f   nafxcw:wincore.obj
 0001:000e8507       ?GetTopLevelFrame@CWnd@@QBEPAVCFrameWnd@@XZ 004e9507 f   nafxcw:wincore.obj
 0001:000e8548       ?SendMessageToDescendants@CWnd@@SGXPAUHWND__@@IIJHH@Z 004e9548 f   nafxcw:wincore.obj
 0001:000e85c7       ?ReflectLastMsg@CWnd@@KGHPAUHWND__@@PAJ@Z 004e95c7 f   nafxcw:wincore.obj
 0001:000e8667       ?OnParentNotify@CWnd@@IAEXIJ@Z 004e9667 f   nafxcw:wincore.obj
 0001:000e8697       ?OnDragList@CWnd@@IAEJIJ@Z 004e9697 f   nafxcw:wincore.obj
 0001:000e86c3       ?SubclassWindow@CWnd@@QAEHPAUHWND__@@@Z 004e96c3 f   nafxcw:wincore.obj
 0001:000e8709       ?get_accParent@?$IAccessibleProxyImpl@VCAccessibleProxy@ATL@@@ATL@@UAGJPAPAUIDispatch@@@Z 004e9709 f i nafxcw:wincore.obj
 0001:000e873b       ?get_accChildCount@?$IAccessibleProxyImpl@VCAccessibleProxy@ATL@@@ATL@@UAGJPAJ@Z 004e973b f i nafxcw:wincore.obj
 0001:000e876d       ?get_accChild@?$IAccessibleProxyImpl@VCAccessibleProxy@ATL@@@ATL@@UAGJUtagVARIANT@@PAPAUIDispatch@@@Z 004e976d f i nafxcw:wincore.obj
 0001:000e87ad       ?get_accName@?$IAccessibleProxyImpl@VCAccessibleProxy@ATL@@@ATL@@UAGJUtagVARIANT@@PAPA_W@Z 004e97ad f i nafxcw:wincore.obj
 0001:000e87ed       ?get_accValue@?$IAccessibleProxyImpl@VCAccessibleProxy@ATL@@@ATL@@UAGJUtagVARIANT@@PAPA_W@Z 004e97ed f i nafxcw:wincore.obj
 0001:000e882d       ?get_accDescription@?$IAccessibleProxyImpl@VCAccessibleProxy@ATL@@@ATL@@UAGJUtagVARIANT@@PAPA_W@Z 004e982d f i nafxcw:wincore.obj
 0001:000e886d       ?get_accRole@?$IAccessibleProxyImpl@VCAccessibleProxy@ATL@@@ATL@@UAGJUtagVARIANT@@PAU3@@Z 004e986d f i nafxcw:wincore.obj
 0001:000e88ad       ?get_accState@?$IAccessibleProxyImpl@VCAccessibleProxy@ATL@@@ATL@@UAGJUtagVARIANT@@PAU3@@Z 004e98ad f i nafxcw:wincore.obj
 0001:000e88ed       ?get_accHelp@?$IAccessibleProxyImpl@VCAccessibleProxy@ATL@@@ATL@@UAGJUtagVARIANT@@PAPA_W@Z 004e98ed f i nafxcw:wincore.obj
 0001:000e892d       ?get_accHelpTopic@?$IAccessibleProxyImpl@VCAccessibleProxy@ATL@@@ATL@@UAGJPAPA_WUtagVARIANT@@PAJ@Z 004e992d f i nafxcw:wincore.obj
 0001:000e8976       ?get_accKeyboardShortcut@?$IAccessibleProxyImpl@VCAccessibleProxy@ATL@@@ATL@@UAGJUtagVARIANT@@PAPA_W@Z 004e9976 f i nafxcw:wincore.obj
 0001:000e89b6       ?get_accFocus@?$IAccessibleProxyImpl@VCAccessibleProxy@ATL@@@ATL@@UAGJPAUtagVARIANT@@@Z 004e99b6 f i nafxcw:wincore.obj
 0001:000e89e8       ?get_accSelection@?$IAccessibleProxyImpl@VCAccessibleProxy@ATL@@@ATL@@UAGJPAUtagVARIANT@@@Z 004e99e8 f i nafxcw:wincore.obj
 0001:000e8a1a       ?get_accDefaultAction@?$IAccessibleProxyImpl@VCAccessibleProxy@ATL@@@ATL@@UAGJUtagVARIANT@@PAPA_W@Z 004e9a1a f i nafxcw:wincore.obj
 0001:000e8a5a       ?accSelect@?$IAccessibleProxyImpl@VCAccessibleProxy@ATL@@@ATL@@UAGJJUtagVARIANT@@@Z 004e9a5a f i nafxcw:wincore.obj
 0001:000e8a8d       ?accLocation@?$IAccessibleProxyImpl@VCAccessibleProxy@ATL@@@ATL@@UAGJPAJ000UtagVARIANT@@@Z 004e9a8d f i nafxcw:wincore.obj
 0001:000e8ae6       ?accNavigate@?$IAccessibleProxyImpl@VCAccessibleProxy@ATL@@@ATL@@UAGJJUtagVARIANT@@PAU3@@Z 004e9ae6 f i nafxcw:wincore.obj
 0001:000e8b29       ?accHitTest@?$IAccessibleProxyImpl@VCAccessibleProxy@ATL@@@ATL@@UAGJJJPAUtagVARIANT@@@Z 004e9b29 f i nafxcw:wincore.obj
 0001:000e8b61       ?accDoDefaultAction@?$IAccessibleProxyImpl@VCAccessibleProxy@ATL@@@ATL@@UAGJUtagVARIANT@@@Z 004e9b61 f i nafxcw:wincore.obj
 0001:000e8b91       ?put_accName@?$IAccessibleProxyImpl@VCAccessibleProxy@ATL@@@ATL@@UAGJUtagVARIANT@@PA_W@Z 004e9b91 f i nafxcw:wincore.obj
 0001:000e8b91       ?put_accValue@?$IAccessibleProxyImpl@VCAccessibleProxy@ATL@@@ATL@@UAGJUtagVARIANT@@PA_W@Z 004e9b91 f i nafxcw:wincore.obj
 0001:000e8bae       ?SetServer@?$IAccessibleProxyImpl@VCAccessibleProxy@ATL@@@ATL@@UAGJPAUIAccessible@@PAUIAccessibleServer@@@Z 004e9bae f i nafxcw:wincore.obj
 0001:000e8bc8       ?Invoke@?$IAccessibleProxyImpl@VCAccessibleProxy@ATL@@@ATL@@UAGJJABU_GUID@@KGPAUtagDISPPARAMS@@PAUtagVARIANT@@PAUtagEXCEPINFO@@PAI@Z 004e9bc8 f i nafxcw:wincore.obj
 0001:000e8c02       ?GetIDsOfNames@?$IAccessibleProxyImpl@VCAccessibleProxy@ATL@@@ATL@@UAGJABU_GUID@@PAPA_WIKPAJ@Z 004e9c02 f i nafxcw:wincore.obj
 0001:000e8c33       ?GetTypeInfoCount@?$IAccessibleProxyImpl@VCAccessibleProxy@ATL@@@ATL@@UAGJPAI@Z 004e9c33 f i nafxcw:wincore.obj
 0001:000e8c58       ?GetTypeInfo@?$IAccessibleProxyImpl@VCAccessibleProxy@ATL@@@ATL@@UAGJIKPAPAUITypeInfo@@@Z 004e9c58 f i nafxcw:wincore.obj
 0001:000e8c83       ?GetOwner@CWnd@@QBEPAV1@XZ 004e9c83 f i nafxcw:wincore.obj
 0001:000e8c9a       ??_GCWnd@@UAEPAXI@Z        004e9c9a f i nafxcw:wincore.obj
 0001:000e8c9a       ??_ECWnd@@UAEPAXI@Z        004e9c9a f i nafxcw:wincore.obj
 0001:000e8cbb       ?OnDrawItem@CWnd@@IAEXHPAUtagDRAWITEMSTRUCT@@@Z 004e9cbb f   nafxcw:wincore.obj
 0001:000e8cfd       ?OnCompareItem@CWnd@@IAEHHPAUtagCOMPAREITEMSTRUCT@@@Z 004e9cfd f   nafxcw:wincore.obj
 0001:000e8d29       ?OnDeleteItem@CWnd@@IAEXHPAUtagDELETEITEMSTRUCT@@@Z 004e9d29 f   nafxcw:wincore.obj
 0001:000e8d4e       ?AfxHtmlHelp@@YGPAUHWND__@@PAU1@PBDIK@Z 004e9d4e f   nafxcw:wincore.obj
 0001:000e8dce       ?OnCommand@CWnd@@MAEHIJ@Z  004e9dce f   nafxcw:wincore.obj
 0001:000e8e67       ?OnNotify@CWnd@@MAEHIJPAJ@Z 004e9e67 f   nafxcw:wincore.obj
 0001:000e8ee9       ?AfxGetParentOwner@@YGPAUHWND__@@PAU1@@Z 004e9ee9 f   nafxcw:wincore.obj
 0001:000e8f33       ?GetTopLevelParent@CWnd@@QBEPAV1@XZ 004e9f33 f   nafxcw:wincore.obj
 0001:000e8f5b       ?OnSysColorChange@CWnd@@IAEXXZ 004e9f5b f   nafxcw:wincore.obj
 0001:000e8fa3       ?OnDevModeChange@CWnd@@IAEXPAD@Z 004e9fa3 f   nafxcw:wincore.obj
 0001:000e8ff3       ?OnDisplayChange@CWnd@@IAEJIJ@Z 004e9ff3 f   nafxcw:wincore.obj
 0001:000e903e       ??0?$CMFCComObject@VCAccessibleProxy@ATL@@@@QAE@PAX@Z 004ea03e f i nafxcw:wincore.obj
 0001:000e906b       _InlineIsEqualGUID         004ea06b f i nafxcw:wincore.obj
 0001:000e909d       ?GetWindow@CAccessibleProxy@ATL@@UAGJPAPAUHWND__@@@Z 004ea09d f i nafxcw:wincore.obj
 0001:000e90a2       ?ContextSensitiveHelp@CAccessibleProxy@ATL@@UAGJH@Z 004ea0a2 f i nafxcw:wincore.obj
 0001:000e90aa       ?FinalRelease@CAccessibleProxy@ATL@@QAEJXZ 004ea0aa f i nafxcw:wincore.obj
 0001:000e90bf       ?InlineIsEqualUnknown@ATL@@YGHABU_GUID@@@Z 004ea0bf f i nafxcw:wincore.obj
 0001:000e90ef       ?AtlInternalQueryInterface@ATL@@YGJPAXPBU_ATL_INTMAP_ENTRY@1@ABU_GUID@@PAPAX@Z 004ea0ef f i nafxcw:wincore.obj
 0001:000e9192       ?_InternalQueryInterface@CAccessibleProxy@ATL@@QAEJABU_GUID@@PAPAX@Z 004ea192 f i nafxcw:wincore.obj
 0001:000e91ac       ??1?$CMFCComObject@VCAccessibleProxy@ATL@@@@UAE@XZ 004ea1ac f i nafxcw:wincore.obj
 0001:000e91d1       ?AddRef@?$CMFCComObject@VCAccessibleProxy@ATL@@@@UAGKXZ 004ea1d1 f i nafxcw:wincore.obj
 0001:000e91e3       ?Release@?$CMFCComObject@VCAccessibleProxy@ATL@@@@UAGKXZ 004ea1e3 f i nafxcw:wincore.obj
 0001:000e9206       ?QueryInterface@?$CMFCComObject@VCAccessibleProxy@ATL@@@@UAGJABU_GUID@@PAPAX@Z 004ea206 f i nafxcw:wincore.obj
 0001:000e921d       ??_G?$CMFCComObject@VCAccessibleProxy@ATL@@@@UAEPAXI@Z 004ea21d f i nafxcw:wincore.obj
 0001:000e921d       ??_E?$CMFCComObject@VCAccessibleProxy@ATL@@@@UAEPAXI@Z 004ea21d f i nafxcw:wincore.obj
 0001:000e923e       ?Release@?$CMFCComObject@VCAccessibleProxy@ATL@@@@WBA@AGKXZ 004ea23e f i nafxcw:wincore.obj
 0001:000e9248       ?QueryInterface@?$CMFCComObject@VCAccessibleProxy@ATL@@@@W3AGJABU_GUID@@PAPAX@Z 004ea248 f i nafxcw:wincore.obj
 0001:000e9252       ?AddRef@?$CMFCComObject@VCAccessibleProxy@ATL@@@@WBA@AGKXZ 004ea252 f i nafxcw:wincore.obj
 0001:000e925c       ?QueryInterface@?$CMFCComObject@VCAccessibleProxy@ATL@@@@WBA@AGJABU_GUID@@PAPAX@Z 004ea25c f i nafxcw:wincore.obj
 0001:000e9266       ?Release@?$CMFCComObject@VCAccessibleProxy@ATL@@@@W3AGKXZ 004ea266 f i nafxcw:wincore.obj
 0001:000e9270       ?AddRef@?$CMFCComObject@VCAccessibleProxy@ATL@@@@W3AGKXZ 004ea270 f i nafxcw:wincore.obj
 0001:000e927a       ?_AfxHandleActivate@@YGXPAVCWnd@@I0@Z 004ea27a f   nafxcw:wincore.obj
 0001:000e92f2       ?_AfxHandleSetCursor@@YGHPAVCWnd@@II@Z 004ea2f2 f   nafxcw:wincore.obj
 0001:000e936a       ?_AfxActivationWndProc@@YGJPAUHWND__@@IIJ@Z 004ea36a f   nafxcw:wincore.obj
 0001:000e94b7       ?_AfxCbtFilterHook@@YGJHIJ@Z 004ea4b7 f   nafxcw:wincore.obj
 0001:000e970a       ?AfxHookWindowCreate@@YGXPAVCWnd@@@Z 004ea70a f   nafxcw:wincore.obj
 0001:000e9764       ?CreateEx@CWnd@@UAEHKPBD0KHHHHPAUHWND__@@PAUHMENU__@@PAX@Z 004ea764 f   nafxcw:wincore.obj
 0001:000e9843       ?PrepareForHelp@CWnd@@QAEXXZ 004ea843 f   nafxcw:wincore.obj
 0001:000e98c1       ?OnWndMsg@CWnd@@MAEHIIJPAJ@Z 004ea8c1 f   nafxcw:wincore.obj
 0001:000e9fd5       ?ReflectChildNotify@CWnd@@IAEHIIJPAJ@Z 004eafd5 f   nafxcw:wincore.obj
 0001:000ea0bc       ?OnSettingChange@CWnd@@IAEXIPBD@Z 004eb0bc f   nafxcw:wincore.obj
 0001:000ea0e8       ?CreateInstance@?$CMFCComObject@VCAccessibleProxy@ATL@@@@SGJPAPAV1@@Z 004eb0e8 f i nafxcw:wincore.obj
 0001:000ea15a       ?WinHelpA@CWnd@@UAEXKI@Z   004eb15a f   nafxcw:wincore.obj
 0001:000ea1ca       ?HtmlHelpA@CWnd@@UAEXKI@Z  004eb1ca f   nafxcw:wincore.obj
 0001:000ea239       ?GetThisMessageMap@CWnd@@KGPBUAFX_MSGMAP@@XZ 004eb239 f   nafxcw:wincore.obj
 0001:000ea239       ?GetMessageMap@CWnd@@MBEPBUAFX_MSGMAP@@XZ 004eb239 f   nafxcw:wincore.obj
 0001:000ea23f       ?OnChildNotify@CWnd@@MAEHIIJPAJ@Z 004eb23f f   nafxcw:wincore.obj
 0001:000ea288       ?CreateAccessibleProxy@CWnd@@UAEJIJPAJ@Z 004eb288 f   nafxcw:wincore.obj
 0001:000ea342       ?AfxRegisterClass@@YGHPAUtagWNDCLASSA@@@Z 004eb342 f   nafxcw:wincore.obj
 0001:000ea3cf       ?ExecuteDlgInit@CWnd@@QAEHPAX@Z 004eb3cf f   nafxcw:wincore.obj
 0001:000ea4fa       ?_AfxRegisterWithIcon@@YGHPAUtagWNDCLASSA@@PBDI@Z 004eb4fa f   nafxcw:wincore.obj
 0001:000ea53e       ?AfxEndDeferRegisterClass@@YGHJ@Z 004eb53e f   nafxcw:wincore.obj
 0001:000ea830       ?PreCreateWindow@CWnd@@UAEHAAUtagCREATESTRUCTA@@@Z 004eb830 f   nafxcw:wincore.obj
 0001:000ea855       ?ExecuteDlgInit@CWnd@@QAEHPBD@Z 004eb855 f   nafxcw:wincore.obj
 0001:000ea8bf       ??$HashKey@PBD@@YGIPBD@Z   004eb8bf f   nafxcw:strcore.obj
 0001:000ea8f1       ?AfxGetStringManager@@YGPAUIAtlStringMgr@ATL@@XZ 004eb8f1 f   nafxcw:strcore.obj
 0001:000ea8f7       ?Allocate@CAfxStringMgr@@UAEPAUCStringData@ATL@@HH@Z 004eb8f7 f   nafxcw:strcore.obj
 0001:000ea936       ?Free@CAfxStringMgr@@UAEXPAUCStringData@ATL@@@Z 004eb936 f   nafxcw:strcore.obj
 0001:000ea948       ?Reallocate@CAfxStringMgr@@UAEPAUCStringData@ATL@@PAU23@HH@Z 004eb948 f   nafxcw:strcore.obj
 0001:000ea97a       ?Clone@CAfxStringMgr@@UAEPAUIAtlStringMgr@ATL@@XZ 004eb97a f   nafxcw:strcore.obj
 0001:000ea97d       ??0CAfxStringMgr@@QAE@XZ   004eb97d f i nafxcw:strcore.obj
 0001:000ea9a0       ?GetNilString@CAfxStringMgr@@UAEPAUCStringData@ATL@@XZ 004eb9a0 f   nafxcw:strcore.obj
 0001:000ea9ae       ??$SerializeElementsInsertExtract@V?$CStringT@DV?$StrTraitMFC@DV?$ChTraitsCRT@D@ATL@@@@@ATL@@@@YGXAAVCArchive@@PAV?$CStringT@DV?$StrTraitMFC@DV?$ChTraitsCRT@D@ATL@@@@@ATL@@H@Z 004eb9ae f i nafxcw:strcore.obj
 0001:000ea9fe       ??$SerializeElements@V?$CStringT@DV?$StrTraitMFC@DV?$ChTraitsCRT@D@ATL@@@@@ATL@@@@YGXAAVCArchive@@PAV?$CStringT@DV?$StrTraitMFC@DV?$ChTraitsCRT@D@ATL@@@@@ATL@@H@Z 004eb9fe f   nafxcw:strcore.obj
 0001:000eaa09       ?AfxDlgProc@@YGHPAUHWND__@@IIJ@Z 004eba09 f   nafxcw:dlgcore.obj
 0001:000eaa47       ??0CDialog@@QAE@XZ         004eba47 f   nafxcw:dlgcore.obj
 0001:000eaa6b       ??1CDialog@@UAE@XZ         004eba6b f   nafxcw:dlgcore.obj
 0001:000eaaa2       ?OnPaint@CDialog@@IAEXXZ   004ebaa2 f   nafxcw:dlgcore.obj
 0001:000eaae5       ?SetOccDialogInfo@CDialog@@MAEHPAU_AFX_OCC_DIALOG_INFO@@@Z 004ebae5 f   nafxcw:dlgcore.obj
 0001:000eaaf7       ?GetOccDialogInfo@CDialog@@MAEPAU_AFX_OCC_DIALOG_INFO@@XZ 004ebaf7 f   nafxcw:dlgcore.obj
 0001:000eaafb       ?EndDialog@CDialog@@QAEXH@Z 004ebafb f   nafxcw:dlgcore.obj
 0001:000eab25       ?OnOK@CDialog@@MAEXXZ      004ebb25 f   nafxcw:dlgcore.obj
 0001:000eab40       ?OnCancel@CDialog@@MAEXXZ  004ebb40 f   nafxcw:dlgcore.obj
 0001:000eab48       ?OnHelpHitTest@CDialog@@IAEJIJ@Z 004ebb48 f   nafxcw:dlgcore.obj
 0001:000eab5b       ?GetRuntimeClass@CDialog@@UBEPAUCRuntimeClass@@XZ 004ebb5b f   nafxcw:dlgcore.obj
 0001:000eab61       ??_9CDialog@@$BBFI@AE      004ebb61 f i nafxcw:dlgcore.obj
 0001:000eab69       ??_9CDialog@@$BBFM@AE      004ebb69 f i nafxcw:dlgcore.obj
 0001:000eab69       ?OnReset@CPropertyPage@@UAEXXZ 004ebb69 f i nafxcw:dlgprop.obj
 0001:000eab71       ?GetNextDlgTabItem@CWnd@@QBEPAV1@PAV1@H@Z 004ebb71 f i nafxcw:dlgcore.obj
 0001:000eab97       ?PreTranslateMessage@CDialog@@UAEHPAUtagMSG@@@Z 004ebb97 f   nafxcw:dlgcore.obj
 0001:000eac37       ??_GCDialog@@UAEPAXI@Z     004ebc37 f i nafxcw:dlgcore.obj
 0001:000eac37       ??_ECDialog@@UAEPAXI@Z     004ebc37 f i nafxcw:dlgcore.obj
 0001:000eac58       ?PreModal@CDialog@@IAEPAUHWND__@@XZ 004ebc58 f   nafxcw:dlgcore.obj
 0001:000eac94       ?PostModal@CDialog@@IAEXXZ 004ebc94 f   nafxcw:dlgcore.obj
 0001:000eacd8       ?HandleSetFont@CDialog@@IAEJIJ@Z 004ebcd8 f   nafxcw:dlgcore.obj
 0001:000eacff       ?HandleInitDialog@CDialog@@IAEJIJ@Z 004ebcff f   nafxcw:dlgcore.obj
 0001:000ead87       ?AfxHelpEnabled@@YGHXZ     004ebd87 f   nafxcw:dlgcore.obj
 0001:000eaddf       ?OnInitDialog@CDialog@@UAEHXZ 004ebddf f   nafxcw:dlgcore.obj
 0001:000eae42       ?CheckAutoCenter@CDialog@@UAEHXZ 004ebe42 f   nafxcw:dlgcore.obj
 0001:000eaedf       ?OnCommandHelp@CDialog@@IAEJIJ@Z 004ebedf f   nafxcw:dlgcore.obj
 0001:000eaf22       ?GetMessageMap@CDialog@@MBEPBUAFX_MSGMAP@@XZ 004ebf22 f   nafxcw:dlgcore.obj
 0001:000eaf22       ?GetThisMessageMap@CDialog@@KGPBUAFX_MSGMAP@@XZ 004ebf22 f   nafxcw:dlgcore.obj
 0001:000eaf28       ?CreateDlgIndirect@CWnd@@IAEHPBUDLGTEMPLATE@@PAV1@PAUHINSTANCE__@@@Z 004ebf28 f   nafxcw:dlgcore.obj
 0001:000eb0de       ?DoModal@CDialog@@UAEHXZ   004ec0de f   nafxcw:dlgcore.obj
 0001:000eb2aa       ?CreateIndirect@CDialog@@IAEHPBUDLGTEMPLATE@@PAVCWnd@@PAXPAUHINSTANCE__@@@Z 004ec2aa f   nafxcw:dlgcore.obj
 0001:000eb2d7       ?CreateIndirect@CDialog@@IAEHPAXPAVCWnd@@PAUHINSTANCE__@@@Z 004ec2d7 f   nafxcw:dlgcore.obj
 0001:000eb2fd       ?CreateIndirect@CDialog@@UAEHPBUDLGTEMPLATE@@PAVCWnd@@PAX@Z 004ec2fd f   nafxcw:dlgcore.obj
 0001:000eb316       ?Create@CDialog@@UAEHPBDPAVCWnd@@@Z 004ec316 f   nafxcw:dlgcore.obj
 0001:000eb374       ?CreateIndirect@CDialog@@UAEHPAXPAVCWnd@@@Z 004ec374 f   nafxcw:dlgcore.obj
 0001:000eb38a       _IsEqualGUID               004ec38a f i nafxcw:cmdtarg.obj
 0001:000eb3a6       ?_AfxDispatchCmdMsg@@YGHPAVCCmdTarget@@IHP81@AEXXZPAXIPAUAFX_CMDHANDLERINFO@@@Z 004ec3a6 f   nafxcw:cmdtarg.obj
 0001:000eb4de       ?OnCmdMsg@CCmdTarget@@UAEHIHPAXPAUAFX_CMDHANDLERINFO@@@Z 004ec4de f   nafxcw:cmdtarg.obj
 0001:000eb5fc       ?IsInvokeAllowed@CCmdTarget@@UAEHJ@Z 004ec5fc f   nafxcw:cmdtarg.obj
 0001:000eb602       ?GetTypeLib@CCmdTarget@@UAEJKPAPAUITypeLib@@@Z 004ec602 f   nafxcw:cmdtarg.obj
 0001:000eb60a       ?GetDispatchMap@CCmdTarget@@MBEPBUAFX_DISPMAP@@XZ 004ec60a f   nafxcw:cmdtarg.obj
 0001:000eb610       ?GetEventSinkMap@CCmdTarget@@MBEPBUAFX_EVENTSINKMAP@@XZ 004ec610 f   nafxcw:cmdtarg.obj
 0001:000eb616       ?GetInterfaceMap@CCmdTarget@@MBEPBUAFX_INTERFACEMAP@@XZ 004ec616 f   nafxcw:cmdtarg.obj
 0001:000eb61c       ?OnFinalRelease@CCmdTarget@@UAEXXZ 004ec61c f   nafxcw:cmdtarg.obj
 0001:000eb64c       ?OnQueryCancel@CPropertyPage@@UAEHXZ 004ec64c f   nafxcw:dlgprop.obj
 0001:000eb64c       ?CheckAutoCenter@CWnd@@UAEHXZ 004ec64c f   nafxcw:wincore.obj
 0001:000eb64c       ?OnCreateAggregates@CCmdTarget@@UAEHXZ 004ec64c f   nafxcw:cmdtarg.obj
 0001:000eb64c       ?Register@CWinApp@@UAEHXZ  004ec64c f   nafxcw:appui2.obj
 0001:000eb650       ?GetConnectionMap@CCmdTarget@@MBEPBUAFX_CONNECTIONMAP@@XZ 004ec650 f   nafxcw:cmdtarg.obj
 0001:000eb656       ?GetDispatchIID@CCmdTarget@@UAEHPAU_GUID@@@Z 004ec656 f   nafxcw:cmdtarg.obj
 0001:000eb656       ?CompareItem@CListBox@@UAEHPAUtagCOMPAREITEMSTRUCT@@@Z 004ec656 f   nafxcw:winctrl1.obj
 0001:000eb656       ?SetOccDialogInfo@CWnd@@MAEHPAU_AFX_OCC_DIALOG_INFO@@@Z 004ec656 f   nafxcw:wincore.obj
 0001:000eb656       ?GetConnectionHook@CCmdTarget@@MAEPAUIConnectionPoint@@ABU_GUID@@@Z 004ec656 f   nafxcw:cmdtarg.obj
 0001:000eb656       ?GetInterfaceHook@CCmdTarget@@UAEPAUIUnknown@@PBX@Z 004ec656 f   nafxcw:cmdtarg.obj
 0001:000eb656       ?GetExtraConnectionPoints@CCmdTarget@@MAEHPAVCPtrArray@@@Z 004ec656 f   nafxcw:cmdtarg.obj
 0001:000eb656       ?GetScrollBarCtrl@CWnd@@UBEPAVCScrollBar@@H@Z 004ec656 f   nafxcw:wincore.obj
 0001:000eb65b       ?GetCommandMap@CCmdTarget@@MBEPBUAFX_OLECMDMAP@@XZ 004ec65b f   nafxcw:cmdtarg.obj
 0001:000eb661       ??0CCmdUI@@QAE@XZ          004ec661 f   nafxcw:cmdtarg.obj
 0001:000eb687       ?CheckMenuItem@CMenu@@QAEIII@Z 004ec687 f i nafxcw:cmdtarg.obj
 0001:000eb69f       ?EnableMenuItem@CMenu@@QAEIII@Z 004ec69f f i nafxcw:cmdtarg.obj
 0001:000eb6b7       ?ModifyMenuA@CMenu@@QAEHIIIPBD@Z 004ec6b7 f i nafxcw:cmdtarg.obj
 0001:000eb6d5       ??0CCmdTarget@@QAE@XZ      004ec6d5 f   nafxcw:cmdtarg.obj
 0001:000eb6fd       ??1CCmdTarget@@UAE@XZ      004ec6fd f   nafxcw:cmdtarg.obj
 0001:000eb714       ?BeginWaitCursor@CCmdTarget@@QAEXXZ 004ec714 f   nafxcw:cmdtarg.obj
 0001:000eb729       ?EndWaitCursor@CCmdTarget@@QAEXXZ 004ec729 f   nafxcw:cmdtarg.obj
 0001:000eb73e       ?GetMessageMap@CCmdTarget@@MBEPBUAFX_MSGMAP@@XZ 004ec73e f   nafxcw:cmdtarg.obj
 0001:000eb73e       ?GetThisMessageMap@CCmdTarget@@KGPBUAFX_MSGMAP@@XZ 004ec73e f   nafxcw:cmdtarg.obj
 0001:000eb744       ?Enable@CCmdUI@@UAEXH@Z    004ec744 f   nafxcw:cmdtarg.obj
 0001:000eb7d2       ?SetCheck@CCmdUI@@UAEXH@Z  004ec7d2 f   nafxcw:cmdtarg.obj
 0001:000eb848       ?SetText@CCmdUI@@UAEXPBD@Z 004ec848 f   nafxcw:cmdtarg.obj
 0001:000eb8b5       ?_AfxLoadDotBitmap@@YGXXZ  004ec8b5 f   nafxcw:cmdtarg.obj
 0001:000eb9d7       ?SetRadio@CCmdUI@@UAEXH@Z  004ec9d7 f   nafxcw:cmdtarg.obj
 0001:000eba3f       ?OnAmbientProperty@CWnd@@UAEHPAVCOleControlSite@@JPAUtagVARIANT@@@Z 004eca3f f   nafxcw:winocc.obj
 0001:000eba4d       ?GetControlUnknown@CWnd@@QAEPAUIUnknown@@XZ 004eca4d f   nafxcw:winocc.obj
 0001:000eba59       ?PaintWindowlessControls@CWnd@@QAEHPAVCDC@@@Z 004eca59 f   nafxcw:winocc.obj
 0001:000eba76       ?GetOleControlSite@CWnd@@QBEPAVCOleControlSite@@I@Z 004eca76 f   nafxcw:winocc.obj
 0001:000eba90       ?GetDlgItem@CWnd@@QBEPAV1@H@Z 004eca90 f   nafxcw:winocc.obj
 0001:000ebaba       ?GetDlgItem@CWnd@@QBEXHPAPAUHWND__@@@Z 004ecaba f   nafxcw:winocc.obj
 0001:000ebae3       ?SendDlgItemMessageA@CWnd@@QAEJHIIJ@Z 004ecae3 f   nafxcw:winocc.obj
 0001:000ebb13       ?IsDialogMessageA@CWnd@@QAEHPAUtagMSG@@@Z 004ecb13 f   nafxcw:winocc.obj
 0001:000ebb4a       ?GetStyle@CWnd@@QBEKXZ     004ecb4a f   nafxcw:winocc.obj
 0001:000ebb64       ?GetExStyle@CWnd@@QBEKXZ   004ecb64 f   nafxcw:winocc.obj
 0001:000ebb7e       ?ModifyStyleEx@CWnd@@QAEHKKI@Z 004ecb7e f   nafxcw:winocc.obj
 0001:000ebbaa       ?SetWindowTextA@CWnd@@QAEXPBD@Z 004ecbaa f   nafxcw:winocc.obj
 0001:000ebbf1       ?MoveWindow@CWnd@@QAEXHHHHH@Z 004ecbf1 f   nafxcw:winocc.obj
 0001:000ebc31       ?ShowWindow@CWnd@@QAEHH@Z  004ecc31 f   nafxcw:winocc.obj
 0001:000ebc58       ?IsWindowEnabled@CWnd@@QBEHXZ 004ecc58 f   nafxcw:winocc.obj
 0001:000ebc73       ?EnableWindow@CWnd@@QAEHH@Z 004ecc73 f   nafxcw:winocc.obj
 0001:000ebc9a       ?SetFocus@CWnd@@QAEPAV1@XZ 004ecc9a f   nafxcw:winocc.obj
 0001:000ebcbb       ?AttachControlSite@CWnd@@QAEXPAV1@I@Z 004eccbb f   nafxcw:winocc.obj
 0001:000ebce4       ?SetWindowPos@CWnd@@QAEHPBV1@HHHHI@Z 004ecce4 f   nafxcw:winocc.obj
 0001:000ebd22       ?AttachControlSite@CWnd@@IAEXPAVCHandleMap@@@Z 004ecd22 f   nafxcw:winocc.obj
 0001:000ebd66       ?PrepareCtrl@CDataExchange@@QAEPAUHWND__@@H@Z 004ecd66 f   nafxcw:dlgdata.obj
 0001:000ebda7       ?Fail@CDataExchange@@QAEXXZ 004ecda7 f   nafxcw:dlgdata.obj
 0001:000ebdf8       ?DDX_Control@@YGXPAVCDataExchange@@HAAVCWnd@@@Z 004ecdf8 f   nafxcw:dlgdata.obj
 0001:000ebe83       ?PrepareEditCtrl@CDataExchange@@QAEPAUHWND__@@H@Z 004ece83 f   nafxcw:dlgdata.obj
 0001:000ebe9f       ?DDX_Text@@YGXPAVCDataExchange@@HAAV?$CStringT@DV?$StrTraitMFC@DV?$ChTraitsCRT@D@ATL@@@@@ATL@@@Z 004ece9f f   nafxcw:dlgdata.obj
 0001:000ebef3       ?DDX_CBString@@YGXPAVCDataExchange@@HAAV?$CStringT@DV?$StrTraitMFC@DV?$ChTraitsCRT@D@ATL@@@@@ATL@@@Z 004ecef3 f   nafxcw:dlgdata.obj
 0001:000ebf87       ?GetRoutingFrame_@CCmdTarget@@KGPAVCFrameWnd@@XZ 004ecf87 f   nafxcw:appui1.obj
 0001:000ebf93       ?DoEnableModeless@CWinApp@@SAXH@Z 004ecf93 f   nafxcw:appui1.obj
 0001:000ebfcc       ?GetSafeOwner_@CWnd@@SGPAUHWND__@@PAU2@PAPAU2@@Z 004ecfcc f   nafxcw:appui1.obj
 0001:000ec06c       ?EnableModeless@CWinApp@@QAEXH@Z 004ed06c f   nafxcw:appui1.obj
 0001:000ec07e       ?ShowAppMessageBox@CWinApp@@SAHPAV1@PBDII@Z 004ed07e f   nafxcw:appui1.obj
 0001:000ec1df       ?AfxMessageBox@@YGHPBDII@Z 004ed1df f   nafxcw:appui1.obj
 0001:000ec212       ?DoMessageBox@CWinApp@@UAEHPBDII@Z 004ed212 f   nafxcw:appui1.obj
 0001:000ec22d       ?AfxMessageBox@@YGHIII@Z   004ed22d f   nafxcw:appui1.obj
 0001:000ec27c       ?Create@CListBox@@UAEHKABUtagRECT@@PAVCWnd@@I@Z 004ed27c f   nafxcw:winctrl1.obj
 0001:000ec29f       ??1CListBox@@UAE@XZ        004ed29f f   nafxcw:winctrl1.obj
 0001:000ec2d0       ?CharToItem@CListBox@@UAEHII@Z 004ed2d0 f   nafxcw:winctrl1.obj
 0001:000ec2d0       ?VKeyToItem@CListBox@@UAEHII@Z 004ed2d0 f   nafxcw:winctrl1.obj
 0001:000ec2d8       ?OnChildNotify@CListBox@@MAEHIIJPAJ@Z 004ed2d8 f   nafxcw:winctrl1.obj
 0001:000ec366       ?GetRuntimeClass@CListBox@@UBEPAUCRuntimeClass@@XZ 004ed366 f   nafxcw:winctrl1.obj
 0001:000ec36c       ?AfxLoadString@@YGHIPADI@Z 004ed36c f   nafxcw:winstr.obj
 0001:000ec3c6       ?AfxFindStringResourceHandle@@YGPAUHINSTANCE__@@I@Z 004ed3c6 f   nafxcw:winstr.obj
 0001:000ec3d1       ?SetOption@CInternetSession@@QAEHKPAXKK@Z 004ed3d1 f   nafxcw:inet.obj
 0001:000ec3ef       ?OnStatusCallback@CInternetSession@@UAEXKKPAXK@Z 004ed3ef f   nafxcw:inet.obj
 0001:000ec410       ?SetCurrentDirectoryA@CFtpConnection@@QAEHPBD@Z 004ed410 f   nafxcw:inet.obj
 0001:000ec425       ?PutFile@CFtpConnection@@QAEHPBD0KK@Z 004ed425 f   nafxcw:inet.obj
 0001:000ec44c       ??1CFtpFileFind@@UAE@XZ    004ed44c f   nafxcw:inet.obj
 0001:000ec47d       ?FindNextFileA@CFtpFileFind@@UAEHXZ 004ed47d f   nafxcw:inet.obj
 0001:000ec4bc       ?CloseContext@CFtpFileFind@@MAEXXZ 004ed4bc f   nafxcw:inet.obj
 0001:000ec4da       ?GetRuntimeClass@CInternetException@@UBEPAUCRuntimeClass@@XZ 004ed4da f   nafxcw:inet.obj
 0001:000ec4e0       ?GetRuntimeClass@CInternetSession@@UBEPAUCRuntimeClass@@XZ 004ed4e0 f   nafxcw:inet.obj
 0001:000ec4e6       ?GetRuntimeClass@CInternetConnection@@UBEPAUCRuntimeClass@@XZ 004ed4e6 f   nafxcw:inet.obj
 0001:000ec4ec       ?GetRuntimeClass@CFtpConnection@@UBEPAUCRuntimeClass@@XZ 004ed4ec f   nafxcw:inet.obj
 0001:000ec4f2       ?GetRuntimeClass@CFtpFileFind@@UBEPAUCRuntimeClass@@XZ 004ed4f2 f   nafxcw:inet.obj
 0001:000ec4f8       ?Init@CCriticalSection@@AAEHXZ 004ed4f8 f i nafxcw:inet.obj
 0001:000ec544       ??0CCriticalSection@@QAE@XZ 004ed544 f i nafxcw:inet.obj
 0001:000ec57e       ?Unlock@CSyncObject@@UAEHJPAJ@Z 004ed57e f i nafxcw:inet.obj
 0001:000ec584       ??1CCriticalSection@@UAE@XZ 004ed584 f i nafxcw:inet.obj
 0001:000ec5a1       ?Lock@CCriticalSection@@QAEHXZ 004ed5a1 f i nafxcw:inet.obj
 0001:000ec5e8       ?Lock@CCriticalSection@@UAEHK@Z 004ed5e8 f i nafxcw:inet.obj
 0001:000ec5f0       ?Unlock@CCriticalSection@@UAEHXZ 004ed5f0 f i nafxcw:inet.obj
 0001:000ec5fe       ??0CSessionMapPtrToPtr@@QAE@XZ 004ed5fe f i nafxcw:inet.obj
 0001:000ec630       ??1CSessionMapPtrToPtr@@UAE@XZ 004ed630 f i nafxcw:inet.obj
 0001:000ec664       ?SetAt@CSessionMapPtrToPtr@@QAEXPAXPAVCInternetSession@@@Z 004ed664 f i nafxcw:inet.obj
 0001:000ec693       ?RemoveKey@CSessionMapPtrToPtr@@QAEXPAX@Z 004ed693 f i nafxcw:inet.obj
 0001:000ec6bd       ?Lookup@CSessionMapPtrToPtr@@QAEHPAXAAPAVCInternetSession@@@Z 004ed6bd f i nafxcw:inet.obj
 0001:000ec6ee       ??_GCSessionMapPtrToPtr@@UAEPAXI@Z 004ed6ee f i nafxcw:inet.obj
 0001:000ec6ee       ??_ECSessionMapPtrToPtr@@UAEPAXI@Z 004ed6ee f i nafxcw:inet.obj
 0001:000ec70f       ?AfxInternetStatusCallback@@YGXPAXKK0K@Z 004ed70f f   nafxcw:inet.obj
 0001:000ec741       ?Close@CInternetConnection@@UAEXXZ 004ed741 f   nafxcw:inet.obj
 0001:000ec767       ??0CFtpFileFind@@QAE@PAVCFtpConnection@@K@Z 004ed767 f   nafxcw:inet.obj
 0001:000ec7b2       ??_ECFtpFileFind@@UAEPAXI@Z 004ed7b2 f i nafxcw:inet.obj
 0001:000ec7b2       ??_GCFtpFileFind@@UAEPAXI@Z 004ed7b2 f i nafxcw:inet.obj
 0001:000ec7d3       ?GetErrorMessage@CInternetException@@UBEHPADIPAI@Z 004ed7d3 f   nafxcw:inet.obj
 0001:000ec8ed       ??0CInternetException@@QAE@K@Z 004ed8ed f   nafxcw:inet.obj
 0001:000ec90d       ??_GCCriticalSection@@UAEPAXI@Z 004ed90d f i nafxcw:inet.obj
 0001:000ec90d       ??_ECCriticalSection@@UAEPAXI@Z 004ed90d f i nafxcw:inet.obj
 0001:000ec92e       ?AfxThrowInternetException@@YGXKK@Z 004ed92e f   nafxcw:inet.obj
 0001:000ec986       ??_GCInternetException@@UAEPAXI@Z 004ed986 f i nafxcw:inet.obj
 0001:000ec986       ??_ECInternetException@@UAEPAXI@Z 004ed986 f i nafxcw:inet.obj
 0001:000ec9a8       ??0CInternetSession@@QAE@PBDKK00K@Z 004ed9a8 f   nafxcw:inet.obj
 0001:000eca09       ?EnableStatusCallback@CInternetSession@@QAEHH@Z 004eda09 f   nafxcw:inet.obj
 0001:000eca68       ??1CInternetConnection@@UAE@XZ 004eda68 f   nafxcw:inet.obj
 0001:000eca9f       ??1CFtpConnection@@UAE@XZ  004eda9f f   nafxcw:inet.obj
 0001:000ecabd       ??_GCFtpConnection@@UAEPAXI@Z 004edabd f i nafxcw:inet.obj
 0001:000ecabd       ??_ECFtpConnection@@UAEPAXI@Z 004edabd f i nafxcw:inet.obj
 0001:000ecade       ?GetServerName@CInternetConnection@@QBE?AV?$CStringT@DV?$StrTraitMFC@DV?$ChTraitsCRT@D@ATL@@@@@ATL@@XZ 004edade f i nafxcw:inet.obj
 0001:000ecade       ?GetRoot@CFileFind@@UBE?AV?$CStringT@DV?$StrTraitMFC@DV?$ChTraitsCRT@D@ATL@@@@@ATL@@XZ 004edade f i nafxcw:filefind.obj
 0001:000ecafb       ?Close@CInternetSession@@UAEXXZ 004edafb f   nafxcw:inet.obj
 0001:000ecb2e       ??_ECInternetConnection@@UAEPAXI@Z 004edb2e f i nafxcw:inet.obj
 0001:000ecb2e       ??_GCInternetConnection@@UAEPAXI@Z 004edb2e f i nafxcw:inet.obj
 0001:000ecb4f       ?GetCurrentDirectoryA@CFtpConnection@@QBEHAAV?$CStringT@DV?$StrTraitMFC@DV?$ChTraitsCRT@D@ATL@@@@@ATL@@@Z 004edb4f f   nafxcw:inet.obj
 0001:000ecb98       ??_ECInternetSession@@UAEPAXI@Z 004edb98 f i nafxcw:inet.obj
 0001:000ecb98       ??_GCInternetSession@@UAEPAXI@Z 004edb98 f i nafxcw:inet.obj
 0001:000ecbbf       ?FindFile@CFtpFileFind@@UAEHPBDK@Z 004edbbf f   nafxcw:inet.obj
 0001:000ecd1b       ?SetFilePath@CFile@@UAEXPBD@Z 004edd1b f i nafxcw:inet.obj
 0001:000ecd35       ??0CInternetConnection@@QAE@PAVCInternetSession@@PBDGK@Z 004edd35 f   nafxcw:inet.obj
 0001:000ecd75       ??0CFtpConnection@@QAE@PAVCInternetSession@@PBD11KGH@Z 004edd75 f   nafxcw:inet.obj
 0001:000ece10       ?GetFileURL@CFtpFileFind@@UBE?AV?$CStringT@DV?$StrTraitMFC@DV?$ChTraitsCRT@D@ATL@@@@@ATL@@XZ 004ede10 f   nafxcw:inet.obj
 0001:000ece9d       ?GetFtpConnection@CInternetSession@@QAEPAVCFtpConnection@@PBD00GH@Z 004ede9d f   nafxcw:inet.obj
 0001:000ecf11       ?tcscpy_s@Checked@ATL@@YAXPADIPBD@Z 004edf11 f i nafxcw:filecore.obj
 0001:000ecf2f       ?GetBufferPtr@CFile@@UAEIIIPAPAX0@Z 004edf2f f   nafxcw:filecore.obj
 0001:000ecf34       ?Remove@CFile@@SGXPBD@Z    004edf34 f   nafxcw:filecore.obj
 0001:000ecf59       ?GetRuntimeClass@CFile@@UBEPAUCRuntimeClass@@XZ 004edf59 f   nafxcw:filecore.obj
 0001:000ecf5f       ?StringCchLengthA@@YGJPBDIPAI@Z 004edf5f f i nafxcw:filecore.obj
 0001:000ecf96       ?Read@CFile@@UAEIPAXI@Z    004edf96 f   nafxcw:filecore.obj
 0001:000ecfd8       ?Write@CFile@@UAEXPBXI@Z   004edfd8 f   nafxcw:filecore.obj
 0001:000ed025       ?Seek@CFile@@UAE_K_JI@Z    004ee025 f   nafxcw:filecore.obj
 0001:000ed078       ?GetPosition@CFile@@UBE_KXZ 004ee078 f   nafxcw:filecore.obj
 0001:000ed0c4       ?Flush@CFile@@UAEXXZ       004ee0c4 f   nafxcw:filecore.obj
 0001:000ed0ed       ?LockRange@CFile@@UAEX_K0@Z 004ee0ed f   nafxcw:filecore.obj
 0001:000ed122       ?UnlockRange@CFile@@UAEX_K0@Z 004ee122 f   nafxcw:filecore.obj
 0001:000ed157       ?SetLength@CFile@@UAEX_K@Z 004ee157 f   nafxcw:filecore.obj
 0001:000ed18d       ?GetLength@CFile@@UBE_KXZ  004ee18d f   nafxcw:filecore.obj
 0001:000ed1ce       ?AfxGetFileTitle@@YGIPBDPADI@Z 004ee1ce f   nafxcw:filecore.obj
 0001:000ed23c       ?Close@CFile@@UAEXXZ       004ee23c f   nafxcw:filecore.obj
 0001:000ed281       ?Abort@CFile@@UAEXXZ       004ee281 f   nafxcw:filecore.obj
 0001:000ed2a2       ??0CFile@@QAE@XZ           004ee2a2 f   nafxcw:filecore.obj
 0001:000ed2c1       ?Duplicate@CFile@@UBEPAV1@XZ 004ee2c1 f   nafxcw:filecore.obj
 0001:000ed337       ?AfxGetRoot@@YGXPBDAAV?$CStringT@DV?$StrTraitMFC@DV?$ChTraitsCRT@D@ATL@@@@@ATL@@@Z 004ee337 f   nafxcw:filecore.obj
 0001:000ed37d       ??1CFile@@UAE@XZ           004ee37d f   nafxcw:filecore.obj
 0001:000ed478       ??_ECFile@@UAEPAXI@Z       004ee478 f i nafxcw:filecore.obj
 0001:000ed478       ??_GCFile@@UAEPAXI@Z       004ee478 f i nafxcw:filecore.obj
 0001:000ed499       ?_AfxFillExceptionInfo@@YGXPAVCFileException@@PBD@Z 004ee499 f   nafxcw:filecore.obj
 0001:000ed4c8       ?_AfxFullPath2@@YGHPADPBDPAVCFileException@@@Z 004ee4c8 f   nafxcw:filecore.obj
 0001:000ed687       ?AfxFullPath@@YGHPADPBD@Z  004ee687 f   nafxcw:filecore.obj
 0001:000ed69d       ?Open@CFile@@UAEHPBDIPAVCFileException@@@Z 004ee69d f   nafxcw:filecore.obj
 0001:000ed887       ??0CFile@@QAE@PBDI@Z       004ee887 f   nafxcw:filecore.obj
 0001:000ed8fe       ??1CTreeCtrl@@UAE@XZ       004ee8fe f   nafxcw:winctrl2.obj
 0001:000ed92f       ?GetItemData@CTreeCtrl@@QBEKPAU_TREEITEM@@@Z 004ee92f f   nafxcw:winctrl2.obj
 0001:000ed979       ?SetItem@CTreeCtrl@@QAEHPAU_TREEITEM@@IPBDHHIIJ@Z 004ee979 f   nafxcw:winctrl2.obj
 0001:000ed9c9       ?InsertItem@CTreeCtrl@@QAEPAU_TREEITEM@@IPBDHHIIJPAU2@1@Z 004ee9c9 f   nafxcw:winctrl2.obj
 0001:000eda1f       ?GetRuntimeClass@CTreeCtrl@@UBEPAUCRuntimeClass@@XZ 004eea1f f   nafxcw:winctrl2.obj
 0001:000eda25       ?GetRuntimeClass@CImageList@@UBEPAUCRuntimeClass@@XZ 004eea25 f   nafxcw:winctrl2.obj
 0001:000eda2b       ?Destruct@?$ConstructDestruct@VCImageList@@@@SGXPAVCObject@@@Z 004eea2b f i nafxcw:winctrl2.obj
 0001:000eda2b       ?Destruct@?$ConstructDestruct@VCMenu@@@@SGXPAVCObject@@@Z 004eea2b f i nafxcw:winmenu.obj
 0001:000eda2b       ?Destruct@?$ConstructDestruct@VCDC@@@@SGXPAVCObject@@@Z 004eea2b f i nafxcw:wingdi.obj
 0001:000eda2b       ?Destruct@?$ConstructDestruct@VCGdiObject@@@@SGXPAVCObject@@@Z 004eea2b f i nafxcw:wingdi.obj
 0001:000eda2b       ?Destruct@?$ConstructDestruct@VCWnd@@@@SGXPAVCObject@@@Z 004eea2b f i nafxcw:wincore.obj
 0001:000eda3e       ??0CImageList@@QAE@XZ      004eea3e f   nafxcw:winctrl2.obj
 0001:000eda4b       ?CreateObject@CImageList@@SGPAVCObject@@XZ 004eea4b f   nafxcw:winctrl2.obj
 0001:000eda65       ?Construct@?$ConstructDestruct@VCImageList@@@@SGXPAVCObject@@@Z 004eea65 f i nafxcw:winctrl2.obj
 0001:000eda7f       ?GetProcAddress_ImageList_Create@CComCtlWrapper@@QAE?AUImageList_Create_Type@1@XZ 004eea7f f i nafxcw:winctrl2.obj
 0001:000edaae       ?_ImageList_Create@CComCtlWrapper@@QAEPAU_IMAGELIST@@HHIHH@Z 004eeaae f i nafxcw:winctrl2.obj
 0001:000edb65       ?GetProcAddress_ImageList_Destroy@CComCtlWrapper@@QAE?AUImageList_Destroy_Type@1@XZ 004eeb65 f i nafxcw:winctrl2.obj
 0001:000edb94       ?_ImageList_Destroy@CComCtlWrapper@@QAEHPAU_IMAGELIST@@@Z 004eeb94 f i nafxcw:winctrl2.obj
 0001:000edc3f       ?AfxImageList_Create@@YGPAU_IMAGELIST@@HHIHH@Z 004eec3f f i nafxcw:winctrl2.obj
 0001:000edc66       ?AfxImageList_Destroy@@YGHPAU_IMAGELIST@@@Z 004eec66 f i nafxcw:winctrl2.obj
 0001:000edc81       ?afxMapHIMAGELIST@@YGPAVCHandleMap@@H@Z 004eec81 f   nafxcw:winctrl2.obj
 0001:000edcf5       ?Detach@CImageList@@QAEPAU_IMAGELIST@@XZ 004eecf5 f   nafxcw:winctrl2.obj
 0001:000edd21       ?DeleteImageList@CImageList@@QAEHXZ 004eed21 f   nafxcw:winctrl2.obj
 0001:000edd36       ?FromHandle@CImageList@@SGPAV1@PAU_IMAGELIST@@@Z 004eed36 f   nafxcw:winctrl2.obj
 0001:000edd4a       ?FromHandlePermanent@CImageList@@SGPAV1@PAU_IMAGELIST@@@Z 004eed4a f   nafxcw:winctrl2.obj
 0001:000edd6b       ?Attach@CImageList@@QAEHPAU_IMAGELIST@@@Z 004eed6b f   nafxcw:winctrl2.obj
 0001:000edd9b       ?RemoveImageList@CTreeCtrl@@IAEXH@Z 004eed9b f   nafxcw:winctrl2.obj
 0001:000eddd8       ?OnDestroy@CTreeCtrl@@QAEXXZ 004eedd8 f   nafxcw:winctrl2.obj
 0001:000eddf5       ?Create@CImageList@@QAEHHHIHH@Z 004eedf5 f   nafxcw:winctrl2.obj
 0001:000ede1e       ?GetItemText@CTreeCtrl@@QBE?AV?$CStringT@DV?$StrTraitMFC@DV?$ChTraitsCRT@D@ATL@@@@@ATL@@PAU_TREEITEM@@@Z 004eee1e f   nafxcw:winctrl2.obj
 0001:000ede98       ?GetMessageMap@CTreeCtrl@@MBEPBUAFX_MSGMAP@@XZ 004eee98 f   nafxcw:winctrl2.obj
 0001:000ede9e       ??1CImageList@@UAE@XZ      004eee9e f   nafxcw:winctrl2.obj
 0001:000edf69       ??_ECImageList@@UAEPAXI@Z  004eef69 f i nafxcw:winctrl2.obj
 0001:000edf69       ??_GCImageList@@UAEPAXI@Z  004eef69 f i nafxcw:winctrl2.obj
 0001:000edf8a       ?SetAttribDC@CDC@@UAEXPAUHDC__@@@Z 004eef8a f   nafxcw:wingdi.obj
 0001:000edf99       ?SetOutputDC@CDC@@UAEXPAUHDC__@@@Z 004eef99 f   nafxcw:wingdi.obj
 0001:000edfa8       ?ReleaseAttribDC@CDC@@UAEXXZ 004eefa8 f   nafxcw:wingdi.obj
 0001:000edfad       ?ReleaseOutputDC@CDC@@UAEXXZ 004eefad f   nafxcw:wingdi.obj
 0001:000edfb2       ?SaveDC@CDC@@UAEHXZ        004eefb2 f   nafxcw:wingdi.obj
 0001:000edfe5       ?RestoreDC@CDC@@UAEHH@Z    004eefe5 f   nafxcw:wingdi.obj
 0001:000ee027       ?SetBkColor@CDC@@UAEKK@Z   004ef027 f   nafxcw:wingdi.obj
 0001:000ee05a       ?SetTextColor@CDC@@UAEKK@Z 004ef05a f   nafxcw:wingdi.obj
 0001:000ee08d       ?SetMapMode@CDC@@UAEHH@Z   004ef08d f   nafxcw:wingdi.obj
 0001:000ee0bf       ?GetClipBox@CDC@@UBEHPAUtagRECT@@@Z 004ef0bf f   nafxcw:wingdi.obj
 0001:000ee0d4       ?LineTo@CDC@@QAEHHH@Z      004ef0d4 f   nafxcw:wingdi.obj
 0001:000ee10b       ?GetRuntimeClass@CResourceException@@UBEPAUCRuntimeClass@@XZ 004ef10b f   nafxcw:wingdi.obj
 0001:000ee111       ?GetRuntimeClass@CUserException@@UBEPAUCRuntimeClass@@XZ 004ef111 f   nafxcw:wingdi.obj
 0001:000ee117       ?GetRuntimeClass@CDC@@UBEPAUCRuntimeClass@@XZ 004ef117 f   nafxcw:wingdi.obj
 0001:000ee11d       ?GetRuntimeClass@CPaintDC@@UBEPAUCRuntimeClass@@XZ 004ef11d f   nafxcw:wingdi.obj
 0001:000ee123       ?GetRuntimeClass@CGdiObject@@UBEPAUCRuntimeClass@@XZ 004ef123 f   nafxcw:wingdi.obj
 0001:000ee129       ?GetRuntimeClass@CBitmap@@UBEPAUCRuntimeClass@@XZ 004ef129 f   nafxcw:wingdi.obj
 0001:000ee12f       ?AfxThrowResourceException@@YGXXZ 004ef12f f   nafxcw:wingdi.obj
 0001:000ee14b       ?AfxThrowUserException@@YGXXZ 004ef14b f   nafxcw:wingdi.obj
 0001:000ee167       ??0CDC@@QAE@XZ             004ef167 f   nafxcw:wingdi.obj
 0001:000ee17b       ?PtVisible@CDC@@UBEHHH@Z   004ef17b f i nafxcw:wingdi.obj
 0001:000ee193       ?RectVisible@CDC@@UBEHPBUtagRECT@@@Z 004ef193 f i nafxcw:wingdi.obj
 0001:000ee1a8       ?TextOutA@CDC@@UAEHHHPBDH@Z 004ef1a8 f i nafxcw:wingdi.obj
 0001:000ee1c6       ?ExtTextOutA@CDC@@UAEHHHIPBUtagRECT@@PBDIPAH@Z 004ef1c6 f i nafxcw:wingdi.obj
 0001:000ee1ed       ?TabbedTextOutA@CDC@@UAE?AVCSize@@HHPBDHHPAHH@Z 004ef1ed f i nafxcw:wingdi.obj
 0001:000ee225       ?DrawTextA@CDC@@UAEHPBDHPAUtagRECT@@I@Z 004ef225 f i nafxcw:wingdi.obj
 0001:000ee243       ?DrawTextExA@CDC@@UAEHPADHPAUtagRECT@@IPAUtagDRAWTEXTPARAMS@@@Z 004ef243 f i nafxcw:wingdi.obj
 0001:000ee264       ?GrayStringA@CDC@@UAEHPAVCBrush@@P6GHPAUHDC__@@JH@ZJHHHHH@Z 004ef264 f i nafxcw:wingdi.obj
 0001:000ee296       ?Escape@CDC@@UAEHHHPBDPAX@Z 004ef296 f i nafxcw:wingdi.obj
 0001:000ee2b4       ?SetViewportOrg@CDC@@UAE?AVCPoint@@HH@Z 004ef2b4 f   nafxcw:wingdi.obj
 0001:000ee2f3       ?OffsetViewportOrg@CDC@@UAE?AVCPoint@@HH@Z 004ef2f3 f   nafxcw:wingdi.obj
 0001:000ee332       ?SetViewportExt@CDC@@UAE?AVCSize@@HH@Z 004ef332 f   nafxcw:wingdi.obj
 0001:000ee371       ?ScaleViewportExt@CDC@@UAE?AVCSize@@HHHH@Z 004ef371 f   nafxcw:wingdi.obj
 0001:000ee3bc       ?SetWindowExt@CDC@@UAE?AVCSize@@HH@Z 004ef3bc f   nafxcw:wingdi.obj
 0001:000ee3fb       ?ScaleWindowExt@CDC@@UAE?AVCSize@@HHHH@Z 004ef3fb f   nafxcw:wingdi.obj
 0001:000ee446       ?MoveTo@CDC@@QAE?AVCPoint@@HH@Z 004ef446 f   nafxcw:wingdi.obj
 0001:000ee485       ?ScreenToClient@CWnd@@QBEXPAUtagRECT@@@Z 004ef485 f   nafxcw:wingdi.obj
 0001:000ee4c6       ?CreateObject@CDC@@SGPAVCObject@@XZ 004ef4c6 f   nafxcw:wingdi.obj
 0001:000ee4e7       ?CreateObject@CGdiObject@@SGPAVCObject@@XZ 004ef4e7 f   nafxcw:wingdi.obj
 0001:000ee501       ?Construct@?$ConstructDestruct@VCDC@@@@SGXPAVCObject@@@Z 004ef501 f i nafxcw:wingdi.obj
 0001:000ee522       ?Construct@?$ConstructDestruct@VCGdiObject@@@@SGXPAVCObject@@@Z 004ef522 f i nafxcw:wingdi.obj
 0001:000ee53c       ??_ECNotSupportedException@@UAEPAXI@Z 004ef53c f i nafxcw:except.obj
 0001:000ee53c       ??_ECUserException@@UAEPAXI@Z 004ef53c f i nafxcw:wingdi.obj
 0001:000ee53c       ??_ECResourceException@@UAEPAXI@Z 004ef53c f i nafxcw:wingdi.obj
 0001:000ee53c       ??_GCMemoryException@@UAEPAXI@Z 004ef53c f i nafxcw:except.obj
 0001:000ee53c       ??_ECInvalidArgException@@UAEPAXI@Z 004ef53c f i nafxcw:except.obj
 0001:000ee53c       ??_GCInvalidArgException@@UAEPAXI@Z 004ef53c f i nafxcw:except.obj
 0001:000ee53c       ??_ECMemoryException@@UAEPAXI@Z 004ef53c f i nafxcw:except.obj
 0001:000ee53c       ??_GCNotSupportedException@@UAEPAXI@Z 004ef53c f i nafxcw:except.obj
 0001:000ee53c       ??_GCUserException@@UAEPAXI@Z 004ef53c f i nafxcw:wingdi.obj
 0001:000ee53c       ??_GCResourceException@@UAEPAXI@Z 004ef53c f i nafxcw:wingdi.obj
 0001:000ee55e       ?afxMapHDC@@YGPAVCHandleMap@@H@Z 004ef55e f   nafxcw:wingdi.obj
 0001:000ee5d2       ?FromHandle@CDC@@SGPAV1@PAUHDC__@@@Z 004ef5d2 f   nafxcw:wingdi.obj
 0001:000ee5e6       ?Attach@CDC@@QAEHPAUHDC__@@@Z 004ef5e6 f   nafxcw:wingdi.obj
 0001:000ee61c       ?Detach@CDC@@QAEPAUHDC__@@XZ 004ef61c f   nafxcw:wingdi.obj
 0001:000ee64f       ??1CDC@@UAE@XZ             004ef64f f   nafxcw:wingdi.obj
 0001:000ee668       ??0CPaintDC@@QAE@PAVCWnd@@@Z 004ef668 f   nafxcw:wingdi.obj
 0001:000ee6bc       ??1CPaintDC@@UAE@XZ        004ef6bc f   nafxcw:wingdi.obj
 0001:000ee6fc       ?afxMapHGDIOBJ@@YGPAVCHandleMap@@H@Z 004ef6fc f   nafxcw:wingdi.obj
 0001:000ee770       ?FromHandle@CGdiObject@@SGPAV1@PAX@Z 004ef770 f   nafxcw:wingdi.obj
 0001:000ee784       ?Attach@CGdiObject@@QAEHPAX@Z 004ef784 f   nafxcw:wingdi.obj
 0001:000ee7b0       ?Detach@CGdiObject@@QAEPAXXZ 004ef7b0 f   nafxcw:wingdi.obj
 0001:000ee7dc       ?DeleteObject@CGdiObject@@QAEHXZ 004ef7dc f   nafxcw:wingdi.obj
 0001:000ee7f2       ??_ECDC@@UAEPAXI@Z         004ef7f2 f i nafxcw:wingdi.obj
 0001:000ee7f2       ??_GCDC@@UAEPAXI@Z         004ef7f2 f i nafxcw:wingdi.obj
 0001:000ee813       ?SelectStockObject@CDC@@UAEPAVCGdiObject@@H@Z 004ef813 f   nafxcw:wingdi.obj
 0001:000ee854       ?SelectObject@CDC@@UAEPAVCFont@@PAV2@@Z 004ef854 f   nafxcw:wingdi.obj
 0001:000ee89f       ??_ECPaintDC@@UAEPAXI@Z    004ef89f f i nafxcw:wingdi.obj
 0001:000ee89f       ??_GCPaintDC@@UAEPAXI@Z    004ef89f f i nafxcw:wingdi.obj
 0001:000ee8c0       ?GetMessageMap@CWinApp@@MBEPBUAFX_MSGMAP@@XZ 004ef8c0 f   nafxcw:appcore.obj
 0001:000ee8c0       ?GetThisMessageMap@CWinApp@@KGPBUAFX_MSGMAP@@XZ 004ef8c0 f   nafxcw:appcore.obj
 0001:000ee8e0       ??0CActivationContext@@QAE@PAX@Z 004ef8e0 f i nafxcw:appcore.obj
 0001:000ee997       ?Create@CActivationContext@@QAE_NPBUtagACTCTXA@@@Z 004ef997 f i nafxcw:appcore.obj
 0001:000ee9d1       ?Activate@CActivationContext@@QAE_NXZ 004ef9d1 f i nafxcw:appcore.obj
 0001:000ee9fe       ?Deactivate@CActivationContext@@QAE_NXZ 004ef9fe f i nafxcw:appcore.obj
 0001:000eea24       ?_LoadSysPolicies@CWinApp@@IAEHXZ 004efa24 f   nafxcw:appcore.obj
 0001:000eeae9       ?InitApplication@CWinApp@@UAEHXZ 004efae9 f   nafxcw:appcore.obj
 0001:000eeb29       ?SaveStdProfileSettings@CWinApp@@IAEXXZ 004efb29 f   nafxcw:appcore.obj
 0001:000eeb60       ?ExitInstance@CWinApp@@UAEHXZ 004efb60 f   nafxcw:appcore.obj
 0001:000eebc3       ?AfxPostQuitMessage@@YGXH@Z 004efbc3 f   nafxcw:appcore.obj
 0001:000eebe5       ?ProcessWndProcException@CWinApp@@UAEJPAVCException@@PBUtagMSG@@@Z 004efbe5 f   nafxcw:appcore.obj
 0001:000eec68       ?OnIdle@CWinApp@@UAEHJ@Z   004efc68 f   nafxcw:appcore.obj
 0001:000eecce       ?DevModeChange@CWinApp@@QAEXPAD@Z 004efcce f   nafxcw:appcore.obj
 0001:000eed6e       ?GetRuntimeClass@CWinApp@@UBEPAUCRuntimeClass@@XZ 004efd6e f   nafxcw:appcore.obj
 0001:000eed74       ?AfxSetResourceHandle@@YGXPAUHINSTANCE__@@@Z 004efd74 f i nafxcw:appcore.obj
 0001:000eee5a       ?Release@CActivationContext@@QAEXXZ 004efe5a f i nafxcw:appcore.obj
 0001:000eee7a       ?LoadSysPolicies@CWinApp@@UAEHXZ 004efe7a f   nafxcw:appcore.obj
 0001:000eee7f       ?InitInstance@CWinApp@@UAEHXZ 004efe7f f   nafxcw:appcore.obj
 0001:000eeeb3       ?Run@CWinApp@@UAEHXZ       004efeb3 f   nafxcw:appcore.obj
 0001:000eeed6       ?WinHelpA@CWinApp@@UAEXKI@Z 004efed6 f   nafxcw:appcore.obj
 0001:000eef17       ?HtmlHelpA@CWinApp@@UAEXKI@Z 004eff17 f   nafxcw:appcore.obj
 0001:000eef5b       ?WinHelpInternal@CWinApp@@UAEXKI@Z 004eff5b f   nafxcw:appcore.obj
 0001:000eef9f       ??1CActivationContext@@QAE@XZ 004eff9f f i nafxcw:appcore.obj
 0001:000eefa4       ?AfxLoadLangResourceDLL@@YGPAUHINSTANCE__@@PBD0@Z 004effa4 f   nafxcw:appcore.obj
 0001:000ef213       ?LoadAppLangResourceDLL@CWinApp@@UAEPAUHINSTANCE__@@XZ 004f0213 f   nafxcw:appcore.obj
 0001:000ef287       ??0CWinApp@@QAE@PBD@Z      004f0287 f   nafxcw:appcore.obj
 0001:000ef35e       ??1CWinApp@@UAE@XZ         004f035e f   nafxcw:appcore.obj
 0001:000ef535       ??_ECWinApp@@UAEPAXI@Z     004f0535 f i nafxcw:appcore.obj
 0001:000ef535       ??_GCWinApp@@UAEPAXI@Z     004f0535 f i nafxcw:appcore.obj
 0001:000ef556       ?OnHelp@CWinApp@@IAEXXZ    004f0556 f   nafxcw:apphelpx.obj
 0001:000ef59c       ?IsValidFILETIME@CTime@ATL@@SGHABU_FILETIME@@@Z 004f059c f i nafxcw:filest.obj
 0001:000ef5cd       ?GetStatus@CFile@@SGHPBDAAUCFileStatus@@@Z 004f05cd f   nafxcw:filest.obj
 0001:000ef749       ?GetStatus@CFile@@QBEHAAUCFileStatus@@@Z 004f0749 f   nafxcw:filest.obj
 0001:000ef8a9       ?GetFileName@CFile@@UBE?AV?$CStringT@DV?$StrTraitMFC@DV?$ChTraitsCRT@D@ATL@@@@@ATL@@XZ 004f08a9 f   nafxcw:filest.obj
 0001:000ef93e       ?GetFileTitle@CFile@@UBE?AV?$CStringT@DV?$StrTraitMFC@DV?$ChTraitsCRT@D@ATL@@@@@ATL@@XZ 004f093e f   nafxcw:filest.obj
 0001:000ef9d3       ?GetFilePath@CFile@@UBE?AV?$CStringT@DV?$StrTraitMFC@DV?$ChTraitsCRT@D@ATL@@@@@ATL@@XZ 004f09d3 f   nafxcw:filest.obj
 0001:000efa43       ?AfxGetThread@@YGPAVCWinThread@@XZ 004f0a43 f   nafxcw:thrdcore.obj
 0001:000efa4c       ?AfxGetCurrentMessage@@YGPAUtagMSG@@XZ 004f0a4c f   nafxcw:thrdcore.obj
 0001:000efa55       ?AfxInternalProcessWndProcException@@YGJPAVCException@@PBUtagMSG@@@Z 004f0a55 f   nafxcw:thrdcore.obj
 0001:000efa7f       ?AfxProcessWndProcException@@YGJPAVCException@@PBUtagMSG@@@Z 004f0a7f f   nafxcw:thrdcore.obj
 0001:000efa9c       ?CommonConstruct@CWinThread@@QAEXXZ 004f0a9c f   nafxcw:thrdcore.obj
 0001:000efad5       ??1CWinThread@@UAE@XZ      004f0ad5 f   nafxcw:thrdcore.obj
 0001:000efb1d       ?Delete@CWinThread@@UAEXXZ 004f0b1d f   nafxcw:thrdcore.obj
 0001:000efb2b       ?Run@CWinThread@@UAEHXZ    004f0b2b f   nafxcw:thrdcore.obj
 0001:000efbbf       ?ExitInstance@CWinThread@@UAEHXZ 004f0bbf f   nafxcw:thrdcore.obj
 0001:000efbc8       ?DispatchThreadMessageEx@CWinThread@@IAEHPAUtagMSG@@@Z 004f0bc8 f   nafxcw:thrdcore.obj
 0001:000efc46       ?ProcessWndProcException@CWinThread@@UAEJPAVCException@@PBUtagMSG@@@Z 004f0c46 f   nafxcw:thrdcore.obj
 0001:000efc51       ?IsEnterKey@@YAHPAUtagMSG@@@Z 004f0c51 f i nafxcw:thrdcore.obj
 0001:000efc71       ?GetRuntimeClass@CWinThread@@UBEPAUCRuntimeClass@@XZ 004f0c71 f   nafxcw:thrdcore.obj
 0001:000efc77       ??8CPoint@@QBEHUtagPOINT@@@Z 004f0c77 f i nafxcw:thrdcore.obj
 0001:000efc96       ?AfxInternalPreTranslateMessage@@YAHPAUtagMSG@@@Z 004f0c96 f   nafxcw:thrdcore.obj
 0001:000efd09       ?AfxPreTranslateMessage@@YAHPAUtagMSG@@@Z 004f0d09 f   nafxcw:thrdcore.obj
 0001:000efd2a       ?AfxInternalIsIdleMessage@@YAHPAUtagMSG@@@Z 004f0d2a f   nafxcw:thrdcore.obj
 0001:000efd9b       ?AfxIsIdleMessage@@YAHPAUtagMSG@@@Z 004f0d9b f   nafxcw:thrdcore.obj
 0001:000efdbc       ??_GCWinThread@@UAEPAXI@Z  004f0dbc f i nafxcw:thrdcore.obj
 0001:000efdbc       ??_ECWinThread@@UAEPAXI@Z  004f0dbc f i nafxcw:thrdcore.obj
 0001:000efddd       ??0CWinThread@@QAE@XZ      004f0ddd f   nafxcw:thrdcore.obj
 0001:000efe13       ?IsIdleMessage@CWinThread@@UAEHPAUtagMSG@@@Z 004f0e13 f   nafxcw:thrdcore.obj
 0001:000efe25       ?PreTranslateMessage@CWinThread@@UAEHPAUtagMSG@@@Z 004f0e25 f   nafxcw:thrdcore.obj
 0001:000efe37       ?GetMainWnd@CWinThread@@UAEPAVCWnd@@XZ 004f0e37 f   nafxcw:thrdcore.obj
 0001:000efe52       ?AfxInternalPumpMessage@@YGHXZ 004f0e52 f   nafxcw:thrdcore.obj
 0001:000efe98       ?AfxPumpMessage@@YGHXZ     004f0e98 f   nafxcw:thrdcore.obj
 0001:000efeae       ?_AfxMsgFilterHook@@YGJHIJ@Z 004f0eae f   nafxcw:thrdcore.obj
 0001:000eff12       ?ProcessMessageFilter@CWinThread@@UAEHHPAUtagMSG@@@Z 004f0f12 f   nafxcw:thrdcore.obj
 0001:000f0041       ?PumpMessage@CWinThread@@UAEHXZ 004f1041 f   nafxcw:thrdcore.obj
 0001:000f0046       ?AfxInitThread@@YGXXZ      004f1046 f   nafxcw:thrdcore.obj
 0001:000f0074       ?OnIdle@CWinThread@@UAEHJ@Z 004f1074 f   nafxcw:thrdcore.obj
 0001:000f0176       ?PreSubclassWindow@CWnd@@UAEXXZ 004f1176 f   nafxcw:wincore.obj
 0001:000f0176       __initp_misc_winxfltr      004f1176 f   libcmt:winxfltr.obj
 0001:000f0176       ?PostNcDestroy@CWnd@@MAEXXZ 004f1176 f   nafxcw:wincore.obj
 0001:000f0176       ?OnProperties@CScannerTrayWnd@@IAEXXZ 004f1176 f   ScannerTrayWnd.obj
 0001:000f0176       ?OnCancel@CPropertyPage@@UAEXXZ 004f1176 f   nafxcw:dlgprop.obj
 0001:000f0176       ??3@YAXPAX0@Z              004f1176 f   AlertDefinitionsFile.obj
 0001:000f0176       ?OnOK@CPropertyPage@@UAEXXZ 004f1176 f   nafxcw:dlgprop.obj
 0001:000f0176       __fpclear                  004f1176 f   libcmt:_fpinit_.obj
 0001:000f0176       ?PreInitDialog@CDialog@@MAEXXZ 004f1176 f   nafxcw:dlgcore.obj
 0001:000f0176       ?InitLibId@CWinApp@@UAEXXZ 004f1176 f   nafxcw:appui2.obj
 0001:000f0177       ?GetFirstDocTemplatePosition@CWinApp@@QBEPAU__POSITION@@XZ 004f1177 f   nafxcw:appui2.obj
 0001:000f0188       ?GetNextDocTemplate@CWinApp@@QBEPAVCDocTemplate@@AAPAU__POSITION@@@Z 004f1188 f   nafxcw:appui2.obj
 0001:000f01a1       ?AfxDelRegTreeHelper@@YGJPAUHKEY__@@ABV?$CStringT@DV?$StrTraitMFC@DV?$ChTraitsCRT@D@ATL@@@@@ATL@@@Z 004f11a1 f   nafxcw:appui2.obj
 0001:000f031f       ?Unregister@CWinApp@@UAEHXZ 004f131f f   nafxcw:appui2.obj
 0001:000f0492       ?DoWaitCursor@CWinApp@@UAEXH@Z 004f1492 f   nafxcw:appui.obj
 0001:000f0511       ?SaveAllModified@CWinApp@@UAEHXZ 004f1511 f   nafxcw:appui.obj
 0001:000f0523       ?AddToRecentFileList@CWinApp@@UAEXPBD@Z 004f1523 f   nafxcw:appui.obj
 0001:000f054c       ?OpenDocumentFile@CWinApp@@UAEPAVCDocument@@PBD@Z 004f154c f   nafxcw:appui.obj
 0001:000f0565       ?OnUpdateRecentFileMenu@CWinApp@@IAEXPAVCCmdUI@@@Z 004f1565 f   nafxcw:appui.obj
 0001:000f0598       ?OnDDECommand@CWinApp@@UAEHPAD@Z 004f1598 f   nafxcw:appui.obj
 0001:000f05b2       ??ACRecentFileList@@QAEAAV?$CStringT@DV?$StrTraitMFC@DV?$ChTraitsCRT@D@ATL@@@@@ATL@@H@Z 004f15b2 f i nafxcw:appui.obj
 0001:000f05d2       ?OnAppExit@CWinApp@@IAEXXZ 004f15d2 f   nafxcw:appui.obj
 0001:000f05e5       ?OnOpenRecentFile@CWinApp@@IAEHI@Z 004f15e5 f   nafxcw:appui.obj
 0001:000f0643       ?GetRuntimeClass@CMenu@@UBEPAUCRuntimeClass@@XZ 004f1643 f   nafxcw:winmenu.obj
 0001:000f0649       ?CreateObject@CMenu@@SGPAVCObject@@XZ 004f1649 f   nafxcw:winmenu.obj
 0001:000f0663       ?Construct@?$ConstructDestruct@VCMenu@@@@SGXPAVCObject@@@Z 004f1663 f i nafxcw:winmenu.obj
 0001:000f067d       ?afxMapHMENU@@YGPAVCHandleMap@@H@Z 004f167d f   nafxcw:winmenu.obj
 0001:000f06f1       ?FromHandle@CMenu@@SGPAV1@PAUHMENU__@@@Z 004f16f1 f   nafxcw:winmenu.obj
 0001:000f0705       ?FromHandlePermanent@CMenu@@SGPAV1@PAUHMENU__@@@Z 004f1705 f   nafxcw:winmenu.obj
 0001:000f0726       ?Attach@CMenu@@QAEHPAUHMENU__@@@Z 004f1726 f   nafxcw:winmenu.obj
 0001:000f0752       ?Detach@CMenu@@QAEPAUHMENU__@@XZ 004f1752 f   nafxcw:winmenu.obj
 0001:000f077e       ?DestroyMenu@CMenu@@QAEHXZ 004f177e f   nafxcw:winmenu.obj
 0001:000f0794       ?GetRuntimeClass@CObject@@UBEPAUCRuntimeClass@@XZ 004f1794 f   nafxcw:objcore.obj
 0001:000f079a       ?CreateObject@CRuntimeClass@@QAEPAVCObject@@XZ 004f179a f   nafxcw:objcore.obj
 0001:000f07e4       ?IsDerivedFrom@CRuntimeClass@@QBEHPBU1@@Z 004f17e4 f   nafxcw:objcore.obj
 0001:000f080f       ?IsKindOf@CObject@@QBEHPBUCRuntimeClass@@@Z 004f180f f   nafxcw:objcore.obj
 0001:000f082d       ?AfxDynamicDownCast@@YAPAVCObject@@PAUCRuntimeClass@@PAV1@@Z 004f182d f   nafxcw:objcore.obj
 0001:000f0850       ?AfxClassInit@@YGXPAUCRuntimeClass@@@Z 004f1850 f   nafxcw:objcore.obj
 0001:000f087b       ?GetRuntimeClass@CArchiveException@@UBEPAUCRuntimeClass@@XZ 004f187b f   nafxcw:arcex.obj
 0001:000f0881       ?GetErrorMessage@CArchiveException@@UBEHPADIPAI@Z 004f1881 f   nafxcw:arcex.obj
 0001:000f0932       ??0CArchiveException@@QAE@HPBD@Z 004f1932 f i nafxcw:arcex.obj
 0001:000f0976       ??_GCArchiveException@@UAEPAXI@Z 004f1976 f i nafxcw:arcex.obj
 0001:000f0976       ??_ECArchiveException@@UAEPAXI@Z 004f1976 f i nafxcw:arcex.obj
 0001:000f09a3       ?AfxThrowArchiveException@@YGXHPBD@Z 004f19a3 f   nafxcw:arcex.obj
 0001:000f09e6       ?Read@CArchive@@QAEIPAXI@Z 004f19e6 f   nafxcw:arccore.obj
 0001:000f0b17       ?Flush@CArchive@@QAEXXZ    004f1b17 f   nafxcw:arccore.obj
 0001:000f0b8f       ?FillBuffer@CArchive@@QAEXI@Z 004f1b8f f   nafxcw:arccore.obj
 0001:000f0c7e       ??6CArchive@@QAEAAV0@E@Z   004f1c7e f i nafxcw:arccore.obj
 0001:000f0cb9       ??6CArchive@@QAEAAV0@_K@Z  004f1cb9 f i nafxcw:arccore.obj
 0001:000f0cfd       ??6CArchive@@QAEAAV0@G@Z   004f1cfd f i nafxcw:arccore.obj
 0001:000f0d3c       ??5CArchive@@QAEAAV0@AAE@Z 004f1d3c f i nafxcw:arccore.obj
 0001:000f0d80       ??5CArchive@@QAEAAV0@AA_K@Z 004f1d80 f i nafxcw:arccore.obj
 0001:000f0dcd       ??5CArchive@@QAEAAV0@AAG@Z 004f1dcd f i nafxcw:arccore.obj
 0001:000f0e15       ?AfxReadStringLength@@YGIAAVCArchive@@AAH@Z 004f1e15 f   nafxcw:arccore.obj
 0001:000f0ec6       ?AfxWriteStringLength@@YGXAAVCArchive@@IH@Z 004f1ec6 f   nafxcw:arccore.obj
 0001:000f0f4a       ?FromName@CRuntimeClass@@SGPAU1@PBD@Z 004f1f4a f   nafxcw:arccore.obj
 0001:000f0f9c       ?Load@CRuntimeClass@@SGPAU1@AAVCArchive@@PAI@Z 004f1f9c f   nafxcw:arccore.obj
 0001:000f1013       ?Write@CArchive@@QAEXPBXI@Z 004f2013 f   nafxcw:arccore.obj
 0001:000f10da       ?WriteCount@CArchive@@QAEXK@Z 004f20da f   nafxcw:arccore.obj
 0001:000f110b       ?ReadCount@CArchive@@QAEKXZ 004f210b f   nafxcw:arccore.obj
 0001:000f113f       ?Store@CRuntimeClass@@QBEXAAVCArchive@@@Z 004f213f f   nafxcw:arccore.obj
 0001:000f117c       ?GetRuntimeClass@CByteArray@@UBEPAUCRuntimeClass@@XZ 004f217c f   nafxcw:array_b.obj
 0001:000f1182       ??0CByteArray@@QAE@XZ      004f2182 f   nafxcw:array_b.obj
 0001:000f1199       ??1CByteArray@@UAE@XZ      004f2199 f   nafxcw:array_b.obj
 0001:000f11a9       ?SetSize@CByteArray@@QAEXHH@Z 004f21a9 f   nafxcw:array_b.obj
 0001:000f12bb       ?SetAtGrow@CByteArray@@QAEXHE@Z 004f22bb f   nafxcw:array_b.obj
 0001:000f12ef       ?Serialize@CByteArray@@UAEXAAVCArchive@@@Z 004f22ef f   nafxcw:array_b.obj
 0001:000f136f       ?CreateObject@CByteArray@@SGPAVCObject@@XZ 004f236f f   nafxcw:array_b.obj
 0001:000f1385       ??_GCByteArray@@UAEPAXI@Z  004f2385 f i nafxcw:array_b.obj
 0001:000f1385       ??_ECByteArray@@UAEPAXI@Z  004f2385 f i nafxcw:array_b.obj
 0001:000f13a6       ?Create@CPlex@@SGPAU1@AAPAU1@II@Z 004f23a6 f   nafxcw:plex.obj
 0001:000f13d9       ?FreeDataChain@CPlex@@QAEXXZ 004f23d9 f   nafxcw:plex.obj
 0001:000f13ef       ??0CStdioFile@@QAE@XZ      004f23ef f   nafxcw:filetxt.obj
 0001:000f1407       ?Open@CStdioFile@@UAEHPBDIPAVCFileException@@@Z 004f2407 f   nafxcw:filetxt.obj
 0001:000f14f3       ?Abort@CStdioFile@@UAEXXZ  004f24f3 f   nafxcw:filetxt.obj
 0001:000f151e       ?Duplicate@CStdioFile@@UBEPAVCFile@@XZ 004f251e f   nafxcw:filetxt.obj
 0001:000f1523       ?UnlockRange@CStdioFile@@UAEX_K0@Z 004f2523 f   nafxcw:filetxt.obj
 0001:000f1523       ?LockRange@CStdioFile@@UAEX_K0@Z 004f2523 f   nafxcw:filetxt.obj
 0001:000f1529       ?GetRuntimeClass@CStdioFile@@UBEPAUCRuntimeClass@@XZ 004f2529 f   nafxcw:filetxt.obj
 0001:000f152f       ?Afx_clearerr_s@@YAXPAU_iobuf@@@Z 004f252f f i nafxcw:filetxt.obj
 0001:000f1546       ?Read@CStdioFile@@UAEIPAXI@Z 004f2546 f   nafxcw:filetxt.obj
 0001:000f15bc       ?Write@CStdioFile@@UAEXPBXI@Z 004f25bc f   nafxcw:filetxt.obj
 0001:000f15fe       ?WriteString@CStdioFile@@UAEXPBD@Z 004f25fe f   nafxcw:filetxt.obj
 0001:000f163a       ?ReadString@CStdioFile@@UAEPADPADI@Z 004f263a f   nafxcw:filetxt.obj
 0001:000f1695       ?Seek@CStdioFile@@UAE_K_JI@Z 004f2695 f   nafxcw:filetxt.obj
 0001:000f16f4       ?GetLength@CStdioFile@@UBE_KXZ 004f26f4 f   nafxcw:filetxt.obj
 0001:000f1768       ?GetPosition@CStdioFile@@UBE_KXZ 004f2768 f   nafxcw:filetxt.obj
 0001:000f1790       ?Flush@CStdioFile@@UAEXXZ  004f2790 f   nafxcw:filetxt.obj
 0001:000f17bb       ?Close@CStdioFile@@UAEXXZ  004f27bb f   nafxcw:filetxt.obj
 0001:000f17f9       ??1CStdioFile@@UAE@XZ      004f27f9 f   nafxcw:filetxt.obj
 0001:000f18f3       ??_ECStdioFile@@UAEPAXI@Z  004f28f3 f i nafxcw:filetxt.obj
 0001:000f18f3       ??_GCStdioFile@@UAEPAXI@Z  004f28f3 f i nafxcw:filetxt.obj
 0001:000f1914       ?ReadString@CStdioFile@@UAEHAAV?$CStringT@DV?$StrTraitMFC@DV?$ChTraitsCRT@D@ATL@@@@@ATL@@@Z 004f2914 f   nafxcw:filetxt.obj
 0001:000f19e7       ?GetRuntimeClass@CStringArray@@UBEPAUCRuntimeClass@@XZ 004f29e7 f   nafxcw:array_s.obj
 0001:000f19ed       ??0CStringArray@@QAE@XZ    004f29ed f   nafxcw:array_s.obj
 0001:000f1a04       ?CreateObject@CStringArray@@SGPAVCObject@@XZ 004f2a04 f   nafxcw:array_s.obj
 0001:000f1a6e       ?SetSize@CStringArray@@QAEXHH@Z 004f2a6e f   nafxcw:array_s.obj
 0001:000f1ba4       ??1CStringArray@@UAE@XZ    004f2ba4 f   nafxcw:array_s.obj
 0001:000f1c7c       ??_GCStringArray@@UAEPAXI@Z 004f2c7c f i nafxcw:array_s.obj
 0001:000f1c7c       ??_ECStringArray@@UAEPAXI@Z 004f2c7c f i nafxcw:array_s.obj
 0001:000f1c9d       ?SetAtGrow@CStringArray@@QAEXHABV?$CStringT@DV?$StrTraitMFC@DV?$ChTraitsCRT@D@ATL@@@@@ATL@@@Z 004f2c9d f   nafxcw:array_s.obj
 0001:000f1cef       ?Serialize@CStringArray@@UAEXAAVCArchive@@@Z 004f2cef f   nafxcw:array_s.obj
 0001:000f1d5d       ?OsErrorToException@CFileException@@SGHJ@Z 004f2d5d f   nafxcw:filex.obj
 0001:000f1ff5       ?GetRuntimeClass@CFileException@@UBEPAUCRuntimeClass@@XZ 004f2ff5 f   nafxcw:filex.obj
 0001:000f1ffb       ?GetErrorMessage@CFileException@@UBEHPADIPAI@Z 004f2ffb f   nafxcw:filex.obj
 0001:000f20a9       ?AfxThrowFileException@@YGXHJPBD@Z 004f30a9 f   nafxcw:filex.obj
 0001:000f20ef       ?ThrowOsError@CFileException@@SGXJPBD@Z 004f30ef f   nafxcw:filex.obj
 0001:000f2112       ?GetRuntimeClass@CStringList@@UBEPAUCRuntimeClass@@XZ 004f3112 f   nafxcw:list_s.obj
 0001:000f2118       ??0CStringList@@QAE@H@Z    004f3118 f   nafxcw:list_s.obj
 0001:000f2140       ?CreateObject@CStringList@@SGPAVCObject@@XZ 004f3140 f   nafxcw:list_s.obj
 0001:000f2159       ?NewNode@CStringList@@IAEPAUCNode@1@PAU21@0@Z 004f3159 f   nafxcw:list_s.obj
 0001:000f21c7       ?RemoveAll@CStringList@@QAEXXZ 004f31c7 f   nafxcw:list_s.obj
 0001:000f2209       ??_ECStringList@@UAEPAXI@Z 004f3209 f i nafxcw:list_s.obj
 0001:000f2209       ??_GCStringList@@UAEPAXI@Z 004f3209 f i nafxcw:list_s.obj
 0001:000f2230       ?AddTail@CStringList@@QAEPAU__POSITION@@ABV?$CStringT@DV?$StrTraitMFC@DV?$ChTraitsCRT@D@ATL@@@@@ATL@@@Z 004f3230 f   nafxcw:list_s.obj
 0001:000f2269       ?Serialize@CStringList@@UAEXAAVCArchive@@@Z 004f3269 f   nafxcw:list_s.obj
 0001:000f22e8       ?GetRuntimeClass@CPtrArray@@UBEPAUCRuntimeClass@@XZ 004f32e8 f   nafxcw:array_p.obj
 0001:000f22ee       ??0CPtrArray@@QAE@XZ       004f32ee f   nafxcw:array_p.obj
 0001:000f2305       ??1CPtrArray@@UAE@XZ       004f3305 f   nafxcw:array_p.obj
 0001:000f2315       ?SetAtGrow@CPtrArray@@QAEXHPAX@Z 004f3315 f   nafxcw:array_p.obj
 0001:000f2349       ?InsertAt@CPtrArray@@QAEXHPAXH@Z 004f3349 f   nafxcw:array_p.obj
 0001:000f23ef       ??_GCPtrArray@@UAEPAXI@Z   004f33ef f i nafxcw:array_p.obj
 0001:000f23ef       ??_ECPtrArray@@UAEPAXI@Z   004f33ef f i nafxcw:array_p.obj
 0001:000f2410       ?HasFont@@YAHPBUDLGTEMPLATE@@@Z 004f3410 f i nafxcw:dlgtempl.obj
 0001:000f242f       ??1CDialogTemplate@@QAE@XZ 004f342f f   nafxcw:dlgtempl.obj
 0001:000f243d       ?Detach@CDialogTemplate@@QAEPAXXZ 004f343d f   nafxcw:dlgtempl.obj
 0001:000f2443       ?_SkipString@@YAPA_WPA_W@Z 004f3443 f i nafxcw:dlgtempl.obj
 0001:000f2457       ?GetFontSizeField@CDialogTemplate@@KAPAEPBUDLGTEMPLATE@@@Z 004f3457 f   nafxcw:dlgtempl.obj
 0001:000f24a8       ?GetTemplateSize@CDialogTemplate@@KAIPBUDLGTEMPLATE@@@Z 004f34a8 f   nafxcw:dlgtempl.obj
 0001:000f257a       ?SetTemplate@CDialogTemplate@@IAEHPBUDLGTEMPLATE@@I@Z 004f357a f   nafxcw:dlgtempl.obj
 0001:000f25dc       ?SetFont@CDialogTemplate@@QAEHPBDG@Z 004f35dc f   nafxcw:dlgtempl.obj
 0001:000f2730       ?SetSystemFont@CDialogTemplate@@QAEHG@Z 004f3730 f   nafxcw:dlgtempl.obj
 0001:000f27d4       ??0CDialogTemplate@@QAE@PBUDLGTEMPLATE@@@Z 004f37d4 f   nafxcw:dlgtempl.obj
 0001:000f2810       ?GetFont@CDialogTemplate@@SAHPBUDLGTEMPLATE@@AAV?$CStringT@DV?$StrTraitMFC@DV?$ChTraitsCRT@D@ATL@@@@@ATL@@AAG@Z 004f3810 f   nafxcw:dlgtempl.obj
 0001:000f288f       ??_G_AFX_PROPPAGEFONTINFO@@UAEPAXI@Z 004f388f f i nafxcw:ccdata.obj
 0001:000f288f       ??_E_AFX_PROPPAGEFONTINFO@@UAEPAXI@Z 004f388f f i nafxcw:ccdata.obj
 0001:000f2944       ?CreateObject@?$CProcessLocal@U_AFX_PROPPAGEFONTINFO@@@@SGPAVCNoTrackObject@@XZ 004f3944 f i nafxcw:ccdata.obj
 0001:000f2963       ?AfxGetPropSheetFont@@YGHAAV?$CStringT@DV?$StrTraitMFC@DV?$ChTraitsCRT@D@ATL@@@@@ATL@@AAGH@Z 004f3963 f   nafxcw:ccdata.obj
 0001:000f2aae       ?AfxIsValidString@@YGHPBDH@Z 004f3aae f   nafxcw:validadd.obj
 0001:000f2abf       ?GetInterface@CCmdTarget@@QAEPAUIUnknown@@PBX@Z 004f3abf f   nafxcw:oleunk.obj
 0001:000f2b72       ?QueryAggregates@CCmdTarget@@QAEPAUIUnknown@@PBX@Z 004f3b72 f   nafxcw:oleunk.obj
 0001:000f2bd4       ?ExternalAddRef@CCmdTarget@@QAEKXZ 004f3bd4 f   nafxcw:oleunk.obj
 0001:000f2bef       ?InternalRelease@CCmdTarget@@QAEKXZ 004f3bef f   nafxcw:oleunk.obj
 0001:000f2c45       ?ExternalRelease@CCmdTarget@@QAEKXZ 004f3c45 f   nafxcw:oleunk.obj
 0001:000f2c5a       ?InternalQueryInterface@CCmdTarget@@QAEKPBXPAPAX@Z 004f3c5a f   nafxcw:oleunk.obj
 0001:000f2c9d       ?ExternalQueryInterface@CCmdTarget@@QAEKPBXPAPAX@Z 004f3c9d f   nafxcw:oleunk.obj
 0001:000f2cc0       ?UpdateSysColors@AUX_DATA@@QAEXXZ 004f3cc0 f   nafxcw:auxdata.obj
 0001:000f2d06       ?UpdateSysMetrics@AUX_DATA@@QAEXXZ 004f3d06 f   nafxcw:auxdata.obj
 0001:000f2d62       ??0AUX_DATA@@QAE@XZ        004f3d62 f   nafxcw:auxdata.obj
 0001:000f2dab       ??1AUX_DATA@@QAE@XZ        004f3dab f   nafxcw:auxdata.obj
 0001:000f2e70       ??2CNoTrackObject@@SGPAXI@Z 004f3e70 f   nafxcw:afxtls.obj
 0001:000f2e8d       ??3CNoTrackObject@@SGXPAX@Z 004f3e8d f   nafxcw:afxtls.obj
 0001:000f2ea3       ?GetThreadValue@CThreadSlotData@@QAEPAXH@Z 004f3ea3 f i nafxcw:afxtls.obj
 0001:000f2ef5       ?GetDataNA@CThreadLocalObject@@QAEPAVCNoTrackObject@@XZ 004f3ef5 f   nafxcw:afxtls.obj
 0001:000f2f0f       ?GetData@CProcessLocalObject@@QAEPAVCNoTrackObject@@P6GPAV2@XZ@Z 004f3f0f f   nafxcw:afxtls.obj
 0001:000f2f5f       ??1CProcessLocalObject@@QAE@XZ 004f3f5f f   nafxcw:afxtls.obj
 0001:000f2f88       ?GetNextPtr@CSimpleList@@QBEPAPAXPAX@Z 004f3f88 f i nafxcw:afxtls.obj
 0001:000f2fa2       ?AddHead@CSimpleList@@QAEXPAX@Z 004f3fa2 f   nafxcw:afxtls.obj
 0001:000f2fc0       ?Remove@CSimpleList@@QAEHPAX@Z 004f3fc0 f   nafxcw:afxtls.obj
 0001:000f3031       ?AllocSlot@CThreadSlotData@@QAEHXZ 004f4031 f   nafxcw:afxtls.obj
 0001:000f3149       ??0CThreadSlotData@@QAE@XZ 004f4149 f   nafxcw:afxtls.obj
 0001:000f3188       ?FreeSlot@CThreadSlotData@@QAEXH@Z 004f4188 f   nafxcw:afxtls.obj
 0001:000f31f0       ?SetValue@CThreadSlotData@@QAEXHPAX@Z 004f41f0 f   nafxcw:afxtls.obj
 0001:000f3325       ??_ECThreadData@@UAEPAXI@Z 004f4325 f i nafxcw:afxtls.obj
 0001:000f3325       ??_GCThreadData@@UAEPAXI@Z 004f4325 f i nafxcw:afxtls.obj
 0001:000f3340       ?DeleteValues@CThreadSlotData@@QAEXPAUCThreadData@@PAUHINSTANCE__@@@Z 004f4340 f   nafxcw:afxtls.obj
 0001:000f33d7       ?DeleteValues@CThreadSlotData@@QAEXPAUHINSTANCE__@@H@Z 004f43d7 f   nafxcw:afxtls.obj
 0001:000f3433       ?GetData@CThreadLocalObject@@QAEPAVCNoTrackObject@@P6GPAV2@XZ@Z 004f4433 f   nafxcw:afxtls.obj
 0001:000f34bd       ??1CThreadLocalObject@@QAE@XZ 004f44bd f   nafxcw:afxtls.obj
 0001:000f34dd       ?AfxTermLocalData@@YGXPAUHINSTANCE__@@H@Z 004f44dd f   nafxcw:afxtls.obj
 0001:000f34f6       ??1CThreadSlotData@@QAE@XZ 004f44f6 f   nafxcw:afxtls.obj
 0001:000f354f       ??_GCThreadSlotData@@QAEPAXI@Z 004f454f f i nafxcw:afxtls.obj
 0001:000f3570       ?AfxTlsRelease@@YGXXZ      004f4570 f   nafxcw:afxtls.obj
 0001:000f359a       ?InitHashTable@CMapPtrToPtr@@QAEXIH@Z 004f459a f   nafxcw:map_pp.obj
 0001:000f35f8       ?RemoveAll@CMapPtrToPtr@@QAEXXZ 004f45f8 f   nafxcw:map_pp.obj
 0001:000f3625       ?FreeAssoc@CMapPtrToPtr@@IAEXPAUCAssoc@1@@Z 004f4625 f   nafxcw:map_pp.obj
 0001:000f3643       ?GetAssocAt@CMapPtrToPtr@@IBEPAUCAssoc@1@PAXAAI1@Z 004f4643 f   nafxcw:map_pp.obj
 0001:000f367e       ?GetValueAt@CMapPtrToPtr@@QBEPAXPAX@Z 004f467e f   nafxcw:map_pp.obj
 0001:000f36c3       ?Lookup@CMapPtrToPtr@@QBEHPAXAAPAX@Z 004f46c3 f   nafxcw:map_pp.obj
 0001:000f36ec       ?RemoveKey@CMapPtrToPtr@@QAEHPAX@Z 004f46ec f   nafxcw:map_pp.obj
 0001:000f3734       ?GetNextAssoc@CMapPtrToPtr@@QBEXAAPAU__POSITION@@AAPAX1@Z 004f4734 f   nafxcw:map_pp.obj
 0001:000f37b1       ?GetRuntimeClass@CMapPtrToPtr@@UBEPAUCRuntimeClass@@XZ 004f47b1 f   nafxcw:map_pp.obj
 0001:000f37b7       ??0CMapPtrToPtr@@QAE@H@Z   004f47b7 f   nafxcw:map_pp.obj
 0001:000f37ea       ??1CMapPtrToPtr@@UAE@XZ    004f47ea f   nafxcw:map_pp.obj
 0001:000f37f5       ?NewAssoc@CMapPtrToPtr@@IAEPAUCAssoc@1@XZ 004f47f5 f   nafxcw:map_pp.obj
 0001:000f3845       ??ACMapPtrToPtr@@QAEAAPAXPAX@Z 004f4845 f   nafxcw:map_pp.obj
 0001:000f389c       ??_GCMapPtrToPtr@@UAEPAXI@Z 004f489c f i nafxcw:map_pp.obj
 0001:000f389c       ??_ECMapPtrToPtr@@UAEPAXI@Z 004f489c f i nafxcw:map_pp.obj
 0001:000f38c3       ?RemoveAll@CPtrList@@QAEXXZ 004f48c3 f   nafxcw:list_p.obj
 0001:000f38e5       ?FreeNode@CPtrList@@IAEXPAUCNode@1@@Z 004f48e5 f   nafxcw:list_p.obj
 0001:000f390c       ?RemoveHead@CPtrList@@QAEPAXXZ 004f490c f   nafxcw:list_p.obj
 0001:000f393d       ??0?$CStringT@DV?$StrTraitMFC@DV?$ChTraitsCRT@D@ATL@@@@@ATL@@QAE@PBDPAUIAtlStringMgr@1@@Z 004f493d f i nafxcw:appterm.obj
 0001:000f397c       ?Tokenize@?$CStringT@DV?$StrTraitMFC@DV?$ChTraitsCRT@D@ATL@@@@@ATL@@QBE?AV12@PBDAAH@Z 004f497c f i nafxcw:appterm.obj
 0001:000f3a31       ?AfxUnregisterWndClasses@@YGXXZ 004f4a31 f   nafxcw:appterm.obj
 0001:000f3ad0       ?AfxWinTerm@@YGXXZ         004f4ad0 f   nafxcw:appterm.obj
 0001:000f3b46       ?AfxSetWindowText@@YGXPAUHWND__@@PBD@Z 004f4b46 f   nafxcw:winutil.obj
 0001:000f3bde       ?AfxDeleteObject@@YGXPAPAX@Z 004f4bde f   nafxcw:winutil.obj
 0001:000f3c05       ?AfxGlobalFree@@YGXPAX@Z   004f4c05 f   nafxcw:winutil.obj
 0001:000f3c3d       ?AfxCriticalNewHandler@@YAHI@Z 004f4c3d f   nafxcw:winutil.obj
 0001:000f3c90       ?_AfxCompareClassName@@YGHPAUHWND__@@PBD@Z 004f4c90 f   nafxcw:winutil.obj
 0001:000f3cd6       ?_AfxChildWindowFromPoint@@YGPAUHWND__@@PAU1@UtagPOINT@@@Z 004f4cd6 f   nafxcw:winutil.obj
 0001:000f3d4c       ?AfxCriticalInit@@YGHXZ    004f4d4c f   nafxcw:afxcrit.obj
 0001:000f3d70       ?AfxCriticalTerm@@YGXXZ    004f4d70 f   nafxcw:afxcrit.obj
 0001:000f3db5       ?AfxLockGlobals@@YGXH@Z    004f4db5 f   nafxcw:afxcrit.obj
 0001:000f3e27       ?AfxUnlockGlobals@@YGXH@Z  004f4e27 f   nafxcw:afxcrit.obj
 0001:000f3e4c       ?AfxLockTempMaps@@YGXXZ    004f4e4c f   nafxcw:winhand.obj
 0001:000f3e55       ??0CHandleMap@@QAE@PAUCRuntimeClass@@P6GXPAVCObject@@@Z2IH@Z 004f4e55 f   nafxcw:winhand.obj
 0001:000f3ede       ?FromHandle@CHandleMap@@QAEPAVCObject@@PAX@Z 004f4ede f   nafxcw:winhand.obj
 0001:000f3f91       ?DeleteTemp@CHandleMap@@QAEXXZ 004f4f91 f   nafxcw:winhand.obj
 0001:000f3ff6       ??1CHandleMap@@UAE@XZ      004f4ff6 f i nafxcw:winhand.obj
 0001:000f4043       ??_ECHandleMap@@UAEPAXI@Z  004f5043 f i nafxcw:winhand.obj
 0001:000f4043       ??_GCHandleMap@@UAEPAXI@Z  004f5043 f i nafxcw:winhand.obj
 0001:000f4064       ?AfxUnlockTempMaps@@YGHH@Z 004f5064 f   nafxcw:winhand.obj
 0001:000f415f       ?AfxOleCanExitApp@@YGHXZ   004f515f f   nafxcw:olelock.obj
 0001:000f416f       ?AfxOleLockApp@@YGXXZ      004f516f f   nafxcw:olelock.obj
 0001:000f417f       ?AfxOleSetUserCtrl@@YGXH@Z 004f517f f   nafxcw:olelock.obj
 0001:000f4193       ?AfxOleGetUserCtrl@@YGHXZ  004f5193 f   nafxcw:olelock.obj
 0001:000f419c       ?AfxOleOnReleaseAllObjects@@YGXXZ 004f519c f   nafxcw:olelock.obj
 0001:000f41e8       ?AfxOleUnlockApp@@YGXXZ    004f51e8 f   nafxcw:olelock.obj
 0001:000f4201       ?_AfxInitDBCS@@YGHXZ       004f5201 f   nafxcw:afxdbcs.obj
 0001:000f423a       ?AfxFormatStrings@@YGXAAV?$CStringT@DV?$StrTraitMFC@DV?$ChTraitsCRT@D@ATL@@@@@ATL@@PBDPBQBDH@Z 004f523a f   nafxcw:apphelp.obj
 0001:000f437e       ?AfxFormatStrings@@YGXAAV?$CStringT@DV?$StrTraitMFC@DV?$ChTraitsCRT@D@ATL@@@@@ATL@@IPBQBDH@Z 004f537e f   nafxcw:apphelp.obj
 0001:000f43cf       ?AfxFormatString1@@YGXAAV?$CStringT@DV?$StrTraitMFC@DV?$ChTraitsCRT@D@ATL@@@@@ATL@@IPBD@Z 004f53cf f   nafxcw:apphelp.obj
 0001:000f43e9       ?Close@CFileFind@@QAEXXZ   004f53e9 f   nafxcw:filefind.obj
 0001:000f442b       ?CloseContext@CFileFind@@MAEXXZ 004f542b f   nafxcw:filefind.obj
 0001:000f4435       ?MatchesMask@CFileFind@@UBEHK@Z 004f5435 f   nafxcw:filefind.obj
 0001:000f4454       ?GetLastAccessTime@CFileFind@@UBEHPAU_FILETIME@@@Z 004f5454 f   nafxcw:filefind.obj
 0001:000f447d       ?GetLastWriteTime@CFileFind@@UBEHPAU_FILETIME@@@Z 004f547d f   nafxcw:filefind.obj
 0001:000f44a6       ?GetCreationTime@CFileFind@@UBEHPAU_FILETIME@@@Z 004f54a6 f   nafxcw:filefind.obj
 0001:000f44cf       ?FindNextFileA@CFileFind@@UAEHXZ 004f54cf f   nafxcw:filefind.obj
 0001:000f450b       ?GetRuntimeClass@CFileFind@@UBEPAUCRuntimeClass@@XZ 004f550b f   nafxcw:filefind.obj
 0001:000f4511       ?GetLastAccessTime@CFileFind@@UBEHAAVCTime@ATL@@@Z 004f5511 f   nafxcw:filefind.obj
 0001:000f4565       ?GetLastWriteTime@CFileFind@@UBEHAAVCTime@ATL@@@Z 004f5565 f   nafxcw:filefind.obj
 0001:000f45b9       ?GetCreationTime@CFileFind@@UBEHAAVCTime@ATL@@@Z 004f55b9 f   nafxcw:filefind.obj
 0001:000f460d       ?IsDots@CFileFind@@UBEHXZ  004f560d f   nafxcw:filefind.obj
 0001:000f4648       ??0CFileFind@@QAE@XZ       004f5648 f   nafxcw:filefind.obj
 0001:000f466e       ??1CFileFind@@UAE@XZ       004f566e f   nafxcw:filefind.obj
 0001:000f469f       ??_ECFileFind@@UAEPAXI@Z   004f569f f i nafxcw:filefind.obj
 0001:000f469f       ??_GCFileFind@@UAEPAXI@Z   004f569f f i nafxcw:filefind.obj
 0001:000f46c0       ?FindFile@CFileFind@@UAEHPBDK@Z 004f56c0 f   nafxcw:filefind.obj
 0001:000f47fa       ?GetFileTitle@CFileFind@@UBE?AV?$CStringT@DV?$StrTraitMFC@DV?$ChTraitsCRT@D@ATL@@@@@ATL@@XZ 004f57fa f   nafxcw:filefind.obj
 0001:000f486e       ?GetFilePath@CFileFind@@UBE?AV?$CStringT@DV?$StrTraitMFC@DV?$ChTraitsCRT@D@ATL@@@@@ATL@@XZ 004f586e f   nafxcw:filefind.obj
 0001:000f48fa       ?GetFileName@CFileFind@@UBE?AV?$CStringT@DV?$StrTraitMFC@DV?$ChTraitsCRT@D@ATL@@@@@ATL@@XZ 004f58fa f   nafxcw:filefind.obj
 0001:000f493d       ?GetFileURL@CFileFind@@UBE?AV?$CStringT@DV?$StrTraitMFC@DV?$ChTraitsCRT@D@ATL@@@@@ATL@@XZ 004f593d f   nafxcw:filefind.obj
 0001:000f4994       ?Lock@CSyncObject@@UAEHK@Z 004f5994 f   nafxcw:mtcore.obj
 0001:000f49bb       ?GetRuntimeClass@CCriticalSection@@UBEPAUCRuntimeClass@@XZ 004f59bb f   nafxcw:mtcore.obj
 0001:000f49c1       ?GetRuntimeClass@CSyncObject@@UBEPAUCRuntimeClass@@XZ 004f59c1 f   nafxcw:mtcore.obj
 0001:000f49c7       ??0CSyncObject@@QAE@PBD@Z  004f59c7 f   nafxcw:mtcore.obj
 0001:000f49d6       ??1CSyncObject@@UAE@XZ     004f59d6 f   nafxcw:mtcore.obj
 0001:000f49f5       ??_GCSyncObject@@UAEPAXI@Z 004f59f5 f i nafxcw:mtcore.obj
 0001:000f49f5       ??_ECSyncObject@@UAEPAXI@Z 004f59f5 f i nafxcw:mtcore.obj
 0001:000f4a16       ?AfxGetFileName@@YGIPBDPADI@Z 004f5a16 f   nafxcw:appinit.obj
 0001:000f4a56       ?SetCurrentHandles@CWinApp@@QAEXXZ 004f5a56 f   nafxcw:appinit.obj
 0001:000f4bdc       ?AfxWinInit@@YGHPAUHINSTANCE__@@0PADH@Z 004f5bdc f   nafxcw:appinit.obj
 0001:000f4c63       ?GetAppRegistryKey@CWinApp@@QAEPAUHKEY__@@XZ 004f5c63 f   nafxcw:appui3.obj
 0001:000f4cf6       ?GetSectionKey@CWinApp@@QAEPAUHKEY__@@PBD@Z 004f5cf6 f   nafxcw:appui3.obj
 0001:000f4d3e       ?WriteProfileInt@CWinApp@@QAEHPBD0H@Z 004f5d3e f   nafxcw:appui3.obj
 0001:000f4dc7       ?OnHelp@CWnd@@QAEXXZ       004f5dc7 f   nafxcw:winfrmx.obj
 0001:000f4e75       ?OnHelp@CFrameWnd@@IAEXXZ  004f5e75 f   nafxcw:winfrmx.obj
 0001:000f4ea7       ?GetAt@?$CArray@W4LoadArrayObjType@CArchive@@ABW412@@@QAEAAW4LoadArrayObjType@CArchive@@H@Z 004f5ea7 f i nafxcw:arcobj.obj
 0001:000f4ec8       ?CheckCount@CArchive@@QAEXXZ 004f5ec8 f   nafxcw:arcobj.obj
 0001:000f4edc       ??0?$CArray@W4LoadArrayObjType@CArchive@@ABW412@@@QAE@XZ 004f5edc f i nafxcw:arcobj.obj
 0001:000f4ef3       ?SetSize@?$CArray@W4LoadArrayObjType@CArchive@@ABW412@@@QAEXHH@Z 004f5ef3 f i nafxcw:arcobj.obj
 0001:000f502e       ?InsertAt@?$CArray@W4LoadArrayObjType@CArchive@@ABW412@@@QAEXHABW4LoadArrayObjType@CArchive@@H@Z 004f602e f i nafxcw:arcobj.obj
 0001:000f50ce       ??1?$CArray@W4LoadArrayObjType@CArchive@@ABW412@@@UAE@XZ 004f60ce f i nafxcw:arcobj.obj
 0001:000f50e3       ??_E?$CArray@W4LoadArrayObjType@CArchive@@ABW412@@@UAEPAXI@Z 004f60e3 f i nafxcw:arcobj.obj
 0001:000f50e3       ??_G?$CArray@W4LoadArrayObjType@CArchive@@ABW412@@@UAEPAXI@Z 004f60e3 f i nafxcw:arcobj.obj
 0001:000f5104       ??$SerializeElements@W4LoadArrayObjType@CArchive@@@@YGXAAVCArchive@@PAW4LoadArrayObjType@0@H@Z 004f6104 f i nafxcw:arcobj.obj
 0001:000f518c       ?EnsureSchemaMapExists@CArchive@@QAEXPAPAV?$CArray@W4LoadArrayObjType@CArchive@@ABW412@@@@Z 004f618c f   nafxcw:arcobj.obj
 0001:000f5260       ?MapObject@CArchive@@QAEXPBVCObject@@@Z 004f6260 f   nafxcw:arcobj.obj
 0001:000f539f       ?WriteClass@CArchive@@QAEXPBUCRuntimeClass@@@Z 004f639f f   nafxcw:arcobj.obj
 0001:000f544e       ?ReadClass@CArchive@@QAEPAUCRuntimeClass@@PBU2@PAIPAK@Z 004f644e f   nafxcw:arcobj.obj
 0001:000f5642       ?Serialize@?$CArray@W4LoadArrayObjType@CArchive@@ABW412@@@UAEXAAVCArchive@@@Z 004f6642 f i nafxcw:arcobj.obj
 0001:000f5684       ?WriteObject@CArchive@@QAEXPBVCObject@@@Z 004f6684 f   nafxcw:arcobj.obj
 0001:000f5720       ?ReadObject@CArchive@@QAEPAVCObject@@PBUCRuntimeClass@@@Z 004f6720 f   nafxcw:arcobj.obj
 0001:000f587a       ??0CFixedAllocNoSync@@QAE@II@Z 004f687a f   nafxcw:fixalloc.obj
 0001:000f58a8       ?FreeAll@CFixedAllocNoSync@@QAEXXZ 004f68a8 f   nafxcw:fixalloc.obj
 0001:000f58bf       ??1CFixedAllocNoSync@@QAE@XZ 004f68bf f   nafxcw:fixalloc.obj
 0001:000f58c4       ?Alloc@CFixedAllocNoSync@@QAEPAXXZ 004f68c4 f   nafxcw:fixalloc.obj
 0001:000f5906       ?GetRuntimeClass@CObArray@@UBEPAUCRuntimeClass@@XZ 004f6906 f   nafxcw:array_o.obj
 0001:000f590c       ??6@YGAAVCArchive@@AAV0@PBVCObject@@@Z 004f690c f i nafxcw:array_o.obj
 0001:000f5923       ??5@YGAAVCArchive@@AAV0@AAPAVCObject@@@Z 004f6923 f i nafxcw:array_o.obj
 0001:000f593e       ??0CObArray@@QAE@XZ        004f693e f   nafxcw:array_o.obj
 0001:000f5955       ??1CObArray@@UAE@XZ        004f6955 f   nafxcw:array_o.obj
 0001:000f5965       ?SetSize@CObArray@@QAEXHH@Z 004f6965 f   nafxcw:array_o.obj
 0001:000f5965       ?SetSize@CPtrArray@@QAEXHH@Z 004f6965 f   nafxcw:array_p.obj
 0001:000f5a8b       ?Serialize@CObArray@@UAEXAAVCArchive@@@Z 004f6a8b f   nafxcw:array_o.obj
 0001:000f5af6       ?CreateObject@CObArray@@SGPAVCObject@@XZ 004f6af6 f   nafxcw:array_o.obj
 0001:000f5b0c       ??_ECObArray@@UAEPAXI@Z    004f6b0c f i nafxcw:array_o.obj
 0001:000f5b0c       ??_GCObArray@@UAEPAXI@Z    004f6b0c f i nafxcw:array_o.obj
 0001:000f5b2d       _memcpy_s                  004f6b2d f   libcmt:memcpy_s.obj
 0001:000f5baa       _memmove_s                 004f6baa f   libcmt:memmove_s.obj
 0001:000f5c10       _strlen                    004f6c10 f   libcmt:strlen.obj
 0001:000f5c9b       ?__ArrayUnwind@@YGXPAXIHP6EX0@Z@Z 004f6c9b f   libcmt:ehvecdtr.obj
 0001:000f5cf9       ??_M@YGXPAXIHP6EX0@Z@Z     004f6cf9 f   libcmt:ehvecdtr.obj
 0001:000f5d5c       ??1type_info@@UAE@XZ       004f6d5c f   libcmt:typinfo.obj
 0001:000f5d6c       ??_Etype_info@@UAEPAXI@Z   004f6d6c f i libcmt:typinfo.obj
 0001:000f5d6c       ??_Gtype_info@@UAEPAXI@Z   004f6d6c f i libcmt:typinfo.obj
 0001:000f5d8d       ??8type_info@@QBE_NABV0@@Z 004f6d8d f   libcmt:typinfo.obj
 0001:000f5dad       ?_JumpToContinuation@@YGXPAXPAUEHRegistrationNode@@@Z 004f6dad f   libcmt:_trnsctrl_.obj
 0001:000f5ddf       ?_CallMemberFunction0@@YGXPAX0@Z 004f6ddf f   libcmt:_trnsctrl_.obj
 0001:000f5ddf       ?_CallMemberFunction2@@YGXPAX00H@Z 004f6ddf f   libcmt:_trnsctrl_.obj
 0001:000f5ddf       ?_CallMemberFunction1@@YGXPAX00@Z 004f6ddf f   libcmt:_trnsctrl_.obj
 0001:000f5de6       ?_UnwindNestedFrames@@YGXPAUEHRegistrationNode@@PAUEHExceptionRecord@@@Z 004f6de6 f   libcmt:_trnsctrl_.obj
 0001:000f5e3a       ___CxxFrameHandler3        004f6e3a f   libcmt:_trnsctrl_.obj
 0001:000f5ea3       ?_CallSETranslator@@YAHPAUEHExceptionRecord@@PAUEHRegistrationNode@@PAX2PBU_s_FuncInfo@@H1@Z 004f6ea3 f   libcmt:_trnsctrl_.obj
 0001:000f6019       ?_GetRangeOfTrysToCheck@@YAPBU_s_TryBlockMapEntry@@PBU_s_FuncInfo@@HHPAI1@Z 004f7019 f   libcmt:_trnsctrl_.obj
 0001:000f608e       __CreateFrameInfo          004f708e f   libcmt:_trnsctrl_.obj
 0001:000f60ba       __IsExceptionObjectToBeDestroyed 004f70ba f   libcmt:_trnsctrl_.obj
 0001:000f60e1       __FindAndUnlinkFrame       004f70e1 f   libcmt:_trnsctrl_.obj
 0001:000f6133       ?_CallCatchBlock2@@YAPAXPAUEHRegistrationNode@@PBU_s_FuncInfo@@PAXHK@Z 004f7133 f   libcmt:_trnsctrl_.obj
 0001:000f6193       @__security_check_cookie@4 004f7193 f   libcmt:secchk.obj
 0001:000f61a2       __EH_prolog3               004f71a2 f   libcmt:ehprolg3.obj
 0001:000f61d5       __EH_prolog3_catch         004f71d5 f   libcmt:ehprolg3.obj
 0001:000f620b       __EH_prolog3_GS            004f720b f   libcmt:ehprolg3.obj
 0001:000f6241       __EH_prolog3_catch_GS      004f7241 f   libcmt:ehprolg3.obj
 0001:000f627a       __EH_epilog3               004f727a f   libcmt:ehprolg3.obj
 0001:000f628e       __EH_epilog3_GS            004f728e f   libcmt:ehprolg3.obj
 0001:000f629d       __EH_epilog3_catch_GS      004f729d f   libcmt:ehprolg3.obj
 0001:000f62ac       ??0_LocaleUpdate@@QAE@PAUlocaleinfo_struct@@@Z 004f72ac f i libcmt:mbscmp.obj
 0001:000f6333       __mbscmp_l                 004f7333 f   libcmt:mbscmp.obj
 0001:000f645a       __mbscmp                   004f745a f   libcmt:mbscmp.obj
 0001:000f6471       __vsprintf_l               004f7471 f   libcmt:vsprintf.obj
 0001:000f64ef       _vsprintf                  004f74ef f   libcmt:vsprintf.obj
 0001:000f6509       __vscprintf_helper         004f7509 f   libcmt:vsprintf.obj
 0001:000f6560       __vscprintf                004f7560 f   libcmt:vsprintf.obj
 0001:000f657c       __vsnprintf_helper         004f757c f   libcmt:vsnprnc.obj
 0001:000f6648       __vsprintf_s_l             004f7648 f   libcmt:vsnprnc.obj
 0001:000f66d0       _vsprintf_s                004f76d0 f   libcmt:vsnprnc.obj
 0001:000f66ed       __vsnprintf_s_l            004f76ed f   libcmt:vsnprnc.obj
 0001:000f67f4       ??_L@YGXPAXIHP6EX0@Z1@Z    004f77f4 f   libcmt:ehvecctr.obj
 0001:000f6860       _strcpy                    004f7860 f   libcmt:strcat.obj
 0001:000f6870       _strcat                    004f7870 f   libcmt:strcat.obj
 0001:000f6960       _memset                    004f7960 f   libcmt:memset.obj
 0001:000f69da       __CxxThrowException@8      004f79da f   libcmt:throw.obj
 0001:000f6a26       __mbslwr_s_l               004f7a26 f   libcmt:mbslwr.obj
 0001:000f6b2b       __mbslwr_s                 004f7b2b f   libcmt:mbslwr.obj
 0001:000f6b42       __mbsupr_s_l               004f7b42 f   libcmt:mbsupr.obj
 0001:000f6c47       __mbsupr_s                 004f7c47 f   libcmt:mbsupr.obj
 0001:000f6c5e       _strnlen                   004f7c5e f   libcmt:strlen_s.obj
 0001:000f6c7b       _atol                      004f7c7b f   libcmt:atox.obj
 0001:000f6c91       _atoi                      004f7c91 f   libcmt:atox.obj
 0001:000f6c9c       __atoi64                   004f7c9c f   libcmt:atox.obj
 0001:000f6cb2       __freea                    004f7cb2 f i libcmt:strftime.obj
 0001:000f75b6       __Strftime_l               004f85b6 f   libcmt:strftime.obj
 0001:000f775a       _strftime                  004f875a f   libcmt:strftime.obj
 0001:000f7779       __localtime64_s            004f8779 f   libcmt:loctim64.obj
 0001:000f7a31       __localtime64              004f8a31 f   libcmt:loctim64.obj
 0001:000f7a58       __mbsinc                   004f8a58 f   libcmt:mbsinc.obj
 0001:000f7a9e       __ismbcspace_l             004f8a9e f   libcmt:ismbspc.obj
 0001:000f7b62       __ismbcspace               004f8b62 f   libcmt:ismbspc.obj
 0001:000f7b75       __mbschr_l                 004f8b75 f   libcmt:mbschr.obj
 0001:000f7c31       __mbschr                   004f8c31 f   libcmt:mbschr.obj
 0001:000f7c50       __allmul                   004f8c50 f   libcmt:llmul.obj
 0001:000f7c90       __alldiv                   004f8c90 f   libcmt:lldiv.obj
 0001:000f7fef       __mktime64                 004f8fef f   libcmt:mktime64.obj
 0001:000f8001       ??0exception@std@@QAE@XZ   004f9001 f   libcmt:stdexcpt.obj
 0001:000f8012       ??0exception@std@@QAE@ABQBD@Z 004f9012 f   libcmt:stdexcpt.obj
 0001:000f8065       ??0exception@std@@QAE@ABV01@@Z 004f9065 f   libcmt:stdexcpt.obj
 0001:000f80c2       ??1exception@std@@UAE@XZ   004f90c2 f   libcmt:stdexcpt.obj
 0001:000f80d8       ?what@exception@std@@UBEPBDXZ 004f90d8 f   libcmt:stdexcpt.obj
 0001:000f80e5       ??_Eexception@std@@UAEPAXI@Z 004f90e5 f i libcmt:stdexcpt.obj
 0001:000f80e5       ??_Gexception@std@@UAEPAXI@Z 004f90e5 f i libcmt:stdexcpt.obj
 0001:000f8106       __time64                   004f9106 f   libcmt:time64.obj
 0001:000f8349       __splitpath                004f9349 f   libcmt:splitpat.obj
 0001:000f83a0       _memcpy                    004f93a0 f   libcmt:memcpy.obj
 0001:000f8720       _strchr                    004f9720 f   libcmt:strchr.obj
 0001:000f8726       ___from_strstr_to_strchr   004f9726     libcmt:strchr.obj
 0001:000f87de       __toupper_l                004f97de f   libcmt:toupper.obj
 0001:000f88f4       _toupper                   004f98f4 f   libcmt:toupper.obj
 0001:000f8920       _printf                    004f9920 f   libcmt:printf.obj
 0001:000f89cf       __get_printf_count_output  004f99cf f   libcmt:printf.obj
 0001:000f8a9f       ___onexitinit              004f9a9f f   libcmt:onexit.obj
 0001:000f8ad0       __onexit                   004f9ad0 f   libcmt:onexit.obj
 0001:000f8b0c       _atexit                    004f9b0c f   libcmt:onexit.obj
 0001:000f8b23       __initp_misc_invarg        004f9b23 f   libcmt:invarg.obj
 0001:000f8b32       __invoke_watson            004f9b32 f   libcmt:invarg.obj
 0001:000f8c5a       __invalid_parameter        004f9c5a f   libcmt:invarg.obj
 0001:000f8c80       __invalid_parameter_noinfo 004f9c80 f   libcmt:invarg.obj
 0001:000f8c90       __mbsstr_l                 004f9c90 f   libcmt:mbsstr.obj
 0001:000f8dd1       __mbsstr                   004f9dd1 f   libcmt:mbsstr.obj
 0001:000f8de8       __mbsrchr_l                004f9de8 f   libcmt:mbsrchr.obj
 0001:000f8ea4       __mbsrchr                  004f9ea4 f   libcmt:mbsrchr.obj
 0001:000f8ebb       __purecall                 004f9ebb f   libcmt:purevirt.obj
 0001:000f8ee5       _strncmp                   004f9ee5 f   libcmt:strncmp.obj
 0001:000f8fa5       _free                      004f9fa5 f   libcmt:free.obj
 0001:000f9033       _V6_HeapAlloc              004fa033 f   libcmt:malloc.obj
 0001:000f9082       _malloc                    004fa082 f   libcmt:malloc.obj
 0001:000f9190       __itoa                     004fa190 f   libcmt:xtoa.obj
 0001:000f91ba       _strtok                    004fa1ba f   libcmt:strtok.obj
 0001:000f927b       _memcmp                    004fa27b f   libcmt:memcmp.obj
 0001:000fa900       _strcmp                    004fb900 f   libcmt:strcmp.obj
 0001:000fa9f2       _sscanf                    004fb9f2 f   libcmt:sscanf.obj
 0001:000faa14       __cfltcvt_init             004fba14 f   libcmt:_fpinit_.obj
 0001:000faa74       __fpmath                   004fba74 f   libcmt:_fpinit_.obj
 0001:000fac15       __strupr_s_l               004fbc15 f   libcmt:strupr.obj
 0001:000fac4a       __strupr                   004fbc4a f   libcmt:strupr.obj
 0001:000facaf       _realloc                   004fbcaf f   libcmt:realloc.obj
 0001:000faeca       ___ascii_stricmp           004fbeca f   libcmt:stricmp.obj
 0001:000faf03       __stricmp_l                004fbf03 f   libcmt:stricmp.obj
 0001:000fafd8       __stricmp                  004fbfd8 f   libcmt:stricmp.obj
 0001:000fb030       __aulldiv                  004fc030 f   libcmt:ulldiv.obj
 0001:000fb098       _sprintf                   004fc098 f   libcmt:sprintf.obj
 0001:000fb115       _sprintf_s                 004fc115 f   libcmt:sprintf.obj
 0001:000fb133       __snprintf_s               004fc133 f   libcmt:sprintf.obj
 0001:000fb160       __chkstk                   004fc160 f   libcmt:chkstk.obj
 0001:000fb160       __alloca_probe             004fc160     libcmt:chkstk.obj
 0001:000fb332       _WinMainCRTStartup         004fc332 f   libcmt:wincrt0.obj
 0001:000fb340       _strncpy                   004fc340 f   libcmt:strncpy.obj
 0001:000fb470       _strstr                    004fc470 f   libcmt:strstr.obj
 0001:000fb500       __allshl                   004fc500 f   libcmt:llshl.obj
 0001:000fb520       __allshr                   004fc520 f   libcmt:llshr.obj
 0001:000fb550       __allrem                   004fc550 f   libcmt:llrem.obj
 0001:000fb610       _strrchr                   004fc610 f   libcmt:strrchr.obj
 0001:000fb63d       __getenv_helper_nolock     004fc63d f   libcmt:getenv.obj
 0001:000fb6c4       __strnicmp_l               004fc6c4 f   libcmt:strnicmp.obj
 0001:000fb7b6       __strnicmp                 004fc7b6 f   libcmt:strnicmp.obj
 0001:000fb814       __tolower_l                004fc814 f   libcmt:tolower.obj
 0001:000fb929       _tolower                   004fc929 f   libcmt:tolower.obj
 0001:000fb955       _srand                     004fc955 f   libcmt:rand.obj
 0001:000fb967       _rand                      004fc967 f   libcmt:rand.obj
 0001:000fb990       _memchr                    004fc990 f   libcmt:memchr.obj
 0001:000fba40       __ftol2_sse                004fca40 f   libcmt:ftol2.obj
 0001:000fba49       __ftol2_pentium4           004fca49 f   libcmt:ftol2.obj
 0001:000fba5c       __ftol2_sse_excpt          004fca5c f   libcmt:ftol2.obj
 0001:000fba76       __ftol2                    004fca76 f   libcmt:ftol2.obj
 0001:000fbaf0       _floor                     004fcaf0 f   libcmt:_floor_pentium4_.obj
 0001:000fbb30       __floor_pentium4           004fcb30 f   libcmt:_floor_pentium4_.obj
 0001:000fbc11       __gmtime64_s               004fcc11 f   libcmt:gmtime64.obj
 0001:000fbe54       __get_daylight             004fce54 f   libcmt:timeset.obj
 0001:000fbe8d       __get_dstbias              004fce8d f   libcmt:timeset.obj
 0001:000fbec6       __get_timezone             004fcec6 f   libcmt:timeset.obj
 0001:000fbeff       ___daylight                004fceff f   libcmt:timeset.obj
 0001:000fbf05       ___dstbias                 004fcf05 f   libcmt:timeset.obj
 0001:000fbf0b       ___timezone                004fcf0b f   libcmt:timeset.obj
 0001:000fbf11       ___tzname                  004fcf11 f   libcmt:timeset.obj
 0001:000fbf20       _memmove                   004fcf20 f   libcmt:memmove.obj
 0001:000fc290       __aullshr                  004fd290 f   libcmt:ullshr.obj
 0001:000fc2af       __fseek_nolock             004fd2af f   libcmt:fseek.obj
 0001:000fc339       _fseek                     004fd339 f   libcmt:fseek.obj
 0001:000fc3be       __ftell_nolock             004fd3be f   libcmt:ftell.obj
 0001:000fc55b       _ftell                     004fd55b f   libcmt:ftell.obj
 0001:000fc5c9       __fwrite_nolock            004fd5c9 f   libcmt:fwrite.obj
 0001:000fc72b       _fwrite                    004fd72b f   libcmt:fwrite.obj
 0001:000fc7ad       __isdigit_l                004fd7ad f i libcmt:_ctype.obj
 0001:000fc7fe       _isdigit                   004fd7fe f i libcmt:_ctype.obj
 0001:000fc82c       __isxdigit_l               004fd82c f i libcmt:_ctype.obj
 0001:000fc882       _isxdigit                  004fd882 f i libcmt:_ctype.obj
 0001:000fc8b2       __isspace_l                004fd8b2 f i libcmt:_ctype.obj
 0001:000fc903       _isspace                   004fd903 f i libcmt:_ctype.obj
 0001:000fc931       __isalnum_l                004fd931 f i libcmt:_ctype.obj
 0001:000fc987       _isalnum                   004fd987 f i libcmt:_ctype.obj
 0001:000fc9b7       __fclose_nolock            004fd9b7 f   libcmt:fclose.obj
 0001:000fca2e       _fclose                    004fda2e f   libcmt:fclose.obj
 0001:000fcaaa       __fread_nolock_s           004fdaaa f   libcmt:fread.obj
 0001:000fccb4       _fread_s                   004fdcb4 f   libcmt:fread.obj
 0001:000fcd4a       _fread                     004fdd4a f   libcmt:fread.obj
 0001:000fcd67       _fgets                     004fdd67 f   libcmt:fgets.obj
 0001:000fceaf       _wcslen                    004fdeaf f   libcmt:wcslen.obj
 0001:000fcec9       _strcat_s                  004fdec9 f   libcmt:strcat_s.obj
 0001:000fcf3d       _strcpy_s                  004fdf3d f   libcmt:strcpy_s.obj
 0001:000fd1d4       _strtol                    004fe1d4 f   libcmt:strtol.obj
 0001:000fd1ff       _calloc                    004fe1ff f   libcmt:calloc.obj
 0001:000fd23f       _strncpy_s                 004fe23f f   libcmt:strncpy_s.obj
 0001:000fd300       __except_handler4          004fe300 f   libcmt:chandler4.obj
 0001:000fd48c       __getdrive                 004fe48c f   libcmt:drive.obj
 0001:000fd555       __mbspbrk_l                004fe555 f   libcmt:mbspbrk.obj
 0001:000fd622       __mbspbrk                  004fe622 f   libcmt:mbspbrk.obj
 0001:000fd639       __mbsncmp_l                004fe639 f   libcmt:mbsncmp.obj
 0001:000fd765       __mbsncmp                  004fe765 f   libcmt:mbsncmp.obj
 0001:000fd77f       __mbsnbcmp_l               004fe77f f   libcmt:mbsnbcmp.obj
 0001:000fd8e9       __mbsnbcmp                 004fe8e9 f   libcmt:mbsnbcmp.obj
 0001:000fd903       __mbclen                   004fe903 f   libcmt:mbclen.obj
 0001:000fd92b       __mbccpy                   004fe92b f   libcmt:mbccpy.obj
 0001:000fd948       __SEH_prolog4              004fe948 f   libcmt:sehprolg4.obj
 0001:000fd98d       __SEH_epilog4              004fe98d f   libcmt:sehprolg4.obj
 0001:000fd9a1       __mbsnbcpy_s               004fe9a1 f   libcmt:mbsnbcpy_s.obj
 0001:000fd9c0       __SEH_prolog4_GS           004fe9c0 f   libcmt:sehprolg4gs.obj
 0001:000fda08       __SEH_epilog4_GS           004fea08 f   libcmt:sehprolg4gs.obj
 0001:000fda20       __alloca_probe_16          004fea20 f   libcmt:alloca16.obj
 0001:000fda36       __alloca_probe_8           004fea36     libcmt:alloca16.obj
 0001:000fda4c       __get_errno_from_oserr     004fea4c f   libcmt:dosmap.obj
 0001:000fda8e       __errno                    004fea8e f   libcmt:dosmap.obj
 0001:000fdaa1       ___doserrno                004feaa1 f   libcmt:dosmap.obj
 0001:000fdab4       __dosmaperr                004feab4 f   libcmt:dosmap.obj
 0001:000fdad7       __crt_waiting_on_module_handle 004fead7 f   libcmt:crt0dat.obj
 0001:000fdb07       __amsg_exit                004feb07 f   libcmt:crt0dat.obj
 0001:000fdb30       ___crtCorExitProcess       004feb30 f   libcmt:crt0dat.obj
 0001:000fdb5b       ___crtExitProcess          004feb5b f   libcmt:crt0dat.obj
 0001:000fdb73       __lockexit                 004feb73 f   libcmt:crt0dat.obj
 0001:000fdb7c       __unlockexit               004feb7c f   libcmt:crt0dat.obj
 0001:000fdba2       __initterm_e               004feba2 f   libcmt:crt0dat.obj
 0001:000fdbc6       __cinit                    004febc6 f   libcmt:crt0dat.obj
 0001:000fdd77       _exit                      004fed77 f   libcmt:crt0dat.obj
 0001:000fdd8d       __exit                     004fed8d f   libcmt:crt0dat.obj
 0001:000fdda3       __cexit                    004feda3 f   libcmt:crt0dat.obj
 0001:000fddb2       __c_exit                   004fedb2 f   libcmt:crt0dat.obj
 0001:000fddc1       __init_pointers            004fedc1 f   libcmt:crt0dat.obj
 0001:000fde0f       __strdup                   004fee0f f   libcmt:strdup.obj
 0001:000fde64       __set_osfhnd               004fee64 f   libcmt:osfinfo.obj
 0001:000fdee5       __free_osfhnd              004feee5 f   libcmt:osfinfo.obj
 0001:000fdf6b       __get_osfhandle            004fef6b f   libcmt:osfinfo.obj
 0001:000fdfe2       ___lock_fhandle            004fefe2 f   libcmt:osfinfo.obj
 0001:000fe082       __unlock_fhandle           004ff082 f   libcmt:osfinfo.obj
 0001:000fe0a9       __alloc_osfhnd             004ff0a9 f   libcmt:osfinfo.obj
 0001:000fe243       __open_osfhandle           004ff243 f   libcmt:osfinfo.obj
 0001:000fe359       __fileno                   004ff359 f   libcmt:fileno.obj
 0001:000fe38b       __fdopen                   004ff38b f   libcmt:fdopen.obj
 0001:000fe511       _clearerr_s                004ff511 f   libcmt:clearerr.obj
 0001:000fe5be       _feof                      004ff5be f   libcmt:feoferr.obj
 0001:000fe5f2       _ferror                    004ff5f2 f   libcmt:feoferr.obj
 0001:000fe626       _fputs                     004ff626 f   libcmt:fputs.obj
 0001:000fe735       __flush                    004ff735 f   libcmt:fflush.obj
 0001:000fe79d       __fflush_nolock            004ff79d f   libcmt:fflush.obj
 0001:000fe8bf       _fflush                    004ff8bf f   libcmt:fflush.obj
 0001:000fe912       __flushall                 004ff912 f   libcmt:fflush.obj
 0001:000fe91b       __mbsspn_l                 004ff91b f   libcmt:mbsspn.obj
 0001:000fe9e2       __mbsspn                   004ff9e2 f   libcmt:mbsspn.obj
 0001:000fe9f9       __mbscspn_l                004ff9f9 f   libcmt:mbscspn.obj
 0001:000feac0       __mbscspn                  004ffac0 f   libcmt:mbscspn.obj
 0001:000feb56       __expand                   004ffb56 f   libcmt:expand.obj
 0001:000fec96       __msize                    004ffc96 f   libcmt:msize.obj
 0001:000fed8c       __ismbblead_l              004ffd8c f   libcmt:ismbbyte.obj
 0001:000feda5       __ismbblead                004ffda5 f   libcmt:ismbbyte.obj
 0001:000fedbd       __mbsdec_l                 004ffdbd f   libcmt:mbsdec.obj
 0001:000fee56       __mbsdec                   004ffe56 f   libcmt:mbsdec.obj
 0001:000fee6d       __splitpath_s              004ffe6d f   libcmt:splitpath_s.obj
 0001:000ff06c       __makepath_s               0050006c f   libcmt:makepath_s.obj
 0001:000ff175       __fullpath                 00500175 f   libcmt:fullpath.obj
 0001:000ff27f       ?terminate@@YAXXZ          0050027f f   libcmt:hooks.obj
 0001:000ff2b8       ?unexpected@@YAXXZ         005002b8 f   libcmt:hooks.obj
 0001:000ff2cb       ?_inconsistency@@YAXXZ     005002cb f   libcmt:hooks.obj
 0001:000ff303       __initp_eh_hooks           00500303 f   libcmt:hooks.obj
 0001:000ff314       ?_Type_info_dtor@type_info@@CAXPAV1@@Z 00500314 f   libcmt:typname.obj
 0001:000ff384       ??0bad_exception@std@@QAE@PBD@Z 00500384 f i libcmt:frame.obj
 0001:000ff3a2       ??1bad_exception@std@@UAE@XZ 005003a2 f i libcmt:frame.obj
 0001:000ff3ad       ??_Gbad_exception@std@@UAEPAXI@Z 005003ad f i libcmt:frame.obj
 0001:000ff3ad       ??_Ebad_exception@std@@UAEPAXI@Z 005003ad f i libcmt:frame.obj
 0001:000ff3d4       ___TypeMatch               005003d4 f   libcmt:frame.obj
 0001:000ff433       ___FrameUnwindFilter       00500433 f   libcmt:frame.obj
 0001:000ff47c       ___FrameUnwindToState      0050047c f   libcmt:frame.obj
 0001:000ff5a2       ___DestructExceptionObject 005005a2 f   libcmt:frame.obj
 0001:000ff5f7       ___AdjustPointer           005005f7 f   libcmt:frame.obj
 0001:000ff880       ___BuildCatchObjectHelper  00500880 f   libcmt:frame.obj
 0001:000ff9ff       ___BuildCatchObject        005009ff f   libcmt:frame.obj
 0001:000fff3a       ??0bad_exception@std@@QAE@ABV01@@Z 00500f3a f i libcmt:frame.obj
 0001:000fff57       ___InternalCxxFrameHandler 00500f57 f   libcmt:frame.obj
 0001:0010003d       __encode_pointer           0050103d f   libcmt:tidtable.obj
 0001:001000af       __encoded_null             005010af f   libcmt:tidtable.obj
 0001:001000b8       __decode_pointer           005010b8 f   libcmt:tidtable.obj
 0001:0010012a       ___crtTlsAlloc@4           0050112a f   libcmt:tidtable.obj
 0001:00100133       ___set_flsgetvalue         00501133 f   libcmt:tidtable.obj
 0001:00100167       __mtterm                   00501167 f   libcmt:tidtable.obj
 0001:001001a4       __initptd                  005011a4 f   libcmt:tidtable.obj
 0001:0010028b       __getptd_noexit            0050128b f   libcmt:tidtable.obj
 0001:00100304       __getptd                   00501304 f   libcmt:tidtable.obj
 0001:0010031e       __freefls@4                0050131e f   libcmt:tidtable.obj
 0001:0010044d       __mtinit                   0050144d f   libcmt:tidtable.obj
 0001:001005e0       __CallSettingFrame@12      005015e0 f   libcmt:lowhelpr.obj
 0001:00100607       __NLG_Return               00501607     libcmt:lowhelpr.obj
 0001:0010062c       ___report_gsfailure        0050162c f   libcmt:gs_report.obj
 0001:00100958       ___updatetmbcinfo          00501958 f   libcmt:mbctype.obj
 0001:00100a78       __setmbcp_nolock           00501a78 f   libcmt:mbctype.obj
 0001:00100c5d       __setmbcp                  00501c5d f   libcmt:mbctype.obj
 0001:00100df7       ___initmbctable            00501df7 f   libcmt:mbctype.obj
 0001:00100e15       ___freetlocinfo            00501e15 f   libcmt:setlocal.obj
 0001:00100f5e       ___addlocaleref            00501f5e f   libcmt:setlocal.obj
 0001:00100fed       ___removelocaleref         00501fed f   libcmt:setlocal.obj
 0001:001010c4       ___updatetlocinfo          005020c4 f   libcmt:setlocal.obj
 0001:0010113a       __flsbuf                   0050213a f   libcmt:_flsbuf.obj
 0001:001012f7       __output_l                 005022f7 f   libcmt:output.obj
 0001:00101edc       __output_s_l               00502edc f   libcmt:outputs.obj
 0001:00102b03       __VEC_memzero              00503b03 f   libcmt:p4_memset.obj
 0001:00102be2       __get_sse2_info            00503be2 f   libcmt:cpu_disp.obj
 0001:00102c44       ___sse2_available_init     00503c44 f   libcmt:cpu_disp.obj
 0001:00102ff6       ___crtLCMapStringA         00503ff6 f   libcmt:a_map.obj
 0001:001032d2       __strtoi64                 005042d2 f   libcmt:strtoq.obj
 0001:001032fd       __malloc_crt               005042fd f   libcmt:crtheap.obj
 0001:00103342       __calloc_crt               00504342 f   libcmt:crtheap.obj
 0001:0010338e       __realloc_crt              0050438e f   libcmt:crtheap.obj
 0001:001033dc       __recalloc_crt             005043dc f   libcmt:crtheap.obj
 0001:0010342e       __set_daylight             0050442e f i libcmt:tzset.obj
 0001:0010343f       __set_dstbias              0050443f f i libcmt:tzset.obj
 0001:00103450       __set_timezone             00504450 f i libcmt:tzset.obj
 0001:00103b76       ___tzset                   00504b76 f   libcmt:tzset.obj
 0001:00103bc5       __isindst                  00504bc5 f   libcmt:tzset.obj
 0001:00103c06       __isleadbyte_l             00504c06 f i libcmt:_wctype.obj
 0001:00103c3e       _isleadbyte                00504c3e f i libcmt:_wctype.obj
 0001:00103c51       ___getgmtimebuf            00504c51 f   libcmt:gmtime.obj
 0001:00103c88       __isctype_l                00504c88 f   libcmt:isctype.obj
 0001:00103efa       ___crtGetStringTypeA       00504efa f   libcmt:a_str.obj
 0001:00103fc3       __VEC_memcpy               00504fc3 f   libcmt:p4_memcpy.obj
 0001:001040a6       ___iob_func                005050a6 f   libcmt:_file.obj
 0001:001040ac       ___initstdio               005050ac f   libcmt:_file.obj
 0001:0010415d       ___endstdio                0050515d f   libcmt:_file.obj
 0001:0010417d       __lock_file                0050517d f   libcmt:_file.obj
 0001:001041be       __lock_file2               005051be f   libcmt:_file.obj
 0001:001041f0       __unlock_file              005051f0 f   libcmt:_file.obj
 0001:0010422c       __unlock_file2             0050522c f   libcmt:_file.obj
 0001:0010425b       __stbuf                    0050525b f   libcmt:_sftbuf.obj
 0001:001042f7       __ftbuf                    005052f7 f   libcmt:_sftbuf.obj
 0001:0010432b       __crt_debugger_hook        0050532b f   libcmt:dbghook.obj
 0001:00104333       _abort                     00505333 f   libcmt:abort.obj
 0001:0010444a       __set_abort_behavior       0050544a f   libcmt:abort.obj
 0001:0010446b       __NMSG_WRITE               0050546b f   libcmt:crt0msg.obj
 0001:00104616       __FF_MSGBANNER             00505616 f   libcmt:crt0msg.obj
 0001:0010464f       __initp_misc_purevirt      0050564f f   libcmt:inithelp.obj
 0001:0010465e       __heap_init                0050565e f   libcmt:heapinit.obj
 0001:0010468e       __mtinitlocks              0050568e f   libcmt:mlock.obj
 0001:001046d9       __mtdeletelocks            005056d9 f   libcmt:mlock.obj
 0001:00104730       __unlock                   00505730 f   libcmt:mlock.obj
 0001:00104747       __mtinitlocknum            00505747 f   libcmt:mlock.obj
 0001:0010480a       __lock                     0050580a f   libcmt:mlock.obj
 0001:0010483d       ___sbh_find_block          0050583d f   libcmt:sbheap.obj
 0001:0010486d       ___sbh_free_block          0050586d f   libcmt:sbheap.obj
 0001:00104b83       ___sbh_alloc_new_region    00505b83 f   libcmt:sbheap.obj
 0001:00104c33       ___sbh_alloc_new_group     00505c33 f   libcmt:sbheap.obj
 0001:00104d3b       ___sbh_resize_block        00505d3b f   libcmt:sbheap.obj
 0001:0010501c       ___sbh_alloc_block         0050601c f   libcmt:sbheap.obj
 0001:00105301       __initp_heap_handler       00506301 f   libcmt:handler.obj
 0001:00105310       __callnewh                 00506310 f   libcmt:handler.obj
 0001:00105340       __aulldvrm                 00506340 f   libcmt:ulldvrm.obj
 0001:0010549f       __input_l                  0050649f f   libcmt:input.obj
 0001:0010645c       __forcdecpt_l              0050745c f   libcmt:cvt.obj
 0001:001064cf       __cropzeros_l              005074cf f   libcmt:cvt.obj
 0001:00106551       __positive                 00507551 f   libcmt:cvt.obj
 0001:0010656d       __fassign_l                0050756d f   libcmt:cvt.obj
 0001:001065af       __fassign                  005075af f   libcmt:cvt.obj
 0001:001065e8       __forcdecpt                005075e8 f   libcmt:cvt.obj
 0001:001065fb       __cropzeros                005075fb f   libcmt:cvt.obj
 0001:0010677d       __cftoe_l                  0050777d f   libcmt:cvt.obj
 0001:0010684d       __cftoe                    0050784d f   libcmt:cvt.obj
 0001:0010686d       __cftoa_l                  0050786d f   libcmt:cvt.obj
 0001:00106cd7       __cftof_l                  00507cd7 f   libcmt:cvt.obj
 0001:00106d92       __cftog_l                  00507d92 f   libcmt:cvt.obj
 0001:00106e8c       __cfltcvt_l                00507e8c f   libcmt:cvt.obj
 0001:00106f14       __cfltcvt                  00507f14 f   libcmt:cvt.obj
 0001:00106f37       __initp_misc_cfltcvt_tab   00507f37 f   libcmt:cmiscdat.obj
 0001:00106f58       __setdefaultprecision      00507f58 f   libcmt:fp8.obj
 0001:00106f83       __ms_p5_test_fdiv          00507f83 f   libcmt:_testfdiv_.obj
 0001:00106fc1       __ms_p5_mp_test_fdiv       00507fc1 f   libcmt:_testfdiv_.obj
 0001:00106fea       ?__CxxUnhandledExceptionFilter@@YGJPAU_EXCEPTION_POINTERS@@@Z 00507fea f   libcmt:unhandld.obj
 0001:0010702c       ___CxxSetUnhandledExceptionFilter 0050802c f   libcmt:unhandld.obj
 0001:0010703a       __XcptFilter               0050803a f   libcmt:winxfltr.obj
 0001:0010719a       __wincmdln                 0050819a f   libcmt:wincmdln.obj
 0001:001071f9       __setenvp                  005081f9 f   libcmt:stdenvp.obj
 0001:00107471       __setargv                  00508471 f   libcmt:stdargv.obj
